Microsoft (R) COFF/PE Dumper Version 14.25.28614.0
Copyright (C) Microsoft Corporation.  All rights reserved.


Dump of file Main.exe

File Type: EXECUTABLE IMAGE

  00401000: 55                 push        ebp
  00401001: 8B EC              mov         ebp,esp
  00401003: 51                 push        ecx
  00401004: C7 45 FC 04 00 00  mov         dword ptr [ebp-4],4
            00
  0040100B: 33 C0              xor         eax,eax
  0040100D: 8B E5              mov         esp,ebp
  0040100F: 5D                 pop         ebp
  00401010: C3                 ret
  00401011: 56                 push        esi
  00401012: 6A 01              push        1
  00401014: E8 D9 22 00 00     call        004032F2
  00401019: E8 34 05 00 00     call        00401552
  0040101E: 50                 push        eax
  0040101F: E8 4B 2C 00 00     call        00403C6F
  00401024: E8 22 05 00 00     call        0040154B
  00401029: 8B F0              mov         esi,eax
  0040102B: E8 FB 2D 00 00     call        00403E2B
  00401030: 6A 01              push        1
  00401032: 89 30              mov         dword ptr [eax],esi
  00401034: E8 D8 02 00 00     call        00401311
  00401039: 83 C4 0C           add         esp,0Ch
  0040103C: 5E                 pop         esi
  0040103D: 84 C0              test        al,al
  0040103F: 74 73              je          004010B4
  00401041: DB E2              fnclex
  00401043: E8 4E 07 00 00     call        00401796
  00401048: 68 C2 17 40 00     push        4017C2h
  0040104D: E8 4C 04 00 00     call        0040149E
  00401052: E8 F7 04 00 00     call        0040154E
  00401057: 50                 push        eax
  00401058: E8 2D 26 00 00     call        0040368A
  0040105D: 59                 pop         ecx
  0040105E: 59                 pop         ecx
  0040105F: 85 C0              test        eax,eax
  00401061: 75 51              jne         004010B4
  00401063: E8 F0 04 00 00     call        00401558
  00401068: E8 45 05 00 00     call        004015B2
  0040106D: 85 C0              test        eax,eax
  0040106F: 74 0B              je          0040107C
  00401071: 68 4B 15 40 00     push        40154Bh
  00401076: E8 FE 22 00 00     call        00403379
  0040107B: 59                 pop         ecx
  0040107C: E8 07 05 00 00     call        00401588
  00401081: E8 02 05 00 00     call        00401588
  00401086: E8 DC 04 00 00     call        00401567
  0040108B: E8 BB 04 00 00     call        0040154B
  00401090: 50                 push        eax
  00401091: E8 FD 2C 00 00     call        00403D93
  00401096: 59                 pop         ecx
  00401097: E8 C8 04 00 00     call        00401564
  0040109C: 84 C0              test        al,al
  0040109E: 74 05              je          004010A5
  004010A0: E8 A0 28 00 00     call        00403945
  004010A5: E8 A1 04 00 00     call        0040154B
  004010AA: E8 35 06 00 00     call        004016E4
  004010AF: 85 C0              test        eax,eax
  004010B1: 75 01              jne         004010B4
  004010B3: C3                 ret
  004010B4: 6A 07              push        7
  004010B6: E8 0F 05 00 00     call        004015CA
  004010BB: CC                 int         3
  004010BC: E8 D4 04 00 00     call        00401595
  004010C1: 33 C0              xor         eax,eax
  004010C3: C3                 ret
  004010C4: E8 63 06 00 00     call        0040172C
  004010C9: E8 7D 04 00 00     call        0040154B
  004010CE: 50                 push        eax
  004010CF: E8 28 2D 00 00     call        00403DFC
  004010D4: 59                 pop         ecx
  004010D5: C3                 ret
  004010D6: 6A 14              push        14h
  004010D8: 68 58 1F 41 00     push        411F58h
  004010DD: E8 0E 07 00 00     call        004017F0
  004010E2: 6A 01              push        1
  004010E4: E8 EF 01 00 00     call        004012D8
  004010E9: 59                 pop         ecx
  004010EA: 84 C0              test        al,al
  004010EC: 0F 84 50 01 00 00  je          00401242
  004010F2: 32 DB              xor         bl,bl
  004010F4: 88 5D E7           mov         byte ptr [ebp-19h],bl
  004010F7: 83 65 FC 00        and         dword ptr [ebp-4],0
  004010FB: E8 A6 01 00 00     call        004012A6
  00401100: 88 45 DC           mov         byte ptr [ebp-24h],al
  00401103: A1 80 38 41 00     mov         eax,dword ptr ds:[00413880h]
  00401108: 33 C9              xor         ecx,ecx
  0040110A: 41                 inc         ecx
  0040110B: 3B C1              cmp         eax,ecx
  0040110D: 0F 84 2F 01 00 00  je          00401242
  00401113: 85 C0              test        eax,eax
  00401115: 75 49              jne         00401160
  00401117: 89 0D 80 38 41 00  mov         dword ptr ds:[00413880h],ecx
  0040111D: 68 30 D1 40 00     push        40D130h
  00401122: 68 18 D1 40 00     push        40D118h
  00401127: E8 63 28 00 00     call        0040398F
  0040112C: 59                 pop         ecx
  0040112D: 59                 pop         ecx
  0040112E: 85 C0              test        eax,eax
  00401130: 74 11              je          00401143
  00401132: C7 45 FC FE FF FF  mov         dword ptr [ebp-4],0FFFFFFFEh
            FF
  00401139: B8 FF 00 00 00     mov         eax,0FFh
  0040113E: E9 EF 00 00 00     jmp         00401232
  00401143: 68 14 D1 40 00     push        40D114h
  00401148: 68 0C D1 40 00     push        40D10Ch
  0040114D: E8 F8 27 00 00     call        0040394A
  00401152: 59                 pop         ecx
  00401153: 59                 pop         ecx
  00401154: C7 05 80 38 41 00  mov         dword ptr ds:[00413880h],2
            02 00 00 00
  0040115E: EB 05              jmp         00401165
  00401160: 8A D9              mov         bl,cl
  00401162: 88 5D E7           mov         byte ptr [ebp-19h],bl
  00401165: FF 75 DC           push        dword ptr [ebp-24h]
  00401168: E8 BF 02 00 00     call        0040142C
  0040116D: 59                 pop         ecx
  0040116E: E8 4B 04 00 00     call        004015BE
  00401173: 8B F0              mov         esi,eax
  00401175: 33 FF              xor         edi,edi
  00401177: 39 3E              cmp         dword ptr [esi],edi
  00401179: 74 1B              je          00401196
  0040117B: 56                 push        esi
  0040117C: E8 17 02 00 00     call        00401398
  00401181: 59                 pop         ecx
  00401182: 84 C0              test        al,al
  00401184: 74 10              je          00401196
  00401186: 8B 36              mov         esi,dword ptr [esi]
  00401188: 57                 push        edi
  00401189: 6A 02              push        2
  0040118B: 57                 push        edi
  0040118C: 8B CE              mov         ecx,esi
  0040118E: FF 15 08 D1 40 00  call        dword ptr ds:[0040D108h]
  00401194: FF D6              call        esi
  00401196: E8 29 04 00 00     call        004015C4
  0040119B: 8B F0              mov         esi,eax
  0040119D: 39 3E              cmp         dword ptr [esi],edi
  0040119F: 74 13              je          004011B4
  004011A1: 56                 push        esi
  004011A2: E8 F1 01 00 00     call        00401398
  004011A7: 59                 pop         ecx
  004011A8: 84 C0              test        al,al
  004011AA: 74 08              je          004011B4
  004011AC: FF 36              push        dword ptr [esi]
  004011AE: E8 80 2A 00 00     call        00403C33
  004011B3: 59                 pop         ecx
  004011B4: E8 78 27 00 00     call        00403931
  004011B9: 8B F8              mov         edi,eax
  004011BB: E8 0B 2B 00 00     call        00403CCB
  004011C0: 8B 30              mov         esi,dword ptr [eax]
  004011C2: E8 FE 2A 00 00     call        00403CC5
  004011C7: 57                 push        edi
  004011C8: 56                 push        esi
  004011C9: FF 30              push        dword ptr [eax]
  004011CB: E8 30 FE FF FF     call        00401000
  004011D0: 83 C4 0C           add         esp,0Ch
  004011D3: 8B F0              mov         esi,eax
  004011D5: E8 0F 05 00 00     call        004016E9
  004011DA: 84 C0              test        al,al
  004011DC: 74 6B              je          00401249
  004011DE: 84 DB              test        bl,bl
  004011E0: 75 05              jne         004011E7
  004011E2: E8 27 2A 00 00     call        00403C0E
  004011E7: 6A 00              push        0
  004011E9: 6A 01              push        1
  004011EB: E8 59 02 00 00     call        00401449
  004011F0: 59                 pop         ecx
  004011F1: 59                 pop         ecx
  004011F2: C7 45 FC FE FF FF  mov         dword ptr [ebp-4],0FFFFFFFEh
            FF
  004011F9: 8B C6              mov         eax,esi
  004011FB: EB 35              jmp         00401232
  004011FD: 8B 4D EC           mov         ecx,dword ptr [ebp-14h]
  00401200: 8B 01              mov         eax,dword ptr [ecx]
  00401202: 8B 00              mov         eax,dword ptr [eax]
  00401204: 89 45 E0           mov         dword ptr [ebp-20h],eax
  00401207: 51                 push        ecx
  00401208: 50                 push        eax
  00401209: E8 86 1F 00 00     call        00403194
  0040120E: 59                 pop         ecx
  0040120F: 59                 pop         ecx
  00401210: C3                 ret
  00401211: 8B 65 E8           mov         esp,dword ptr [ebp-18h]
  00401214: E8 D0 04 00 00     call        004016E9
  00401219: 84 C0              test        al,al
  0040121B: 74 32              je          0040124F
  0040121D: 80 7D E7 00        cmp         byte ptr [ebp-19h],0
  00401221: 75 05              jne         00401228
  00401223: E8 D7 29 00 00     call        00403BFF
  00401228: C7 45 FC FE FF FF  mov         dword ptr [ebp-4],0FFFFFFFEh
            FF
  0040122F: 8B 45 E0           mov         eax,dword ptr [ebp-20h]
  00401232: 8B 4D F0           mov         ecx,dword ptr [ebp-10h]
  00401235: 64 89 0D 00 00 00  mov         dword ptr fs:[00000000h],ecx
            00
  0040123C: 59                 pop         ecx
  0040123D: 5F                 pop         edi
  0040123E: 5E                 pop         esi
  0040123F: 5B                 pop         ebx
  00401240: C9                 leave
  00401241: C3                 ret
  00401242: 6A 07              push        7
  00401244: E8 81 03 00 00     call        004015CA
  00401249: 56                 push        esi
  0040124A: E8 0A 2A 00 00     call        00403C59
  0040124F: FF 75 E0           push        dword ptr [ebp-20h]
  00401252: E8 C6 29 00 00     call        00403C1D
  00401257: CC                 int         3
  00401258: E8 A3 02 00 00     call        00401500
  0040125D: E9 74 FE FF FF     jmp         004010D6
  00401262: 55                 push        ebp
  00401263: 8B EC              mov         ebp,esp
  00401265: 8B 45 08           mov         eax,dword ptr [ebp+8]
  00401268: 56                 push        esi
  00401269: 8B 48 3C           mov         ecx,dword ptr [eax+3Ch]
  0040126C: 03 C8              add         ecx,eax
  0040126E: 0F B7 41 14        movzx       eax,word ptr [ecx+14h]
  00401272: 8D 51 18           lea         edx,[ecx+18h]
  00401275: 03 D0              add         edx,eax
  00401277: 0F B7 41 06        movzx       eax,word ptr [ecx+6]
  0040127B: 6B F0 28           imul        esi,eax,28h
  0040127E: 03 F2              add         esi,edx
  00401280: 3B D6              cmp         edx,esi
  00401282: 74 19              je          0040129D
  00401284: 8B 4D 0C           mov         ecx,dword ptr [ebp+0Ch]
  00401287: 3B 4A 0C           cmp         ecx,dword ptr [edx+0Ch]
  0040128A: 72 0A              jb          00401296
  0040128C: 8B 42 08           mov         eax,dword ptr [edx+8]
  0040128F: 03 42 0C           add         eax,dword ptr [edx+0Ch]
  00401292: 3B C8              cmp         ecx,eax
  00401294: 72 0C              jb          004012A2
  00401296: 83 C2 28           add         edx,28h
  00401299: 3B D6              cmp         edx,esi
  0040129B: 75 EA              jne         00401287
  0040129D: 33 C0              xor         eax,eax
  0040129F: 5E                 pop         esi
  004012A0: 5D                 pop         ebp
  004012A1: C3                 ret
  004012A2: 8B C2              mov         eax,edx
  004012A4: EB F9              jmp         0040129F
  004012A6: 56                 push        esi
  004012A7: E8 6F 07 00 00     call        00401A1B
  004012AC: 85 C0              test        eax,eax
  004012AE: 74 20              je          004012D0
  004012B0: 64 A1 18 00 00 00  mov         eax,dword ptr fs:[00000018h]
  004012B6: BE 84 38 41 00     mov         esi,413884h
  004012BB: 8B 50 04           mov         edx,dword ptr [eax+4]
  004012BE: EB 04              jmp         004012C4
  004012C0: 3B D0              cmp         edx,eax
  004012C2: 74 10              je          004012D4
  004012C4: 33 C0              xor         eax,eax
  004012C6: 8B CA              mov         ecx,edx
  004012C8: F0 0F B1 0E        lock cmpxchg dword ptr [esi],ecx
  004012CC: 85 C0              test        eax,eax
  004012CE: 75 F0              jne         004012C0
  004012D0: 32 C0              xor         al,al
  004012D2: 5E                 pop         esi
  004012D3: C3                 ret
  004012D4: B0 01              mov         al,1
  004012D6: 5E                 pop         esi
  004012D7: C3                 ret
  004012D8: 55                 push        ebp
  004012D9: 8B EC              mov         ebp,esp
  004012DB: 83 7D 08 00        cmp         dword ptr [ebp+8],0
  004012DF: 75 07              jne         004012E8
  004012E1: C6 05 88 38 41 00  mov         byte ptr ds:[00413888h],1
            01
  004012E8: E8 5E 05 00 00     call        0040184B
  004012ED: E8 0C 0A 00 00     call        00401CFE
  004012F2: 84 C0              test        al,al
  004012F4: 75 04              jne         004012FA
  004012F6: 32 C0              xor         al,al
  004012F8: 5D                 pop         ebp
  004012F9: C3                 ret
  004012FA: E8 85 2F 00 00     call        00404284
  004012FF: 84 C0              test        al,al
  00401301: 75 0A              jne         0040130D
  00401303: 6A 00              push        0
  00401305: E8 13 0A 00 00     call        00401D1D
  0040130A: 59                 pop         ecx
  0040130B: EB E9              jmp         004012F6
  0040130D: B0 01              mov         al,1
  0040130F: 5D                 pop         ebp
  00401310: C3                 ret
  00401311: 55                 push        ebp
  00401312: 8B EC              mov         ebp,esp
  00401314: 80 3D 89 38 41 00  cmp         byte ptr ds:[00413889h],0
            00
  0040131B: 74 04              je          00401321
  0040131D: B0 01              mov         al,1
  0040131F: 5D                 pop         ebp
  00401320: C3                 ret
  00401321: 56                 push        esi
  00401322: 8B 75 08           mov         esi,dword ptr [ebp+8]
  00401325: 85 F6              test        esi,esi
  00401327: 74 05              je          0040132E
  00401329: 83 FE 01           cmp         esi,1
  0040132C: 75 62              jne         00401390
  0040132E: E8 E8 06 00 00     call        00401A1B
  00401333: 85 C0              test        eax,eax
  00401335: 74 26              je          0040135D
  00401337: 85 F6              test        esi,esi
  00401339: 75 22              jne         0040135D
  0040133B: 68 8C 38 41 00     push        41388Ch
  00401340: E8 E8 2D 00 00     call        0040412D
  00401345: 59                 pop         ecx
  00401346: 85 C0              test        eax,eax
  00401348: 75 0F              jne         00401359
  0040134A: 68 98 38 41 00     push        413898h
  0040134F: E8 D9 2D 00 00     call        0040412D
  00401354: 59                 pop         ecx
  00401355: 85 C0              test        eax,eax
  00401357: 74 2B              je          00401384
  00401359: 32 C0              xor         al,al
  0040135B: EB 30              jmp         0040138D
  0040135D: 83 C9 FF           or          ecx,0FFFFFFFFh
  00401360: 89 0D 8C 38 41 00  mov         dword ptr ds:[0041388Ch],ecx
  00401366: 89 0D 90 38 41 00  mov         dword ptr ds:[00413890h],ecx
  0040136C: 89 0D 94 38 41 00  mov         dword ptr ds:[00413894h],ecx
  00401372: 89 0D 98 38 41 00  mov         dword ptr ds:[00413898h],ecx
  00401378: 89 0D 9C 38 41 00  mov         dword ptr ds:[0041389Ch],ecx
  0040137E: 89 0D A0 38 41 00  mov         dword ptr ds:[004138A0h],ecx
  00401384: C6 05 89 38 41 00  mov         byte ptr ds:[00413889h],1
            01
  0040138B: B0 01              mov         al,1
  0040138D: 5E                 pop         esi
  0040138E: 5D                 pop         ebp
  0040138F: C3                 ret
  00401390: 6A 05              push        5
  00401392: E8 33 02 00 00     call        004015CA
  00401397: CC                 int         3
  00401398: 6A 08              push        8
  0040139A: 68 78 1F 41 00     push        411F78h
  0040139F: E8 4C 04 00 00     call        004017F0
  004013A4: 83 65 FC 00        and         dword ptr [ebp-4],0
  004013A8: B8 4D 5A 00 00     mov         eax,5A4Dh
  004013AD: 66 39 05 00 00 40  cmp         word ptr ds:[00400000h],ax
            00
  004013B4: 75 5D              jne         00401413
  004013B6: A1 3C 00 40 00     mov         eax,dword ptr ds:[0040003Ch]
  004013BB: 81 B8 00 00 40 00  cmp         dword ptr [eax+00400000h],4550h
            50 45 00 00
  004013C5: 75 4C              jne         00401413
  004013C7: B9 0B 01 00 00     mov         ecx,10Bh
  004013CC: 66 39 88 18 00 40  cmp         word ptr [eax+00400018h],cx
            00
  004013D3: 75 3E              jne         00401413
  004013D5: 8B 45 08           mov         eax,dword ptr [ebp+8]
  004013D8: B9 00 00 40 00     mov         ecx,400000h
  004013DD: 2B C1              sub         eax,ecx
  004013DF: 50                 push        eax
  004013E0: 51                 push        ecx
  004013E1: E8 7C FE FF FF     call        00401262
  004013E6: 59                 pop         ecx
  004013E7: 59                 pop         ecx
  004013E8: 85 C0              test        eax,eax
  004013EA: 74 27              je          00401413
  004013EC: 83 78 24 00        cmp         dword ptr [eax+24h],0
  004013F0: 7C 21              jl          00401413
  004013F2: C7 45 FC FE FF FF  mov         dword ptr [ebp-4],0FFFFFFFEh
            FF
  004013F9: B0 01              mov         al,1
  004013FB: EB 1F              jmp         0040141C
  004013FD: 8B 45 EC           mov         eax,dword ptr [ebp-14h]
  00401400: 8B 00              mov         eax,dword ptr [eax]
  00401402: 33 C9              xor         ecx,ecx
  00401404: 81 38 05 00 00 C0  cmp         dword ptr [eax],0C0000005h
  0040140A: 0F 94 C1           sete        cl
  0040140D: 8B C1              mov         eax,ecx
  0040140F: C3                 ret
  00401410: 8B 65 E8           mov         esp,dword ptr [ebp-18h]
  00401413: C7 45 FC FE FF FF  mov         dword ptr [ebp-4],0FFFFFFFEh
            FF
  0040141A: 32 C0              xor         al,al
  0040141C: 8B 4D F0           mov         ecx,dword ptr [ebp-10h]
  0040141F: 64 89 0D 00 00 00  mov         dword ptr fs:[00000000h],ecx
            00
  00401426: 59                 pop         ecx
  00401427: 5F                 pop         edi
  00401428: 5E                 pop         esi
  00401429: 5B                 pop         ebx
  0040142A: C9                 leave
  0040142B: C3                 ret
  0040142C: 55                 push        ebp
  0040142D: 8B EC              mov         ebp,esp
  0040142F: E8 E7 05 00 00     call        00401A1B
  00401434: 85 C0              test        eax,eax
  00401436: 74 0F              je          00401447
  00401438: 80 7D 08 00        cmp         byte ptr [ebp+8],0
  0040143C: 75 09              jne         00401447
  0040143E: 33 C0              xor         eax,eax
  00401440: B9 84 38 41 00     mov         ecx,413884h
  00401445: 87 01              xchg        eax,dword ptr [ecx]
  00401447: 5D                 pop         ebp
  00401448: C3                 ret
  00401449: 55                 push        ebp
  0040144A: 8B EC              mov         ebp,esp
  0040144C: 80 3D 88 38 41 00  cmp         byte ptr ds:[00413888h],0
            00
  00401453: 74 06              je          0040145B
  00401455: 80 7D 0C 00        cmp         byte ptr [ebp+0Ch],0
  00401459: 75 12              jne         0040146D
  0040145B: FF 75 08           push        dword ptr [ebp+8]
  0040145E: E8 33 2E 00 00     call        00404296
  00401463: FF 75 08           push        dword ptr [ebp+8]
  00401466: E8 B2 08 00 00     call        00401D1D
  0040146B: 59                 pop         ecx
  0040146C: 59                 pop         ecx
  0040146D: B0 01              mov         al,1
  0040146F: 5D                 pop         ebp
  00401470: C3                 ret
  00401471: 55                 push        ebp
  00401472: 8B EC              mov         ebp,esp
  00401474: 83 3D 8C 38 41 00  cmp         dword ptr ds:[0041388Ch],0FFFFFFFFh
            FF
  0040147B: FF 75 08           push        dword ptr [ebp+8]
  0040147E: 75 07              jne         00401487
  00401480: E8 65 2C 00 00     call        004040EA
  00401485: EB 0B              jmp         00401492
  00401487: 68 8C 38 41 00     push        41388Ch
  0040148C: E8 C5 2C 00 00     call        00404156
  00401491: 59                 pop         ecx
  00401492: F7 D8              neg         eax
  00401494: 59                 pop         ecx
  00401495: 1B C0              sbb         eax,eax
  00401497: F7 D0              not         eax
  00401499: 23 45 08           and         eax,dword ptr [ebp+8]
  0040149C: 5D                 pop         ebp
  0040149D: C3                 ret
  0040149E: 55                 push        ebp
  0040149F: 8B EC              mov         ebp,esp
  004014A1: FF 75 08           push        dword ptr [ebp+8]
  004014A4: E8 C8 FF FF FF     call        00401471
  004014A9: F7 D8              neg         eax
  004014AB: 59                 pop         ecx
  004014AC: 1B C0              sbb         eax,eax
  004014AE: F7 D8              neg         eax
  004014B0: 48                 dec         eax
  004014B1: 5D                 pop         ebp
  004014B2: C3                 ret
  004014B3: 55                 push        ebp
  004014B4: 8B EC              mov         ebp,esp
  004014B6: 83 EC 14           sub         esp,14h
  004014B9: 83 65 F4 00        and         dword ptr [ebp-0Ch],0
  004014BD: 8D 45 F4           lea         eax,[ebp-0Ch]
  004014C0: 83 65 F8 00        and         dword ptr [ebp-8],0
  004014C4: 50                 push        eax
  004014C5: FF 15 0C D0 40 00  call        dword ptr ds:[0040D00Ch]
  004014CB: 8B 45 F8           mov         eax,dword ptr [ebp-8]
  004014CE: 33 45 F4           xor         eax,dword ptr [ebp-0Ch]
  004014D1: 89 45 FC           mov         dword ptr [ebp-4],eax
  004014D4: FF 15 08 D0 40 00  call        dword ptr ds:[0040D008h]
  004014DA: 31 45 FC           xor         dword ptr [ebp-4],eax
  004014DD: FF 15 04 D0 40 00  call        dword ptr ds:[0040D004h]
  004014E3: 31 45 FC           xor         dword ptr [ebp-4],eax
  004014E6: 8D 45 EC           lea         eax,[ebp-14h]
  004014E9: 50                 push        eax
  004014EA: FF 15 00 D0 40 00  call        dword ptr ds:[0040D000h]
  004014F0: 8B 45 F0           mov         eax,dword ptr [ebp-10h]
  004014F3: 8D 4D FC           lea         ecx,[ebp-4]
  004014F6: 33 45 EC           xor         eax,dword ptr [ebp-14h]
  004014F9: 33 45 FC           xor         eax,dword ptr [ebp-4]
  004014FC: 33 C1              xor         eax,ecx
  004014FE: C9                 leave
  004014FF: C3                 ret
  00401500: 8B 0D 18 30 41 00  mov         ecx,dword ptr ds:[00413018h]
  00401506: 56                 push        esi
  00401507: 57                 push        edi
  00401508: BF 4E E6 40 BB     mov         edi,0BB40E64Eh
  0040150D: BE 00 00 FF FF     mov         esi,0FFFF0000h
  00401512: 3B CF              cmp         ecx,edi
  00401514: 74 04              je          0040151A
  00401516: 85 CE              test        esi,ecx
  00401518: 75 26              jne         00401540
  0040151A: E8 94 FF FF FF     call        004014B3
  0040151F: 8B C8              mov         ecx,eax
  00401521: 3B CF              cmp         ecx,edi
  00401523: 75 07              jne         0040152C
  00401525: B9 4F E6 40 BB     mov         ecx,0BB40E64Fh
  0040152A: EB 0E              jmp         0040153A
  0040152C: 85 CE              test        esi,ecx
  0040152E: 75 0A              jne         0040153A
  00401530: 0D 11 47 00 00     or          eax,4711h
  00401535: C1 E0 10           shl         eax,10h
  00401538: 0B C8              or          ecx,eax
  0040153A: 89 0D 18 30 41 00  mov         dword ptr ds:[00413018h],ecx
  00401540: F7 D1              not         ecx
  00401542: 5F                 pop         edi
  00401543: 89 0D 14 30 41 00  mov         dword ptr ds:[00413014h],ecx
  00401549: 5E                 pop         esi
  0040154A: C3                 ret
  0040154B: 33 C0              xor         eax,eax
  0040154D: C3                 ret
  0040154E: 33 C0              xor         eax,eax
  00401550: 40                 inc         eax
  00401551: C3                 ret
  00401552: B8 00 40 00 00     mov         eax,4000h
  00401557: C3                 ret
  00401558: 68 A8 38 41 00     push        4138A8h
  0040155D: FF 15 10 D0 40 00  call        dword ptr ds:[0040D010h]
  00401563: C3                 ret
  00401564: B0 01              mov         al,1
  00401566: C3                 ret
  00401567: 68 00 00 03 00     push        30000h
  0040156C: 68 00 00 01 00     push        10000h
  00401571: 6A 00              push        0
  00401573: E8 4E 2D 00 00     call        004042C6
  00401578: 83 C4 0C           add         esp,0Ch
  0040157B: 85 C0              test        eax,eax
  0040157D: 75 01              jne         00401580
  0040157F: C3                 ret
  00401580: 6A 07              push        7
  00401582: E8 43 00 00 00     call        004015CA
  00401587: CC                 int         3
  00401588: C3                 ret
  00401589: B8 B0 38 41 00     mov         eax,4138B0h
  0040158E: C3                 ret
  0040158F: B8 B8 38 41 00     mov         eax,4138B8h
  00401594: C3                 ret
  00401595: E8 EF FF FF FF     call        00401589
  0040159A: 8B 48 04           mov         ecx,dword ptr [eax+4]
  0040159D: 83 08 24           or          dword ptr [eax],24h
  004015A0: 89 48 04           mov         dword ptr [eax+4],ecx
  004015A3: E8 E7 FF FF FF     call        0040158F
  004015A8: 8B 48 04           mov         ecx,dword ptr [eax+4]
  004015AB: 83 08 02           or          dword ptr [eax],2
  004015AE: 89 48 04           mov         dword ptr [eax+4],ecx
  004015B1: C3                 ret
  004015B2: 33 C0              xor         eax,eax
  004015B4: 39 05 04 30 41 00  cmp         dword ptr ds:[00413004h],eax
  004015BA: 0F 94 C0           sete        al
  004015BD: C3                 ret
  004015BE: B8 A0 42 41 00     mov         eax,4142A0h
  004015C3: C3                 ret
  004015C4: B8 9C 42 41 00     mov         eax,41429Ch
  004015C9: C3                 ret
  004015CA: 55                 push        ebp
  004015CB: 8B EC              mov         ebp,esp
  004015CD: 81 EC 24 03 00 00  sub         esp,324h
  004015D3: 53                 push        ebx
  004015D4: 6A 17              push        17h
  004015D6: E8 7E 05 00 00     call        00401B59
  004015DB: 85 C0              test        eax,eax
  004015DD: 74 05              je          004015E4
  004015DF: 8B 4D 08           mov         ecx,dword ptr [ebp+8]
  004015E2: CD 29              int         29h
  004015E4: 6A 03              push        3
  004015E6: E8 A3 01 00 00     call        0040178E
  004015EB: C7 04 24 CC 02 00  mov         dword ptr [esp],2CCh
            00
  004015F2: 8D 85 DC FC FF FF  lea         eax,[ebp+FFFFFCDCh]
  004015F8: 6A 00              push        0
  004015FA: 50                 push        eax
  004015FB: E8 50 08 00 00     call        00401E50
  00401600: 83 C4 0C           add         esp,0Ch
  00401603: 89 85 8C FD FF FF  mov         dword ptr [ebp+FFFFFD8Ch],eax
  00401609: 89 8D 88 FD FF FF  mov         dword ptr [ebp+FFFFFD88h],ecx
  0040160F: 89 95 84 FD FF FF  mov         dword ptr [ebp+FFFFFD84h],edx
  00401615: 89 9D 80 FD FF FF  mov         dword ptr [ebp+FFFFFD80h],ebx
  0040161B: 89 B5 7C FD FF FF  mov         dword ptr [ebp+FFFFFD7Ch],esi
  00401621: 89 BD 78 FD FF FF  mov         dword ptr [ebp+FFFFFD78h],edi
  00401627: 66 8C 95 A4 FD FF  mov         word ptr [ebp+FFFFFDA4h],ss
            FF
  0040162E: 66 8C 8D 98 FD FF  mov         word ptr [ebp+FFFFFD98h],cs
            FF
  00401635: 66 8C 9D 74 FD FF  mov         word ptr [ebp+FFFFFD74h],ds
            FF
  0040163C: 66 8C 85 70 FD FF  mov         word ptr [ebp+FFFFFD70h],es
            FF
  00401643: 66 8C A5 6C FD FF  mov         word ptr [ebp+FFFFFD6Ch],fs
            FF
  0040164A: 66 8C AD 68 FD FF  mov         word ptr [ebp+FFFFFD68h],gs
            FF
  00401651: 9C                 pushfd
  00401652: 8F 85 9C FD FF FF  pop         dword ptr [ebp+FFFFFD9Ch]
  00401658: 8B 45 04           mov         eax,dword ptr [ebp+4]
  0040165B: 89 85 94 FD FF FF  mov         dword ptr [ebp+FFFFFD94h],eax
  00401661: 8D 45 04           lea         eax,[ebp+4]
  00401664: 89 85 A0 FD FF FF  mov         dword ptr [ebp+FFFFFDA0h],eax
  0040166A: C7 85 DC FC FF FF  mov         dword ptr [ebp+FFFFFCDCh],10001h
            01 00 01 00
  00401674: 8B 40 FC           mov         eax,dword ptr [eax-4]
  00401677: 6A 50              push        50h
  00401679: 89 85 90 FD FF FF  mov         dword ptr [ebp+FFFFFD90h],eax
  0040167F: 8D 45 A8           lea         eax,[ebp-58h]
  00401682: 6A 00              push        0
  00401684: 50                 push        eax
  00401685: E8 C6 07 00 00     call        00401E50
  0040168A: 8B 45 04           mov         eax,dword ptr [ebp+4]
  0040168D: 83 C4 0C           add         esp,0Ch
  00401690: C7 45 A8 15 00 00  mov         dword ptr [ebp-58h],40000015h
            40
  00401697: C7 45 AC 01 00 00  mov         dword ptr [ebp-54h],1
            00
  0040169E: 89 45 B4           mov         dword ptr [ebp-4Ch],eax
  004016A1: FF 15 14 D0 40 00  call        dword ptr ds:[0040D014h]
  004016A7: 6A 00              push        0
  004016A9: 8D 58 FF           lea         ebx,[eax-1]
  004016AC: F7 DB              neg         ebx
  004016AE: 8D 45 A8           lea         eax,[ebp-58h]
  004016B1: 89 45 F8           mov         dword ptr [ebp-8],eax
  004016B4: 8D 85 DC FC FF FF  lea         eax,[ebp+FFFFFCDCh]
  004016BA: 1A DB              sbb         bl,bl
  004016BC: 89 45 FC           mov         dword ptr [ebp-4],eax
  004016BF: FE C3              inc         bl
  004016C1: FF 15 1C D0 40 00  call        dword ptr ds:[0040D01Ch]
  004016C7: 8D 45 F8           lea         eax,[ebp-8]
  004016CA: 50                 push        eax
  004016CB: FF 15 18 D0 40 00  call        dword ptr ds:[0040D018h]
  004016D1: 85 C0              test        eax,eax
  004016D3: 75 0C              jne         004016E1
  004016D5: 84 DB              test        bl,bl
  004016D7: 75 08              jne         004016E1
  004016D9: 6A 03              push        3
  004016DB: E8 AE 00 00 00     call        0040178E
  004016E0: 59                 pop         ecx
  004016E1: 5B                 pop         ebx
  004016E2: C9                 leave
  004016E3: C3                 ret
  004016E4: E9 62 FE FF FF     jmp         0040154B
  004016E9: 6A 00              push        0
  004016EB: FF 15 28 D0 40 00  call        dword ptr ds:[0040D028h]
  004016F1: 85 C0              test        eax,eax
  004016F3: 74 34              je          00401729
  004016F5: B9 4D 5A 00 00     mov         ecx,5A4Dh
  004016FA: 66 39 08           cmp         word ptr [eax],cx
  004016FD: 75 2A              jne         00401729
  004016FF: 8B 48 3C           mov         ecx,dword ptr [eax+3Ch]
  00401702: 03 C8              add         ecx,eax
  00401704: 81 39 50 45 00 00  cmp         dword ptr [ecx],4550h
  0040170A: 75 1D              jne         00401729
  0040170C: B8 0B 01 00 00     mov         eax,10Bh
  00401711: 66 39 41 18        cmp         word ptr [ecx+18h],ax
  00401715: 75 12              jne         00401729
  00401717: 83 79 74 0E        cmp         dword ptr [ecx+74h],0Eh
  0040171B: 76 0C              jbe         00401729
  0040171D: 83 B9 E8 00 00 00  cmp         dword ptr [ecx+000000E8h],0
            00
  00401724: 74 03              je          00401729
  00401726: B0 01              mov         al,1
  00401728: C3                 ret
  00401729: 32 C0              xor         al,al
  0040172B: C3                 ret
  0040172C: 68 38 17 40 00     push        401738h
  00401731: FF 15 1C D0 40 00  call        dword ptr ds:[0040D01Ch]
  00401737: C3                 ret
  00401738: 55                 push        ebp
  00401739: 8B EC              mov         ebp,esp
  0040173B: 56                 push        esi
  0040173C: 57                 push        edi
  0040173D: 8B 7D 08           mov         edi,dword ptr [ebp+8]
  00401740: 8B 37              mov         esi,dword ptr [edi]
  00401742: 81 3E 63 73 6D E0  cmp         dword ptr [esi],0E06D7363h
  00401748: 75 25              jne         0040176F
  0040174A: 83 7E 10 03        cmp         dword ptr [esi+10h],3
  0040174E: 75 1F              jne         0040176F
  00401750: 8B 46 14           mov         eax,dword ptr [esi+14h]
  00401753: 3D 20 05 93 19     cmp         eax,19930520h
  00401758: 74 1D              je          00401777
  0040175A: 3D 21 05 93 19     cmp         eax,19930521h
  0040175F: 74 16              je          00401777
  00401761: 3D 22 05 93 19     cmp         eax,19930522h
  00401766: 74 0F              je          00401777
  00401768: 3D 00 40 99 01     cmp         eax,1994000h
  0040176D: 74 08              je          00401777
  0040176F: 5F                 pop         edi
  00401770: 33 C0              xor         eax,eax
  00401772: 5E                 pop         esi
  00401773: 5D                 pop         ebp
  00401774: C2 04 00           ret         4
  00401777: E8 BE 06 00 00     call        00401E3A
  0040177C: 89 30              mov         dword ptr [eax],esi
  0040177E: 8B 77 04           mov         esi,dword ptr [edi+4]
  00401781: E8 BD 06 00 00     call        00401E43
  00401786: 89 30              mov         dword ptr [eax],esi
  00401788: E8 98 2B 00 00     call        00404325
  0040178D: CC                 int         3
  0040178E: 83 25 C0 38 41 00  and         dword ptr ds:[004138C0h],0
            00
  00401795: C3                 ret
  00401796: 53                 push        ebx
  00401797: 56                 push        esi
  00401798: BE 48 1F 41 00     mov         esi,411F48h
  0040179D: BB 48 1F 41 00     mov         ebx,411F48h
  004017A2: 3B F3              cmp         esi,ebx
  004017A4: 73 19              jae         004017BF
  004017A6: 57                 push        edi
  004017A7: 8B 3E              mov         edi,dword ptr [esi]
  004017A9: 85 FF              test        edi,edi
  004017AB: 74 0A              je          004017B7
  004017AD: 8B CF              mov         ecx,edi
  004017AF: FF 15 08 D1 40 00  call        dword ptr ds:[0040D108h]
  004017B5: FF D7              call        edi
  004017B7: 83 C6 04           add         esi,4
  004017BA: 3B F3              cmp         esi,ebx
  004017BC: 72 E9              jb          004017A7
  004017BE: 5F                 pop         edi
  004017BF: 5E                 pop         esi
  004017C0: 5B                 pop         ebx
  004017C1: C3                 ret
  004017C2: 53                 push        ebx
  004017C3: 56                 push        esi
  004017C4: BE 50 1F 41 00     mov         esi,411F50h
  004017C9: BB 50 1F 41 00     mov         ebx,411F50h
  004017CE: 3B F3              cmp         esi,ebx
  004017D0: 73 19              jae         004017EB
  004017D2: 57                 push        edi
  004017D3: 8B 3E              mov         edi,dword ptr [esi]
  004017D5: 85 FF              test        edi,edi
  004017D7: 74 0A              je          004017E3
  004017D9: 8B CF              mov         ecx,edi
  004017DB: FF 15 08 D1 40 00  call        dword ptr ds:[0040D108h]
  004017E1: FF D7              call        edi
  004017E3: 83 C6 04           add         esi,4
  004017E6: 3B F3              cmp         esi,ebx
  004017E8: 72 E9              jb          004017D3
  004017EA: 5F                 pop         edi
  004017EB: 5E                 pop         esi
  004017EC: 5B                 pop         ebx
  004017ED: C3                 ret
  004017EE: CC                 int         3
  004017EF: CC                 int         3
  004017F0: 68 A0 1B 40 00     push        401BA0h
  004017F5: 64 FF 35 00 00 00  push        dword ptr fs:[00000000h]
            00
  004017FC: 8B 44 24 10        mov         eax,dword ptr [esp+10h]
  00401800: 89 6C 24 10        mov         dword ptr [esp+10h],ebp
  00401804: 8D 6C 24 10        lea         ebp,[esp+10h]
  00401808: 2B E0              sub         esp,eax
  0040180A: 53                 push        ebx
  0040180B: 56                 push        esi
  0040180C: 57                 push        edi
  0040180D: A1 18 30 41 00     mov         eax,dword ptr ds:[00413018h]
  00401812: 31 45 FC           xor         dword ptr [ebp-4],eax
  00401815: 33 C5              xor         eax,ebp
  00401817: 50                 push        eax
  00401818: 89 65 E8           mov         dword ptr [ebp-18h],esp
  0040181B: FF 75 F8           push        dword ptr [ebp-8]
  0040181E: 8B 45 FC           mov         eax,dword ptr [ebp-4]
  00401821: C7 45 FC FE FF FF  mov         dword ptr [ebp-4],0FFFFFFFEh
            FF
  00401828: 89 45 F8           mov         dword ptr [ebp-8],eax
  0040182B: 8D 45 F0           lea         eax,[ebp-10h]
  0040182E: 64 A3 00 00 00 00  mov         dword ptr fs:[00000000h],eax
  00401834: F2 C3              bnd ret
  00401836: 8B 4D F0           mov         ecx,dword ptr [ebp-10h]
  00401839: 64 89 0D 00 00 00  mov         dword ptr fs:[00000000h],ecx
            00
  00401840: 59                 pop         ecx
  00401841: 5F                 pop         edi
  00401842: 5F                 pop         edi
  00401843: 5E                 pop         esi
  00401844: 5B                 pop         ebx
  00401845: 8B E5              mov         esp,ebp
  00401847: 5D                 pop         ebp
  00401848: 51                 push        ecx
  00401849: F2 C3              bnd ret
  0040184B: 55                 push        ebp
  0040184C: 8B EC              mov         ebp,esp
  0040184E: 83 25 C4 38 41 00  and         dword ptr ds:[004138C4h],0
            00
  00401855: 83 EC 24           sub         esp,24h
  00401858: 83 0D 10 30 41 00  or          dword ptr ds:[00413010h],1
            01
  0040185F: 6A 0A              push        0Ah
  00401861: E8 F3 02 00 00     call        00401B59
  00401866: 85 C0              test        eax,eax
  00401868: 0F 84 A9 01 00 00  je          00401A17
  0040186E: 83 65 F0 00        and         dword ptr [ebp-10h],0
  00401872: 33 C0              xor         eax,eax
  00401874: 53                 push        ebx
  00401875: 56                 push        esi
  00401876: 57                 push        edi
  00401877: 33 C9              xor         ecx,ecx
  00401879: 8D 7D DC           lea         edi,[ebp-24h]
  0040187C: 53                 push        ebx
  0040187D: 0F A2              cpuid
  0040187F: 8B F3              mov         esi,ebx
  00401881: 5B                 pop         ebx
  00401882: 89 07              mov         dword ptr [edi],eax
  00401884: 89 77 04           mov         dword ptr [edi+4],esi
  00401887: 89 4F 08           mov         dword ptr [edi+8],ecx
  0040188A: 33 C9              xor         ecx,ecx
  0040188C: 89 57 0C           mov         dword ptr [edi+0Ch],edx
  0040188F: 8B 45 DC           mov         eax,dword ptr [ebp-24h]
  00401892: 8B 7D E4           mov         edi,dword ptr [ebp-1Ch]
  00401895: 89 45 F4           mov         dword ptr [ebp-0Ch],eax
  00401898: 81 F7 6E 74 65 6C  xor         edi,6C65746Eh
  0040189E: 8B 45 E8           mov         eax,dword ptr [ebp-18h]
  004018A1: 35 69 6E 65 49     xor         eax,49656E69h
  004018A6: 89 45 F8           mov         dword ptr [ebp-8],eax
  004018A9: 8B 45 E0           mov         eax,dword ptr [ebp-20h]
  004018AC: 35 47 65 6E 75     xor         eax,756E6547h
  004018B1: 89 45 FC           mov         dword ptr [ebp-4],eax
  004018B4: 33 C0              xor         eax,eax
  004018B6: 40                 inc         eax
  004018B7: 53                 push        ebx
  004018B8: 0F A2              cpuid
  004018BA: 8B F3              mov         esi,ebx
  004018BC: 5B                 pop         ebx
  004018BD: 8D 5D DC           lea         ebx,[ebp-24h]
  004018C0: 89 03              mov         dword ptr [ebx],eax
  004018C2: 8B 45 FC           mov         eax,dword ptr [ebp-4]
  004018C5: 89 73 04           mov         dword ptr [ebx+4],esi
  004018C8: 0B C7              or          eax,edi
  004018CA: 0B 45 F8           or          eax,dword ptr [ebp-8]
  004018CD: 89 4B 08           mov         dword ptr [ebx+8],ecx
  004018D0: 89 53 0C           mov         dword ptr [ebx+0Ch],edx
  004018D3: 75 43              jne         00401918
  004018D5: 8B 45 DC           mov         eax,dword ptr [ebp-24h]
  004018D8: 25 F0 3F FF 0F     and         eax,0FFF3FF0h
  004018DD: 3D C0 06 01 00     cmp         eax,106C0h
  004018E2: 74 23              je          00401907
  004018E4: 3D 60 06 02 00     cmp         eax,20660h
  004018E9: 74 1C              je          00401907
  004018EB: 3D 70 06 02 00     cmp         eax,20670h
  004018F0: 74 15              je          00401907
  004018F2: 3D 50 06 03 00     cmp         eax,30650h
  004018F7: 74 0E              je          00401907
  004018F9: 3D 60 06 03 00     cmp         eax,30660h
  004018FE: 74 07              je          00401907
  00401900: 3D 70 06 03 00     cmp         eax,30670h
  00401905: 75 11              jne         00401918
  00401907: 8B 3D C8 38 41 00  mov         edi,dword ptr ds:[004138C8h]
  0040190D: 83 CF 01           or          edi,1
  00401910: 89 3D C8 38 41 00  mov         dword ptr ds:[004138C8h],edi
  00401916: EB 06              jmp         0040191E
  00401918: 8B 3D C8 38 41 00  mov         edi,dword ptr ds:[004138C8h]
  0040191E: 8B 4D E4           mov         ecx,dword ptr [ebp-1Ch]
  00401921: 6A 07              push        7
  00401923: 58                 pop         eax
  00401924: 89 4D FC           mov         dword ptr [ebp-4],ecx
  00401927: 39 45 F4           cmp         dword ptr [ebp-0Ch],eax
  0040192A: 7C 2F              jl          0040195B
  0040192C: 33 C9              xor         ecx,ecx
  0040192E: 53                 push        ebx
  0040192F: 0F A2              cpuid
  00401931: 8B F3              mov         esi,ebx
  00401933: 5B                 pop         ebx
  00401934: 8D 5D DC           lea         ebx,[ebp-24h]
  00401937: 89 03              mov         dword ptr [ebx],eax
  00401939: 89 73 04           mov         dword ptr [ebx+4],esi
  0040193C: 89 4B 08           mov         dword ptr [ebx+8],ecx
  0040193F: 8B 4D FC           mov         ecx,dword ptr [ebp-4]
  00401942: 89 53 0C           mov         dword ptr [ebx+0Ch],edx
  00401945: 8B 5D E0           mov         ebx,dword ptr [ebp-20h]
  00401948: F7 C3 00 02 00 00  test        ebx,200h
  0040194E: 74 0E              je          0040195E
  00401950: 83 CF 02           or          edi,2
  00401953: 89 3D C8 38 41 00  mov         dword ptr ds:[004138C8h],edi
  00401959: EB 03              jmp         0040195E
  0040195B: 8B 5D F0           mov         ebx,dword ptr [ebp-10h]
  0040195E: A1 10 30 41 00     mov         eax,dword ptr ds:[00413010h]
  00401963: 83 C8 02           or          eax,2
  00401966: C7 05 C4 38 41 00  mov         dword ptr ds:[004138C4h],1
            01 00 00 00
  00401970: A3 10 30 41 00     mov         dword ptr ds:[00413010h],eax
  00401975: F7 C1 00 00 10 00  test        ecx,100000h
  0040197B: 0F 84 93 00 00 00  je          00401A14
  00401981: 83 C8 04           or          eax,4
  00401984: C7 05 C4 38 41 00  mov         dword ptr ds:[004138C4h],2
            02 00 00 00
  0040198E: A3 10 30 41 00     mov         dword ptr ds:[00413010h],eax
  00401993: F7 C1 00 00 00 08  test        ecx,8000000h
  00401999: 74 79              je          00401A14
  0040199B: F7 C1 00 00 00 10  test        ecx,10000000h
  004019A1: 74 71              je          00401A14
  004019A3: 33 C9              xor         ecx,ecx
  004019A5: 0F 01 D0           xgetbv
  004019A8: 89 45 EC           mov         dword ptr [ebp-14h],eax
  004019AB: 89 55 F0           mov         dword ptr [ebp-10h],edx
  004019AE: 8B 45 EC           mov         eax,dword ptr [ebp-14h]
  004019B1: 8B 4D F0           mov         ecx,dword ptr [ebp-10h]
  004019B4: 6A 06              push        6
  004019B6: 5E                 pop         esi
  004019B7: 23 C6              and         eax,esi
  004019B9: 3B C6              cmp         eax,esi
  004019BB: 75 57              jne         00401A14
  004019BD: A1 10 30 41 00     mov         eax,dword ptr ds:[00413010h]
  004019C2: 83 C8 08           or          eax,8
  004019C5: C7 05 C4 38 41 00  mov         dword ptr ds:[004138C4h],3
            03 00 00 00
  004019CF: A3 10 30 41 00     mov         dword ptr ds:[00413010h],eax
  004019D4: F6 C3 20           test        bl,20h
  004019D7: 74 3B              je          00401A14
  004019D9: 83 C8 20           or          eax,20h
  004019DC: C7 05 C4 38 41 00  mov         dword ptr ds:[004138C4h],5
            05 00 00 00
  004019E6: A3 10 30 41 00     mov         dword ptr ds:[00413010h],eax
  004019EB: B8 00 00 03 D0     mov         eax,0D0030000h
  004019F0: 23 D8              and         ebx,eax
  004019F2: 3B D8              cmp         ebx,eax
  004019F4: 75 1E              jne         00401A14
  004019F6: 8B 45 EC           mov         eax,dword ptr [ebp-14h]
  004019F9: BA E0 00 00 00     mov         edx,0E0h
  004019FE: 8B 4D F0           mov         ecx,dword ptr [ebp-10h]
  00401A01: 23 C2              and         eax,edx
  00401A03: 3B C2              cmp         eax,edx
  00401A05: 75 0D              jne         00401A14
  00401A07: 83 0D 10 30 41 00  or          dword ptr ds:[00413010h],40h
            40
  00401A0E: 89 35 C4 38 41 00  mov         dword ptr ds:[004138C4h],esi
  00401A14: 5F                 pop         edi
  00401A15: 5E                 pop         esi
  00401A16: 5B                 pop         ebx
  00401A17: 33 C0              xor         eax,eax
  00401A19: C9                 leave
  00401A1A: C3                 ret
  00401A1B: 33 C0              xor         eax,eax
  00401A1D: 39 05 98 42 41 00  cmp         dword ptr ds:[00414298h],eax
  00401A23: 0F 95 C0           setne       al
  00401A26: C3                 ret
  00401A27: 3B 0D 18 30 41 00  cmp         ecx,dword ptr ds:[00413018h]
  00401A2D: F2 75 02           bnd jne     00401A32
  00401A30: F2 C3              bnd ret
  00401A32: F2 E9 28 00 00 00  bnd jmp     00401A60
  00401A38: 55                 push        ebp
  00401A39: 8B EC              mov         ebp,esp
  00401A3B: 6A 00              push        0
  00401A3D: FF 15 1C D0 40 00  call        dword ptr ds:[0040D01Ch]
  00401A43: FF 75 08           push        dword ptr [ebp+8]
  00401A46: FF 15 18 D0 40 00  call        dword ptr ds:[0040D018h]
  00401A4C: 68 09 04 00 C0     push        0C0000409h
  00401A51: FF 15 2C D0 40 00  call        dword ptr ds:[0040D02Ch]
  00401A57: 50                 push        eax
  00401A58: FF 15 30 D0 40 00  call        dword ptr ds:[0040D030h]
  00401A5E: 5D                 pop         ebp
  00401A5F: C3                 ret
  00401A60: 55                 push        ebp
  00401A61: 8B EC              mov         ebp,esp
  00401A63: 81 EC 24 03 00 00  sub         esp,324h
  00401A69: 6A 17              push        17h
  00401A6B: E8 E9 00 00 00     call        00401B59
  00401A70: 85 C0              test        eax,eax
  00401A72: 74 05              je          00401A79
  00401A74: 6A 02              push        2
  00401A76: 59                 pop         ecx
  00401A77: CD 29              int         29h
  00401A79: A3 D0 39 41 00     mov         dword ptr ds:[004139D0h],eax
  00401A7E: 89 0D CC 39 41 00  mov         dword ptr ds:[004139CCh],ecx
  00401A84: 89 15 C8 39 41 00  mov         dword ptr ds:[004139C8h],edx
  00401A8A: 89 1D C4 39 41 00  mov         dword ptr ds:[004139C4h],ebx
  00401A90: 89 35 C0 39 41 00  mov         dword ptr ds:[004139C0h],esi
  00401A96: 89 3D BC 39 41 00  mov         dword ptr ds:[004139BCh],edi
  00401A9C: 66 8C 15 E8 39 41  mov         word ptr ds:[004139E8h],ss
            00
  00401AA3: 66 8C 0D DC 39 41  mov         word ptr ds:[004139DCh],cs
            00
  00401AAA: 66 8C 1D B8 39 41  mov         word ptr ds:[004139B8h],ds
            00
  00401AB1: 66 8C 05 B4 39 41  mov         word ptr ds:[004139B4h],es
            00
  00401AB8: 66 8C 25 B0 39 41  mov         word ptr ds:[004139B0h],fs
            00
  00401ABF: 66 8C 2D AC 39 41  mov         word ptr ds:[004139ACh],gs
            00
  00401AC6: 9C                 pushfd
  00401AC7: 8F 05 E0 39 41 00  pop         dword ptr ds:[004139E0h]
  00401ACD: 8B 45 00           mov         eax,dword ptr [ebp]
  00401AD0: A3 D4 39 41 00     mov         dword ptr ds:[004139D4h],eax
  00401AD5: 8B 45 04           mov         eax,dword ptr [ebp+4]
  00401AD8: A3 D8 39 41 00     mov         dword ptr ds:[004139D8h],eax
  00401ADD: 8D 45 08           lea         eax,[ebp+8]
  00401AE0: A3 E4 39 41 00     mov         dword ptr ds:[004139E4h],eax
  00401AE5: 8B 85 DC FC FF FF  mov         eax,dword ptr [ebp+FFFFFCDCh]
  00401AEB: C7 05 20 39 41 00  mov         dword ptr ds:[00413920h],10001h
            01 00 01 00
  00401AF5: A1 D8 39 41 00     mov         eax,dword ptr ds:[004139D8h]
  00401AFA: A3 DC 38 41 00     mov         dword ptr ds:[004138DCh],eax
  00401AFF: C7 05 D0 38 41 00  mov         dword ptr ds:[004138D0h],0C0000409h
            09 04 00 C0
  00401B09: C7 05 D4 38 41 00  mov         dword ptr ds:[004138D4h],1
            01 00 00 00
  00401B13: C7 05 E0 38 41 00  mov         dword ptr ds:[004138E0h],1
            01 00 00 00
  00401B1D: 6A 04              push        4
  00401B1F: 58                 pop         eax
  00401B20: 6B C0 00           imul        eax,eax,0
  00401B23: C7 80 E4 38 41 00  mov         dword ptr [eax+004138E4h],2
            02 00 00 00
  00401B2D: 6A 04              push        4
  00401B2F: 58                 pop         eax
  00401B30: 6B C0 00           imul        eax,eax,0
  00401B33: 8B 0D 18 30 41 00  mov         ecx,dword ptr ds:[00413018h]
  00401B39: 89 4C 05 F8        mov         dword ptr [ebp+eax-8],ecx
  00401B3D: 6A 04              push        4
  00401B3F: 58                 pop         eax
  00401B40: C1 E0 00           shl         eax,0
  00401B43: 8B 0D 14 30 41 00  mov         ecx,dword ptr ds:[00413014h]
  00401B49: 89 4C 05 F8        mov         dword ptr [ebp+eax-8],ecx
  00401B4D: 68 50 D1 40 00     push        40D150h
  00401B52: E8 E1 FE FF FF     call        00401A38
  00401B57: C9                 leave
  00401B58: C3                 ret
  00401B59: FF 25 24 D0 40 00  jmp         dword ptr ds:[0040D024h]
  00401B5F: CC                 int         3
  00401B60: 55                 push        ebp
  00401B61: 8B EC              mov         ebp,esp
  00401B63: 56                 push        esi
  00401B64: 8B 75 08           mov         esi,dword ptr [ebp+8]
  00401B67: 57                 push        edi
  00401B68: 8B 7D 0C           mov         edi,dword ptr [ebp+0Ch]
  00401B6B: 8B 06              mov         eax,dword ptr [esi]
  00401B6D: 83 F8 FE           cmp         eax,0FFFFFFFEh
  00401B70: 74 0D              je          00401B7F
  00401B72: 8B 4E 04           mov         ecx,dword ptr [esi+4]
  00401B75: 03 CF              add         ecx,edi
  00401B77: 33 0C 38           xor         ecx,dword ptr [eax+edi]
  00401B7A: E8 A8 FE FF FF     call        00401A27
  00401B7F: 8B 46 08           mov         eax,dword ptr [esi+8]
  00401B82: 8B 4E 0C           mov         ecx,dword ptr [esi+0Ch]
  00401B85: 03 CF              add         ecx,edi
  00401B87: 33 0C 38           xor         ecx,dword ptr [eax+edi]
  00401B8A: 5F                 pop         edi
  00401B8B: 5E                 pop         esi
  00401B8C: 5D                 pop         ebp
  00401B8D: E9 95 FE FF FF     jmp         00401A27
  00401B92: CC                 int         3
  00401B93: CC                 int         3
  00401B94: CC                 int         3
  00401B95: CC                 int         3
  00401B96: CC                 int         3
  00401B97: CC                 int         3
  00401B98: CC                 int         3
  00401B99: CC                 int         3
  00401B9A: CC                 int         3
  00401B9B: CC                 int         3
  00401B9C: CC                 int         3
  00401B9D: CC                 int         3
  00401B9E: CC                 int         3
  00401B9F: CC                 int         3
  00401BA0: 55                 push        ebp
  00401BA1: 8B EC              mov         ebp,esp
  00401BA3: 83 EC 1C           sub         esp,1Ch
  00401BA6: 53                 push        ebx
  00401BA7: 8B 5D 08           mov         ebx,dword ptr [ebp+8]
  00401BAA: 56                 push        esi
  00401BAB: 57                 push        edi
  00401BAC: C6 45 FF 00        mov         byte ptr [ebp-1],0
  00401BB0: FF 33              push        dword ptr [ebx]
  00401BB2: C7 45 F4 01 00 00  mov         dword ptr [ebp-0Ch],1
            00
  00401BB9: E8 E9 B1 00 00     call        0040CDA7
  00401BBE: 89 03              mov         dword ptr [ebx],eax
  00401BC0: 8B 5D 0C           mov         ebx,dword ptr [ebp+0Ch]
  00401BC3: 8B 43 08           mov         eax,dword ptr [ebx+8]
  00401BC6: 8D 73 10           lea         esi,[ebx+10h]
  00401BC9: 33 05 18 30 41 00  xor         eax,dword ptr ds:[00413018h]
  00401BCF: 56                 push        esi
  00401BD0: 50                 push        eax
  00401BD1: 89 75 F0           mov         dword ptr [ebp-10h],esi
  00401BD4: 89 45 F8           mov         dword ptr [ebp-8],eax
  00401BD7: E8 84 FF FF FF     call        00401B60
  00401BDC: FF 75 10           push        dword ptr [ebp+10h]
  00401BDF: E8 33 05 00 00     call        00402117
  00401BE4: 8B 45 08           mov         eax,dword ptr [ebp+8]
  00401BE7: 83 C4 10           add         esp,10h
  00401BEA: 8B 7B 0C           mov         edi,dword ptr [ebx+0Ch]
  00401BED: F6 40 04 66        test        byte ptr [eax+4],66h
  00401BF1: 75 5A              jne         00401C4D
  00401BF3: 89 45 E4           mov         dword ptr [ebp-1Ch],eax
  00401BF6: 8B 45 10           mov         eax,dword ptr [ebp+10h]
  00401BF9: 89 45 E8           mov         dword ptr [ebp-18h],eax
  00401BFC: 8D 45 E4           lea         eax,[ebp-1Ch]
  00401BFF: 89 43 FC           mov         dword ptr [ebx-4],eax
  00401C02: 83 FF FE           cmp         edi,0FFFFFFFEh
  00401C05: 74 69              je          00401C70
  00401C07: 8B 4D F8           mov         ecx,dword ptr [ebp-8]
  00401C0A: 8D 47 02           lea         eax,[edi+2]
  00401C0D: 8D 04 47           lea         eax,[edi+eax*2]
  00401C10: 8B 1C 81           mov         ebx,dword ptr [ecx+eax*4]
  00401C13: 8D 04 81           lea         eax,[ecx+eax*4]
  00401C16: 8B 48 04           mov         ecx,dword ptr [eax+4]
  00401C19: 89 45 EC           mov         dword ptr [ebp-14h],eax
  00401C1C: 85 C9              test        ecx,ecx
  00401C1E: 74 14              je          00401C34
  00401C20: 8B D6              mov         edx,esi
  00401C22: E8 89 04 00 00     call        004020B0
  00401C27: B1 01              mov         cl,1
  00401C29: 88 4D FF           mov         byte ptr [ebp-1],cl
  00401C2C: 85 C0              test        eax,eax
  00401C2E: 78 14              js          00401C44
  00401C30: 7F 48              jg          00401C7A
  00401C32: EB 03              jmp         00401C37
  00401C34: 8A 4D FF           mov         cl,byte ptr [ebp-1]
  00401C37: 8B FB              mov         edi,ebx
  00401C39: 83 FB FE           cmp         ebx,0FFFFFFFEh
  00401C3C: 75 C9              jne         00401C07
  00401C3E: 84 C9              test        cl,cl
  00401C40: 74 2E              je          00401C70
  00401C42: EB 20              jmp         00401C64
  00401C44: C7 45 F4 00 00 00  mov         dword ptr [ebp-0Ch],0
            00
  00401C4B: EB 17              jmp         00401C64
  00401C4D: 83 FF FE           cmp         edi,0FFFFFFFEh
  00401C50: 74 1E              je          00401C70
  00401C52: 68 18 30 41 00     push        413018h
  00401C57: 56                 push        esi
  00401C58: BA FE FF FF FF     mov         edx,0FFFFFFFEh
  00401C5D: 8B CB              mov         ecx,ebx
  00401C5F: E8 9C 04 00 00     call        00402100
  00401C64: 56                 push        esi
  00401C65: FF 75 F8           push        dword ptr [ebp-8]
  00401C68: E8 F3 FE FF FF     call        00401B60
  00401C6D: 83 C4 08           add         esp,8
  00401C70: 8B 45 F4           mov         eax,dword ptr [ebp-0Ch]
  00401C73: 5F                 pop         edi
  00401C74: 5E                 pop         esi
  00401C75: 5B                 pop         ebx
  00401C76: 8B E5              mov         esp,ebp
  00401C78: 5D                 pop         ebp
  00401C79: C3                 ret
  00401C7A: 8B 45 08           mov         eax,dword ptr [ebp+8]
  00401C7D: 81 38 63 73 6D E0  cmp         dword ptr [eax],0E06D7363h
  00401C83: 75 38              jne         00401CBD
  00401C85: 83 3D 58 D1 40 00  cmp         dword ptr ds:[0040D158h],0
            00
  00401C8C: 74 2F              je          00401CBD
  00401C8E: 68 58 D1 40 00     push        40D158h
  00401C93: E8 A8 A8 00 00     call        0040C540
  00401C98: 83 C4 04           add         esp,4
  00401C9B: 85 C0              test        eax,eax
  00401C9D: 74 1B              je          00401CBA
  00401C9F: 8B 35 58 D1 40 00  mov         esi,dword ptr ds:[0040D158h]
  00401CA5: 8B CE              mov         ecx,esi
  00401CA7: 6A 01              push        1
  00401CA9: FF 75 08           push        dword ptr [ebp+8]
  00401CAC: FF 15 08 D1 40 00  call        dword ptr ds:[0040D108h]
  00401CB2: FF D6              call        esi
  00401CB4: 8B 75 F0           mov         esi,dword ptr [ebp-10h]
  00401CB7: 83 C4 08           add         esp,8
  00401CBA: 8B 45 08           mov         eax,dword ptr [ebp+8]
  00401CBD: 8B 4D 0C           mov         ecx,dword ptr [ebp+0Ch]
  00401CC0: 8B D0              mov         edx,eax
  00401CC2: E8 1D 04 00 00     call        004020E4
  00401CC7: 8B 45 0C           mov         eax,dword ptr [ebp+0Ch]
  00401CCA: 39 78 0C           cmp         dword ptr [eax+0Ch],edi
  00401CCD: 74 12              je          00401CE1
  00401CCF: 68 18 30 41 00     push        413018h
  00401CD4: 56                 push        esi
  00401CD5: 8B D7              mov         edx,edi
  00401CD7: 8B C8              mov         ecx,eax
  00401CD9: E8 22 04 00 00     call        00402100
  00401CDE: 8B 45 0C           mov         eax,dword ptr [ebp+0Ch]
  00401CE1: 56                 push        esi
  00401CE2: FF 75 F8           push        dword ptr [ebp-8]
  00401CE5: 89 58 0C           mov         dword ptr [eax+0Ch],ebx
  00401CE8: E8 73 FE FF FF     call        00401B60
  00401CED: 8B 4D EC           mov         ecx,dword ptr [ebp-14h]
  00401CF0: 83 C4 08           add         esp,8
  00401CF3: 8B D6              mov         edx,esi
  00401CF5: 8B 49 08           mov         ecx,dword ptr [ecx+8]
  00401CF8: E8 CB 03 00 00     call        004020C8
  00401CFD: CC                 int         3
  00401CFE: E8 7B 05 00 00     call        0040227E
  00401D03: 84 C0              test        al,al
  00401D05: 75 03              jne         00401D0A
  00401D07: 32 C0              xor         al,al
  00401D09: C3                 ret
  00401D0A: E8 21 05 00 00     call        00402230
  00401D0F: 84 C0              test        al,al
  00401D11: 75 07              jne         00401D1A
  00401D13: E8 A2 05 00 00     call        004022BA
  00401D18: EB ED              jmp         00401D07
  00401D1A: B0 01              mov         al,1
  00401D1C: C3                 ret
  00401D1D: 55                 push        ebp
  00401D1E: 8B EC              mov         ebp,esp
  00401D20: 80 7D 08 00        cmp         byte ptr [ebp+8],0
  00401D24: 75 0A              jne         00401D30
  00401D26: E8 38 05 00 00     call        00402263
  00401D2B: E8 8A 05 00 00     call        004022BA
  00401D30: B0 01              mov         al,1
  00401D32: 5D                 pop         ebp
  00401D33: C3                 ret
  00401D34: 6A 08              push        8
  00401D36: 68 98 1F 41 00     push        411F98h
  00401D3B: E8 B0 FA FF FF     call        004017F0
  00401D40: 8B 45 08           mov         eax,dword ptr [ebp+8]
  00401D43: 85 C0              test        eax,eax
  00401D45: 74 7E              je          00401DC5
  00401D47: 81 38 63 73 6D E0  cmp         dword ptr [eax],0E06D7363h
  00401D4D: 75 76              jne         00401DC5
  00401D4F: 83 78 10 03        cmp         dword ptr [eax+10h],3
  00401D53: 75 70              jne         00401DC5
  00401D55: 81 78 14 20 05 93  cmp         dword ptr [eax+14h],19930520h
            19
  00401D5C: 74 12              je          00401D70
  00401D5E: 81 78 14 21 05 93  cmp         dword ptr [eax+14h],19930521h
            19
  00401D65: 74 09              je          00401D70
  00401D67: 81 78 14 22 05 93  cmp         dword ptr [eax+14h],19930522h
            19
  00401D6E: 75 55              jne         00401DC5
  00401D70: 8B 48 1C           mov         ecx,dword ptr [eax+1Ch]
  00401D73: 85 C9              test        ecx,ecx
  00401D75: 74 4E              je          00401DC5
  00401D77: 8B 51 04           mov         edx,dword ptr [ecx+4]
  00401D7A: 85 D2              test        edx,edx
  00401D7C: 74 29              je          00401DA7
  00401D7E: 83 65 FC 00        and         dword ptr [ebp-4],0
  00401D82: 52                 push        edx
  00401D83: FF 70 18           push        dword ptr [eax+18h]
  00401D86: E8 4A 00 00 00     call        00401DD5
  00401D8B: C7 45 FC FE FF FF  mov         dword ptr [ebp-4],0FFFFFFFEh
            FF
  00401D92: EB 31              jmp         00401DC5
  00401D94: FF 75 0C           push        dword ptr [ebp+0Ch]
  00401D97: FF 75 EC           push        dword ptr [ebp-14h]
  00401D9A: E8 43 00 00 00     call        00401DE2
  00401D9F: 59                 pop         ecx
  00401DA0: 59                 pop         ecx
  00401DA1: C3                 ret
  00401DA2: 8B 65 E8           mov         esp,dword ptr [ebp-18h]
  00401DA5: EB E4              jmp         00401D8B
  00401DA7: F6 01 10           test        byte ptr [ecx],10h
  00401DAA: 74 19              je          00401DC5
  00401DAC: 8B 40 18           mov         eax,dword ptr [eax+18h]
  00401DAF: 8B 08              mov         ecx,dword ptr [eax]
  00401DB1: 85 C9              test        ecx,ecx
  00401DB3: 74 10              je          00401DC5
  00401DB5: 8B 01              mov         eax,dword ptr [ecx]
  00401DB7: 51                 push        ecx
  00401DB8: 8B 70 08           mov         esi,dword ptr [eax+8]
  00401DBB: 8B CE              mov         ecx,esi
  00401DBD: FF 15 08 D1 40 00  call        dword ptr ds:[0040D108h]
  00401DC3: FF D6              call        esi
  00401DC5: 8B 4D F0           mov         ecx,dword ptr [ebp-10h]
  00401DC8: 64 89 0D 00 00 00  mov         dword ptr fs:[00000000h],ecx
            00
  00401DCF: 59                 pop         ecx
  00401DD0: 5F                 pop         edi
  00401DD1: 5E                 pop         esi
  00401DD2: 5B                 pop         ebx
  00401DD3: C9                 leave
  00401DD4: C3                 ret
  00401DD5: 55                 push        ebp
  00401DD6: 8B EC              mov         ebp,esp
  00401DD8: 8B 4D 08           mov         ecx,dword ptr [ebp+8]
  00401DDB: FF 55 0C           call        dword ptr [ebp+0Ch]
  00401DDE: 5D                 pop         ebp
  00401DDF: C2 08 00           ret         8
  00401DE2: 55                 push        ebp
  00401DE3: 8B EC              mov         ebp,esp
  00401DE5: 80 7D 0C 00        cmp         byte ptr [ebp+0Ch],0
  00401DE9: 74 32              je          00401E1D
  00401DEB: 56                 push        esi
  00401DEC: 57                 push        edi
  00401DED: 8B 7D 08           mov         edi,dword ptr [ebp+8]
  00401DF0: 8B 37              mov         esi,dword ptr [edi]
  00401DF2: 81 3E 63 73 6D E0  cmp         dword ptr [esi],0E06D7363h
  00401DF8: 75 21              jne         00401E1B
  00401DFA: 83 7E 10 03        cmp         dword ptr [esi+10h],3
  00401DFE: 75 1B              jne         00401E1B
  00401E00: 81 7E 14 20 05 93  cmp         dword ptr [esi+14h],19930520h
            19
  00401E07: 74 18              je          00401E21
  00401E09: 81 7E 14 21 05 93  cmp         dword ptr [esi+14h],19930521h
            19
  00401E10: 74 0F              je          00401E21
  00401E12: 81 7E 14 22 05 93  cmp         dword ptr [esi+14h],19930522h
            19
  00401E19: 74 06              je          00401E21
  00401E1B: 5F                 pop         edi
  00401E1C: 5E                 pop         esi
  00401E1D: 33 C0              xor         eax,eax
  00401E1F: 5D                 pop         ebp
  00401E20: C3                 ret
  00401E21: E8 6A 03 00 00     call        00402190
  00401E26: 89 70 10           mov         dword ptr [eax+10h],esi
  00401E29: 8B 77 04           mov         esi,dword ptr [edi+4]
  00401E2C: E8 5F 03 00 00     call        00402190
  00401E31: 89 70 14           mov         dword ptr [eax+14h],esi
  00401E34: E8 EC 24 00 00     call        00404325
  00401E39: CC                 int         3
  00401E3A: E8 51 03 00 00     call        00402190
  00401E3F: 83 C0 10           add         eax,10h
  00401E42: C3                 ret
  00401E43: E8 48 03 00 00     call        00402190
  00401E48: 83 C0 14           add         eax,14h
  00401E4B: C3                 ret
  00401E4C: CC                 int         3
  00401E4D: CC                 int         3
  00401E4E: CC                 int         3
  00401E4F: CC                 int         3
  00401E50: 8B 4C 24 0C        mov         ecx,dword ptr [esp+0Ch]
  00401E54: 0F B6 44 24 08     movzx       eax,byte ptr [esp+8]
  00401E59: 8B D7              mov         edx,edi
  00401E5B: 8B 7C 24 04        mov         edi,dword ptr [esp+4]
  00401E5F: 85 C9              test        ecx,ecx
  00401E61: 0F 84 3C 01 00 00  je          00401FA3
  00401E67: 69 C0 01 01 01 01  imul        eax,eax,1010101h
  00401E6D: 83 F9 20           cmp         ecx,20h
  00401E70: 0F 86 DF 00 00 00  jbe         00401F55
  00401E76: 81 F9 80 00 00 00  cmp         ecx,80h
  00401E7C: 0F 82 8B 00 00 00  jb          00401F0D
  00401E82: 0F BA 25 C8 38 41  bt          dword ptr ds:[004138C8h],1
            00 01
  00401E8A: 73 09              jae         00401E95
  00401E8C: F3 AA              rep stos    byte ptr es:[edi]
  00401E8E: 8B 44 24 04        mov         eax,dword ptr [esp+4]
  00401E92: 8B FA              mov         edi,edx
  00401E94: C3                 ret
  00401E95: 0F BA 25 10 30 41  bt          dword ptr ds:[00413010h],1
            00 01
  00401E9D: 0F 83 B2 00 00 00  jae         00401F55
  00401EA3: 66 0F 6E C0        movd        xmm0,eax
  00401EA7: 66 0F 70 C0 00     pshufd      xmm0,xmm0,0
  00401EAC: 03 CF              add         ecx,edi
  00401EAE: 0F 11 07           movups      xmmword ptr [edi],xmm0
  00401EB1: 83 C7 10           add         edi,10h
  00401EB4: 83 E7 F0           and         edi,0FFFFFFF0h
  00401EB7: 2B CF              sub         ecx,edi
  00401EB9: 81 F9 80 00 00 00  cmp         ecx,80h
  00401EBF: 76 4C              jbe         00401F0D
  00401EC1: 8D A4 24 00 00 00  lea         esp,[esp+00000000h]
            00
  00401EC8: 8D A4 24 00 00 00  lea         esp,[esp+00000000h]
            00
  00401ECF: 90                 nop
  00401ED0: 66 0F 7F 07        movdqa      xmmword ptr [edi],xmm0
  00401ED4: 66 0F 7F 47 10     movdqa      xmmword ptr [edi+10h],xmm0
  00401ED9: 66 0F 7F 47 20     movdqa      xmmword ptr [edi+20h],xmm0
  00401EDE: 66 0F 7F 47 30     movdqa      xmmword ptr [edi+30h],xmm0
  00401EE3: 66 0F 7F 47 40     movdqa      xmmword ptr [edi+40h],xmm0
  00401EE8: 66 0F 7F 47 50     movdqa      xmmword ptr [edi+50h],xmm0
  00401EED: 66 0F 7F 47 60     movdqa      xmmword ptr [edi+60h],xmm0
  00401EF2: 66 0F 7F 47 70     movdqa      xmmword ptr [edi+70h],xmm0
  00401EF7: 8D BF 80 00 00 00  lea         edi,[edi+00000080h]
  00401EFD: 81 E9 80 00 00 00  sub         ecx,80h
  00401F03: F7 C1 00 FF FF FF  test        ecx,0FFFFFF00h
  00401F09: 75 C5              jne         00401ED0
  00401F0B: EB 13              jmp         00401F20
  00401F0D: 0F BA 25 10 30 41  bt          dword ptr ds:[00413010h],1
            00 01
  00401F15: 73 3E              jae         00401F55
  00401F17: 66 0F 6E C0        movd        xmm0,eax
  00401F1B: 66 0F 70 C0 00     pshufd      xmm0,xmm0,0
  00401F20: 83 F9 20           cmp         ecx,20h
  00401F23: 72 1C              jb          00401F41
  00401F25: F3 0F 7F 07        movdqu      xmmword ptr [edi],xmm0
  00401F29: F3 0F 7F 47 10     movdqu      xmmword ptr [edi+10h],xmm0
  00401F2E: 83 C7 20           add         edi,20h
  00401F31: 83 E9 20           sub         ecx,20h
  00401F34: 83 F9 20           cmp         ecx,20h
  00401F37: 73 EC              jae         00401F25
  00401F39: F7 C1 1F 00 00 00  test        ecx,1Fh
  00401F3F: 74 62              je          00401FA3
  00401F41: 8D 7C 0F E0        lea         edi,[edi+ecx-20h]
  00401F45: F3 0F 7F 07        movdqu      xmmword ptr [edi],xmm0
  00401F49: F3 0F 7F 47 10     movdqu      xmmword ptr [edi+10h],xmm0
  00401F4E: 8B 44 24 04        mov         eax,dword ptr [esp+4]
  00401F52: 8B FA              mov         edi,edx
  00401F54: C3                 ret
  00401F55: F7 C1 03 00 00 00  test        ecx,3
  00401F5B: 74 0E              je          00401F6B
  00401F5D: 88 07              mov         byte ptr [edi],al
  00401F5F: 47                 inc         edi
  00401F60: 83 E9 01           sub         ecx,1
  00401F63: F7 C1 03 00 00 00  test        ecx,3
  00401F69: 75 F2              jne         00401F5D
  00401F6B: F7 C1 04 00 00 00  test        ecx,4
  00401F71: 74 08              je          00401F7B
  00401F73: 89 07              mov         dword ptr [edi],eax
  00401F75: 83 C7 04           add         edi,4
  00401F78: 83 E9 04           sub         ecx,4
  00401F7B: F7 C1 F8 FF FF FF  test        ecx,0FFFFFFF8h
  00401F81: 74 20              je          00401FA3
  00401F83: 8D A4 24 00 00 00  lea         esp,[esp+00000000h]
            00
  00401F8A: 8D 9B 00 00 00 00  lea         ebx,[ebx+00000000h]
  00401F90: 89 07              mov         dword ptr [edi],eax
  00401F92: 89 47 04           mov         dword ptr [edi+4],eax
  00401F95: 83 C7 08           add         edi,8
  00401F98: 83 E9 08           sub         ecx,8
  00401F9B: F7 C1 F8 FF FF FF  test        ecx,0FFFFFFF8h
  00401FA1: 75 ED              jne         00401F90
  00401FA3: 8B 44 24 04        mov         eax,dword ptr [esp+4]
  00401FA7: 8B FA              mov         edi,edx
  00401FA9: C3                 ret
  00401FAA: CC                 int         3
  00401FAB: CC                 int         3
  00401FAC: CC                 int         3
  00401FAD: CC                 int         3
  00401FAE: CC                 int         3
  00401FAF: CC                 int         3
  00401FB0: 53                 push        ebx
  00401FB1: 56                 push        esi
  00401FB2: 57                 push        edi
  00401FB3: 8B 54 24 10        mov         edx,dword ptr [esp+10h]
  00401FB7: 8B 44 24 14        mov         eax,dword ptr [esp+14h]
  00401FBB: 8B 4C 24 18        mov         ecx,dword ptr [esp+18h]
  00401FBF: 55                 push        ebp
  00401FC0: 52                 push        edx
  00401FC1: 50                 push        eax
  00401FC2: 51                 push        ecx
  00401FC3: 51                 push        ecx
  00401FC4: 68 40 20 40 00     push        402040h
  00401FC9: 64 FF 35 00 00 00  push        dword ptr fs:[00000000h]
            00
  00401FD0: A1 18 30 41 00     mov         eax,dword ptr ds:[00413018h]
  00401FD5: 33 C4              xor         eax,esp
  00401FD7: 89 44 24 08        mov         dword ptr [esp+8],eax
  00401FDB: 64 89 25 00 00 00  mov         dword ptr fs:[00000000h],esp
            00
  00401FE2: 8B 44 24 30        mov         eax,dword ptr [esp+30h]
  00401FE6: 8B 58 08           mov         ebx,dword ptr [eax+8]
  00401FE9: 8B 4C 24 2C        mov         ecx,dword ptr [esp+2Ch]
  00401FED: 33 19              xor         ebx,dword ptr [ecx]
  00401FEF: 8B 70 0C           mov         esi,dword ptr [eax+0Ch]
  00401FF2: 83 FE FE           cmp         esi,0FFFFFFFEh
  00401FF5: 74 3B              je          00402032
  00401FF7: 8B 54 24 34        mov         edx,dword ptr [esp+34h]
  00401FFB: 83 FA FE           cmp         edx,0FFFFFFFEh
  00401FFE: 74 04              je          00402004
  00402000: 3B F2              cmp         esi,edx
  00402002: 76 2E              jbe         00402032
  00402004: 8D 34 76           lea         esi,[esi+esi*2]
  00402007: 8D 5C B3 10        lea         ebx,[ebx+esi*4+10h]
  0040200B: 8B 0B              mov         ecx,dword ptr [ebx]
  0040200D: 89 48 0C           mov         dword ptr [eax+0Ch],ecx
  00402010: 83 7B 04 00        cmp         dword ptr [ebx+4],0
  00402014: 75 CC              jne         00401FE2
  00402016: 68 01 01 00 00     push        101h
  0040201B: 8B 43 08           mov         eax,dword ptr [ebx+8]
  0040201E: E8 E9 03 00 00     call        0040240C
  00402023: B9 01 00 00 00     mov         ecx,1
  00402028: 8B 43 08           mov         eax,dword ptr [ebx+8]
  0040202B: E8 FB 03 00 00     call        0040242B
  00402030: EB B0              jmp         00401FE2
  00402032: 64 8F 05 00 00 00  pop         dword ptr fs:[00000000h]
            00
  00402039: 83 C4 18           add         esp,18h
  0040203C: 5F                 pop         edi
  0040203D: 5E                 pop         esi
  0040203E: 5B                 pop         ebx
  0040203F: C3                 ret
  00402040: 8B 4C 24 04        mov         ecx,dword ptr [esp+4]
  00402044: F7 41 04 06 00 00  test        dword ptr [ecx+4],6
            00
  0040204B: B8 01 00 00 00     mov         eax,1
  00402050: 74 33              je          00402085
  00402052: 8B 44 24 08        mov         eax,dword ptr [esp+8]
  00402056: 8B 48 08           mov         ecx,dword ptr [eax+8]
  00402059: 33 C8              xor         ecx,eax
  0040205B: E8 C7 F9 FF FF     call        00401A27
  00402060: 55                 push        ebp
  00402061: 8B 68 18           mov         ebp,dword ptr [eax+18h]
  00402064: FF 70 0C           push        dword ptr [eax+0Ch]
  00402067: FF 70 10           push        dword ptr [eax+10h]
  0040206A: FF 70 14           push        dword ptr [eax+14h]
  0040206D: E8 3E FF FF FF     call        00401FB0
  00402072: 83 C4 0C           add         esp,0Ch
  00402075: 5D                 pop         ebp
  00402076: 8B 44 24 08        mov         eax,dword ptr [esp+8]
  0040207A: 8B 54 24 10        mov         edx,dword ptr [esp+10h]
  0040207E: 89 02              mov         dword ptr [edx],eax
  00402080: B8 03 00 00 00     mov         eax,3
  00402085: C3                 ret
  00402086: 8B FF              mov         edi,edi
  00402088: 55                 push        ebp
  00402089: FF 74 24 08        push        dword ptr [esp+8]
  0040208D: E8 B5 00 00 00     call        00402147
  00402092: 83 C4 04           add         esp,4
  00402095: 8B 4C 24 08        mov         ecx,dword ptr [esp+8]
  00402099: 8B 29              mov         ebp,dword ptr [ecx]
  0040209B: FF 71 1C           push        dword ptr [ecx+1Ch]
  0040209E: FF 71 18           push        dword ptr [ecx+18h]
  004020A1: FF 71 28           push        dword ptr [ecx+28h]
  004020A4: E8 07 FF FF FF     call        00401FB0
  004020A9: 83 C4 0C           add         esp,0Ch
  004020AC: 5D                 pop         ebp
  004020AD: C2 04 00           ret         4
  004020B0: 55                 push        ebp
  004020B1: 56                 push        esi
  004020B2: 57                 push        edi
  004020B3: 53                 push        ebx
  004020B4: 8B EA              mov         ebp,edx
  004020B6: 33 C0              xor         eax,eax
  004020B8: 33 DB              xor         ebx,ebx
  004020BA: 33 D2              xor         edx,edx
  004020BC: 33 F6              xor         esi,esi
  004020BE: 33 FF              xor         edi,edi
  004020C0: FF D1              call        ecx
  004020C2: 5B                 pop         ebx
  004020C3: 5F                 pop         edi
  004020C4: 5E                 pop         esi
  004020C5: 5D                 pop         ebp
  004020C6: C3                 ret
  004020C7: 90                 nop
  004020C8: 8B EA              mov         ebp,edx
  004020CA: 8B F1              mov         esi,ecx
  004020CC: 8B C1              mov         eax,ecx
  004020CE: 6A 01              push        1
  004020D0: E8 37 03 00 00     call        0040240C
  004020D5: 33 C0              xor         eax,eax
  004020D7: 33 DB              xor         ebx,ebx
  004020D9: 33 C9              xor         ecx,ecx
  004020DB: 33 D2              xor         edx,edx
  004020DD: 33 FF              xor         edi,edi
  004020DF: FF E6              jmp         esi
  004020E1: 8D 49 00           lea         ecx,[ecx]
  004020E4: 55                 push        ebp
  004020E5: 8B EC              mov         ebp,esp
  004020E7: 53                 push        ebx
  004020E8: 56                 push        esi
  004020E9: 57                 push        edi
  004020EA: 6A 00              push        0
  004020EC: 52                 push        edx
  004020ED: 68 F9 20 40 00     push        4020F9h
  004020F2: 51                 push        ecx
  004020F3: FF 15 38 D0 40 00  call        dword ptr ds:[0040D038h]
  004020F9: 5F                 pop         edi
  004020FA: 5E                 pop         esi
  004020FB: 5B                 pop         ebx
  004020FC: 5D                 pop         ebp
  004020FD: C3                 ret
  004020FE: 8B FF              mov         edi,edi
  00402100: 55                 push        ebp
  00402101: 8B 6C 24 08        mov         ebp,dword ptr [esp+8]
  00402105: 52                 push        edx
  00402106: 51                 push        ecx
  00402107: FF 74 24 14        push        dword ptr [esp+14h]
  0040210B: E8 A0 FE FF FF     call        00401FB0
  00402110: 83 C4 0C           add         esp,0Ch
  00402113: 5D                 pop         ebp
  00402114: C2 08 00           ret         8
  00402117: 55                 push        ebp
  00402118: 8B EC              mov         ebp,esp
  0040211A: A1 08 D1 40 00     mov         eax,dword ptr ds:[0040D108h]
  0040211F: 3D 88 15 40 00     cmp         eax,401588h
  00402124: 74 1F              je          00402145
  00402126: 64 8B 0D 18 00 00  mov         ecx,dword ptr fs:[00000018h]
            00
  0040212D: 8B 45 08           mov         eax,dword ptr [ebp+8]
  00402130: 8B 80 C4 00 00 00  mov         eax,dword ptr [eax+000000C4h]
  00402136: 3B 41 08           cmp         eax,dword ptr [ecx+8]
  00402139: 72 05              jb          00402140
  0040213B: 3B 41 04           cmp         eax,dword ptr [ecx+4]
  0040213E: 76 05              jbe         00402145
  00402140: 6A 0D              push        0Dh
  00402142: 59                 pop         ecx
  00402143: CD 29              int         29h
  00402145: 5D                 pop         ebp
  00402146: C3                 ret
  00402147: 55                 push        ebp
  00402148: 8B EC              mov         ebp,esp
  0040214A: A1 08 D1 40 00     mov         eax,dword ptr ds:[0040D108h]
  0040214F: 3D 88 15 40 00     cmp         eax,401588h
  00402154: 74 1C              je          00402172
  00402156: 64 8B 0D 18 00 00  mov         ecx,dword ptr fs:[00000018h]
            00
  0040215D: 8B 45 08           mov         eax,dword ptr [ebp+8]
  00402160: 8B 40 10           mov         eax,dword ptr [eax+10h]
  00402163: 3B 41 08           cmp         eax,dword ptr [ecx+8]
  00402166: 72 05              jb          0040216D
  00402168: 3B 41 04           cmp         eax,dword ptr [ecx+4]
  0040216B: 76 05              jbe         00402172
  0040216D: 6A 0D              push        0Dh
  0040216F: 59                 pop         ecx
  00402170: CD 29              int         29h
  00402172: 5D                 pop         ebp
  00402173: C3                 ret
  00402174: 55                 push        ebp
  00402175: 8B EC              mov         ebp,esp
  00402177: 8B 45 08           mov         eax,dword ptr [ebp+8]
  0040217A: 85 C0              test        eax,eax
  0040217C: 74 0E              je          0040218C
  0040217E: 3D F0 3B 41 00     cmp         eax,413BF0h
  00402183: 74 07              je          0040218C
  00402185: 50                 push        eax
  00402186: E8 D6 21 00 00     call        00404361
  0040218B: 59                 pop         ecx
  0040218C: 5D                 pop         ebp
  0040218D: C2 04 00           ret         4
  00402190: E8 09 00 00 00     call        0040219E
  00402195: 85 C0              test        eax,eax
  00402197: 0F 84 39 22 00 00  je          004043D6
  0040219D: C3                 ret
  0040219E: 83 3D 20 30 41 00  cmp         dword ptr ds:[00413020h],0FFFFFFFFh
            FF
  004021A5: 75 03              jne         004021AA
  004021A7: 33 C0              xor         eax,eax
  004021A9: C3                 ret
  004021AA: 53                 push        ebx
  004021AB: 57                 push        edi
  004021AC: FF 15 3C D0 40 00  call        dword ptr ds:[0040D03Ch]
  004021B2: FF 35 20 30 41 00  push        dword ptr ds:[00413020h]
  004021B8: 8B F8              mov         edi,eax
  004021BA: E8 C8 03 00 00     call        00402587
  004021BF: 8B D8              mov         ebx,eax
  004021C1: 59                 pop         ecx
  004021C2: 83 FB FF           cmp         ebx,0FFFFFFFFh
  004021C5: 74 17              je          004021DE
  004021C7: 85 DB              test        ebx,ebx
  004021C9: 75 59              jne         00402224
  004021CB: 6A FF              push        0FFFFFFFFh
  004021CD: FF 35 20 30 41 00  push        dword ptr ds:[00413020h]
  004021D3: E8 EA 03 00 00     call        004025C2
  004021D8: 59                 pop         ecx
  004021D9: 59                 pop         ecx
  004021DA: 85 C0              test        eax,eax
  004021DC: 75 04              jne         004021E2
  004021DE: 33 DB              xor         ebx,ebx
  004021E0: EB 42              jmp         00402224
  004021E2: 56                 push        esi
  004021E3: 6A 28              push        28h
  004021E5: 6A 01              push        1
  004021E7: E8 2E 22 00 00     call        0040441A
  004021EC: 8B F0              mov         esi,eax
  004021EE: 59                 pop         ecx
  004021EF: 59                 pop         ecx
  004021F0: 85 F6              test        esi,esi
  004021F2: 74 12              je          00402206
  004021F4: 56                 push        esi
  004021F5: FF 35 20 30 41 00  push        dword ptr ds:[00413020h]
  004021FB: E8 C2 03 00 00     call        004025C2
  00402200: 59                 pop         ecx
  00402201: 59                 pop         ecx
  00402202: 85 C0              test        eax,eax
  00402204: 75 12              jne         00402218
  00402206: 33 DB              xor         ebx,ebx
  00402208: 53                 push        ebx
  00402209: FF 35 20 30 41 00  push        dword ptr ds:[00413020h]
  0040220F: E8 AE 03 00 00     call        004025C2
  00402214: 59                 pop         ecx
  00402215: 59                 pop         ecx
  00402216: EB 04              jmp         0040221C
  00402218: 8B DE              mov         ebx,esi
  0040221A: 33 F6              xor         esi,esi
  0040221C: 56                 push        esi
  0040221D: E8 3F 21 00 00     call        00404361
  00402222: 59                 pop         ecx
  00402223: 5E                 pop         esi
  00402224: 57                 push        edi
  00402225: FF 15 40 D0 40 00  call        dword ptr ds:[0040D040h]
  0040222B: 5F                 pop         edi
  0040222C: 8B C3              mov         eax,ebx
  0040222E: 5B                 pop         ebx
  0040222F: C3                 ret
  00402230: 68 74 21 40 00     push        402174h
  00402235: E8 D7 02 00 00     call        00402511
  0040223A: A3 20 30 41 00     mov         dword ptr ds:[00413020h],eax
  0040223F: 59                 pop         ecx
  00402240: 83 F8 FF           cmp         eax,0FFFFFFFFh
  00402243: 75 03              jne         00402248
  00402245: 32 C0              xor         al,al
  00402247: C3                 ret
  00402248: 68 F0 3B 41 00     push        413BF0h
  0040224D: 50                 push        eax
  0040224E: E8 6F 03 00 00     call        004025C2
  00402253: 59                 pop         ecx
  00402254: 59                 pop         ecx
  00402255: 85 C0              test        eax,eax
  00402257: 75 07              jne         00402260
  00402259: E8 05 00 00 00     call        00402263
  0040225E: EB E5              jmp         00402245
  00402260: B0 01              mov         al,1
  00402262: C3                 ret
  00402263: A1 20 30 41 00     mov         eax,dword ptr ds:[00413020h]
  00402268: 83 F8 FF           cmp         eax,0FFFFFFFFh
  0040226B: 74 0E              je          0040227B
  0040226D: 50                 push        eax
  0040226E: E8 D9 02 00 00     call        0040254C
  00402273: 83 0D 20 30 41 00  or          dword ptr ds:[00413020h],0FFFFFFFFh
            FF
  0040227A: 59                 pop         ecx
  0040227B: B0 01              mov         al,1
  0040227D: C3                 ret
  0040227E: 56                 push        esi
  0040227F: 57                 push        edi
  00402280: BF 18 3C 41 00     mov         edi,413C18h
  00402285: 33 F6              xor         esi,esi
  00402287: 6A 00              push        0
  00402289: 68 A0 0F 00 00     push        0FA0h
  0040228E: 57                 push        edi
  0040228F: E8 6C 03 00 00     call        00402600
  00402294: 83 C4 0C           add         esp,0Ch
  00402297: 85 C0              test        eax,eax
  00402299: 74 15              je          004022B0
  0040229B: FF 05 30 3C 41 00  inc         dword ptr ds:[00413C30h]
  004022A1: 83 C6 18           add         esi,18h
  004022A4: 83 C7 18           add         edi,18h
  004022A7: 83 FE 18           cmp         esi,18h
  004022AA: 72 DB              jb          00402287
  004022AC: B0 01              mov         al,1
  004022AE: EB 07              jmp         004022B7
  004022B0: E8 05 00 00 00     call        004022BA
  004022B5: 32 C0              xor         al,al
  004022B7: 5F                 pop         edi
  004022B8: 5E                 pop         esi
  004022B9: C3                 ret
  004022BA: 56                 push        esi
  004022BB: 8B 35 30 3C 41 00  mov         esi,dword ptr ds:[00413C30h]
  004022C1: 85 F6              test        esi,esi
  004022C3: 74 20              je          004022E5
  004022C5: 6B C6 18           imul        eax,esi,18h
  004022C8: 57                 push        edi
  004022C9: 8D B8 00 3C 41 00  lea         edi,[eax+00413C00h]
  004022CF: 57                 push        edi
  004022D0: FF 15 4C D0 40 00  call        dword ptr ds:[0040D04Ch]
  004022D6: FF 0D 30 3C 41 00  dec         dword ptr ds:[00413C30h]
  004022DC: 83 EF 18           sub         edi,18h
  004022DF: 83 EE 01           sub         esi,1
  004022E2: 75 EB              jne         004022CF
  004022E4: 5F                 pop         edi
  004022E5: B0 01              mov         al,1
  004022E7: 5E                 pop         esi
  004022E8: C3                 ret
  004022E9: CC                 int         3
  004022EA: CC                 int         3
  004022EB: CC                 int         3
  004022EC: CC                 int         3
  004022ED: CC                 int         3
  004022EE: CC                 int         3
  004022EF: CC                 int         3
  004022F0: 55                 push        ebp
  004022F1: 8B EC              mov         ebp,esp
  004022F3: 53                 push        ebx
  004022F4: 56                 push        esi
  004022F5: 57                 push        edi
  004022F6: 55                 push        ebp
  004022F7: 6A 00              push        0
  004022F9: 6A 00              push        0
  004022FB: 68 09 23 40 00     push        402309h
  00402300: FF 75 08           push        dword ptr [ebp+8]
  00402303: FF 15 38 D0 40 00  call        dword ptr ds:[0040D038h]
  00402309: 5D                 pop         ebp
  0040230A: 5F                 pop         edi
  0040230B: 5E                 pop         esi
  0040230C: 5B                 pop         ebx
  0040230D: 8B E5              mov         esp,ebp
  0040230F: 5D                 pop         ebp
  00402310: C3                 ret
  00402311: 8B 4C 24 04        mov         ecx,dword ptr [esp+4]
  00402315: F7 41 04 06 00 00  test        dword ptr [ecx+4],6
            00
  0040231C: B8 01 00 00 00     mov         eax,1
  00402321: 74 32              je          00402355
  00402323: 8B 44 24 14        mov         eax,dword ptr [esp+14h]
  00402327: 8B 48 FC           mov         ecx,dword ptr [eax-4]
  0040232A: 33 C8              xor         ecx,eax
  0040232C: E8 F6 F6 FF FF     call        00401A27
  00402331: 55                 push        ebp
  00402332: 8B 68 10           mov         ebp,dword ptr [eax+10h]
  00402335: 8B 50 28           mov         edx,dword ptr [eax+28h]
  00402338: 52                 push        edx
  00402339: 8B 50 24           mov         edx,dword ptr [eax+24h]
  0040233C: 52                 push        edx
  0040233D: E8 14 00 00 00     call        00402356
  00402342: 83 C4 08           add         esp,8
  00402345: 5D                 pop         ebp
  00402346: 8B 44 24 08        mov         eax,dword ptr [esp+8]
  0040234A: 8B 54 24 10        mov         edx,dword ptr [esp+10h]
  0040234E: 89 02              mov         dword ptr [edx],eax
  00402350: B8 03 00 00 00     mov         eax,3
  00402355: C3                 ret
  00402356: 53                 push        ebx
  00402357: 56                 push        esi
  00402358: 57                 push        edi
  00402359: 8B 44 24 10        mov         eax,dword ptr [esp+10h]
  0040235D: 55                 push        ebp
  0040235E: 50                 push        eax
  0040235F: 6A FE              push        0FFFFFFFEh
  00402361: 68 11 23 40 00     push        402311h
  00402366: 64 FF 35 00 00 00  push        dword ptr fs:[00000000h]
            00
  0040236D: A1 18 30 41 00     mov         eax,dword ptr ds:[00413018h]
  00402372: 33 C4              xor         eax,esp
  00402374: 50                 push        eax
  00402375: 8D 44 24 04        lea         eax,[esp+4]
  00402379: 64 A3 00 00 00 00  mov         dword ptr fs:[00000000h],eax
  0040237F: 8B 44 24 28        mov         eax,dword ptr [esp+28h]
  00402383: 8B 58 08           mov         ebx,dword ptr [eax+8]
  00402386: 8B 70 0C           mov         esi,dword ptr [eax+0Ch]
  00402389: 83 FE FF           cmp         esi,0FFFFFFFFh
  0040238C: 74 3A              je          004023C8
  0040238E: 83 7C 24 2C FF     cmp         dword ptr [esp+2Ch],0FFFFFFFFh
  00402393: 74 06              je          0040239B
  00402395: 3B 74 24 2C        cmp         esi,dword ptr [esp+2Ch]
  00402399: 76 2D              jbe         004023C8
  0040239B: 8D 34 76           lea         esi,[esi+esi*2]
  0040239E: 8B 0C B3           mov         ecx,dword ptr [ebx+esi*4]
  004023A1: 89 4C 24 0C        mov         dword ptr [esp+0Ch],ecx
  004023A5: 89 48 0C           mov         dword ptr [eax+0Ch],ecx
  004023A8: 83 7C B3 04 00     cmp         dword ptr [ebx+esi*4+4],0
  004023AD: 75 17              jne         004023C6
  004023AF: 68 01 01 00 00     push        101h
  004023B4: 8B 44 B3 08        mov         eax,dword ptr [ebx+esi*4+8]
  004023B8: E8 4F 00 00 00     call        0040240C
  004023BD: 8B 44 B3 08        mov         eax,dword ptr [ebx+esi*4+8]
  004023C1: E8 65 00 00 00     call        0040242B
  004023C6: EB B7              jmp         0040237F
  004023C8: 8B 4C 24 04        mov         ecx,dword ptr [esp+4]
  004023CC: 64 89 0D 00 00 00  mov         dword ptr fs:[00000000h],ecx
            00
  004023D3: 83 C4 18           add         esp,18h
  004023D6: 5F                 pop         edi
  004023D7: 5E                 pop         esi
  004023D8: 5B                 pop         ebx
  004023D9: C3                 ret
  004023DA: 33 C0              xor         eax,eax
  004023DC: 64 8B 0D 00 00 00  mov         ecx,dword ptr fs:[00000000h]
            00
  004023E3: 81 79 04 11 23 40  cmp         dword ptr [ecx+4],402311h
            00
  004023EA: 75 10              jne         004023FC
  004023EC: 8B 51 0C           mov         edx,dword ptr [ecx+0Ch]
  004023EF: 8B 52 0C           mov         edx,dword ptr [edx+0Ch]
  004023F2: 39 51 08           cmp         dword ptr [ecx+8],edx
  004023F5: 75 05              jne         004023FC
  004023F7: B8 01 00 00 00     mov         eax,1
  004023FC: C3                 ret
  004023FD: 8D 49 00           lea         ecx,[ecx]
  00402400: 53                 push        ebx
  00402401: 51                 push        ecx
  00402402: BB 30 30 41 00     mov         ebx,413030h
  00402407: EB 0E              jmp         00402417
  00402409: 8D 49 00           lea         ecx,[ecx]
  0040240C: 53                 push        ebx
  0040240D: 51                 push        ecx
  0040240E: BB 30 30 41 00     mov         ebx,413030h
  00402413: 8B 4C 24 0C        mov         ecx,dword ptr [esp+0Ch]
  00402417: 89 4B 08           mov         dword ptr [ebx+8],ecx
  0040241A: 89 43 04           mov         dword ptr [ebx+4],eax
  0040241D: 89 6B 0C           mov         dword ptr [ebx+0Ch],ebp
  00402420: 55                 push        ebp
  00402421: 51                 push        ecx
  00402422: 50                 push        eax
  00402423: 58                 pop         eax
  00402424: 59                 pop         ecx
  00402425: 5D                 pop         ebp
  00402426: 59                 pop         ecx
  00402427: 5B                 pop         ebx
  00402428: C2 04 00           ret         4
  0040242B: FF D0              call        eax
  0040242D: C3                 ret
  0040242E: 55                 push        ebp
  0040242F: 8B EC              mov         ebp,esp
  00402431: 51                 push        ecx
  00402432: 53                 push        ebx
  00402433: 56                 push        esi
  00402434: 57                 push        edi
  00402435: 8B 7D 08           mov         edi,dword ptr [ebp+8]
  00402438: EB 6F              jmp         004024A9
  0040243A: 8B 07              mov         eax,dword ptr [edi]
  0040243C: 8D 1C 85 70 3C 41  lea         ebx,[eax*4+00413C70h]
            00
  00402443: 8B 33              mov         esi,dword ptr [ebx]
  00402445: 85 F6              test        esi,esi
  00402447: 74 07              je          00402450
  00402449: 83 FE FF           cmp         esi,0FFFFFFFFh
  0040244C: 75 76              jne         004024C4
  0040244E: EB 56              jmp         004024A6
  00402450: 8B 04 85 00 DB 40  mov         eax,dword ptr [eax*4+0040DB00h]
            00
  00402457: 68 00 08 00 00     push        800h
  0040245C: 6A 00              push        0
  0040245E: 50                 push        eax
  0040245F: 89 45 FC           mov         dword ptr [ebp-4],eax
  00402462: FF 15 6C D0 40 00  call        dword ptr ds:[0040D06Ch]
  00402468: 8B F0              mov         esi,eax
  0040246A: 85 F6              test        esi,esi
  0040246C: 75 47              jne         004024B5
  0040246E: FF 15 3C D0 40 00  call        dword ptr ds:[0040D03Ch]
  00402474: 83 F8 57           cmp         eax,57h
  00402477: 75 28              jne         004024A1
  00402479: 8B 75 FC           mov         esi,dword ptr [ebp-4]
  0040247C: 6A 07              push        7
  0040247E: 68 98 DB 40 00     push        40DB98h
  00402483: 56                 push        esi
  00402484: E8 9F 20 00 00     call        00404528
  00402489: 83 C4 0C           add         esp,0Ch
  0040248C: 85 C0              test        eax,eax
  0040248E: 74 11              je          004024A1
  00402490: 6A 00              push        0
  00402492: 6A 00              push        0
  00402494: 56                 push        esi
  00402495: FF 15 6C D0 40 00  call        dword ptr ds:[0040D06Ch]
  0040249B: 8B F0              mov         esi,eax
  0040249D: 85 F6              test        esi,esi
  0040249F: 75 14              jne         004024B5
  004024A1: 83 C8 FF           or          eax,0FFFFFFFFh
  004024A4: 87 03              xchg        eax,dword ptr [ebx]
  004024A6: 83 C7 04           add         edi,4
  004024A9: 3B 7D 0C           cmp         edi,dword ptr [ebp+0Ch]
  004024AC: 75 8C              jne         0040243A
  004024AE: 33 C0              xor         eax,eax
  004024B0: 5F                 pop         edi
  004024B1: 5E                 pop         esi
  004024B2: 5B                 pop         ebx
  004024B3: C9                 leave
  004024B4: C3                 ret
  004024B5: 8B C6              mov         eax,esi
  004024B7: 87 03              xchg        eax,dword ptr [ebx]
  004024B9: 85 C0              test        eax,eax
  004024BB: 74 07              je          004024C4
  004024BD: 56                 push        esi
  004024BE: FF 15 64 D0 40 00  call        dword ptr ds:[0040D064h]
  004024C4: 8B C6              mov         eax,esi
  004024C6: EB E8              jmp         004024B0
  004024C8: 55                 push        ebp
  004024C9: 8B EC              mov         ebp,esp
  004024CB: 8B 45 08           mov         eax,dword ptr [ebp+8]
  004024CE: 56                 push        esi
  004024CF: 57                 push        edi
  004024D0: 8D 3C 85 7C 3C 41  lea         edi,[eax*4+00413C7Ch]
            00
  004024D7: 8B 07              mov         eax,dword ptr [edi]
  004024D9: 83 CE FF           or          esi,0FFFFFFFFh
  004024DC: 3B C6              cmp         eax,esi
  004024DE: 74 2B              je          0040250B
  004024E0: 85 C0              test        eax,eax
  004024E2: 75 29              jne         0040250D
  004024E4: FF 75 14           push        dword ptr [ebp+14h]
  004024E7: FF 75 10           push        dword ptr [ebp+10h]
  004024EA: E8 3F FF FF FF     call        0040242E
  004024EF: 59                 pop         ecx
  004024F0: 59                 pop         ecx
  004024F1: 85 C0              test        eax,eax
  004024F3: 74 14              je          00402509
  004024F5: FF 75 0C           push        dword ptr [ebp+0Ch]
  004024F8: 50                 push        eax
  004024F9: FF 15 68 D0 40 00  call        dword ptr ds:[0040D068h]
  004024FF: 85 C0              test        eax,eax
  00402501: 74 06              je          00402509
  00402503: 8B C8              mov         ecx,eax
  00402505: 87 0F              xchg        ecx,dword ptr [edi]
  00402507: EB 04              jmp         0040250D
  00402509: 87 37              xchg        esi,dword ptr [edi]
  0040250B: 33 C0              xor         eax,eax
  0040250D: 5F                 pop         edi
  0040250E: 5E                 pop         esi
  0040250F: 5D                 pop         ebp
  00402510: C3                 ret
  00402511: 55                 push        ebp
  00402512: 8B EC              mov         ebp,esp
  00402514: 56                 push        esi
  00402515: 68 B0 DB 40 00     push        40DBB0h
  0040251A: 68 A8 DB 40 00     push        40DBA8h
  0040251F: 68 B0 DB 40 00     push        40DBB0h
  00402524: 6A 00              push        0
  00402526: E8 9D FF FF FF     call        004024C8
  0040252B: 8B F0              mov         esi,eax
  0040252D: 83 C4 10           add         esp,10h
  00402530: 85 F6              test        esi,esi
  00402532: 74 10              je          00402544
  00402534: FF 75 08           push        dword ptr [ebp+8]
  00402537: 8B CE              mov         ecx,esi
  00402539: FF 15 08 D1 40 00  call        dword ptr ds:[0040D108h]
  0040253F: FF D6              call        esi
  00402541: 5E                 pop         esi
  00402542: 5D                 pop         ebp
  00402543: C3                 ret
  00402544: 5E                 pop         esi
  00402545: 5D                 pop         ebp
  00402546: FF 25 54 D0 40 00  jmp         dword ptr ds:[0040D054h]
  0040254C: 55                 push        ebp
  0040254D: 8B EC              mov         ebp,esp
  0040254F: 56                 push        esi
  00402550: 68 C4 DB 40 00     push        40DBC4h
  00402555: 68 BC DB 40 00     push        40DBBCh
  0040255A: 68 C4 DB 40 00     push        40DBC4h
  0040255F: 6A 01              push        1
  00402561: E8 62 FF FF FF     call        004024C8
  00402566: 83 C4 10           add         esp,10h
  00402569: 8B F0              mov         esi,eax
  0040256B: FF 75 08           push        dword ptr [ebp+8]
  0040256E: 85 F6              test        esi,esi
  00402570: 74 0C              je          0040257E
  00402572: 8B CE              mov         ecx,esi
  00402574: FF 15 08 D1 40 00  call        dword ptr ds:[0040D108h]
  0040257A: FF D6              call        esi
  0040257C: EB 06              jmp         00402584
  0040257E: FF 15 60 D0 40 00  call        dword ptr ds:[0040D060h]
  00402584: 5E                 pop         esi
  00402585: 5D                 pop         ebp
  00402586: C3                 ret
  00402587: 55                 push        ebp
  00402588: 8B EC              mov         ebp,esp
  0040258A: 56                 push        esi
  0040258B: 68 D4 DB 40 00     push        40DBD4h
  00402590: 68 CC DB 40 00     push        40DBCCh
  00402595: 68 D4 DB 40 00     push        40DBD4h
  0040259A: 6A 02              push        2
  0040259C: E8 27 FF FF FF     call        004024C8
  004025A1: 83 C4 10           add         esp,10h
  004025A4: 8B F0              mov         esi,eax
  004025A6: FF 75 08           push        dword ptr [ebp+8]
  004025A9: 85 F6              test        esi,esi
  004025AB: 74 0C              je          004025B9
  004025AD: 8B CE              mov         ecx,esi
  004025AF: FF 15 08 D1 40 00  call        dword ptr ds:[0040D108h]
  004025B5: FF D6              call        esi
  004025B7: EB 06              jmp         004025BF
  004025B9: FF 15 58 D0 40 00  call        dword ptr ds:[0040D058h]
  004025BF: 5E                 pop         esi
  004025C0: 5D                 pop         ebp
  004025C1: C3                 ret
  004025C2: 55                 push        ebp
  004025C3: 8B EC              mov         ebp,esp
  004025C5: 56                 push        esi
  004025C6: 68 E8 DB 40 00     push        40DBE8h
  004025CB: 68 E0 DB 40 00     push        40DBE0h
  004025D0: 68 E8 DB 40 00     push        40DBE8h
  004025D5: 6A 03              push        3
  004025D7: E8 EC FE FF FF     call        004024C8
  004025DC: 83 C4 10           add         esp,10h
  004025DF: 8B F0              mov         esi,eax
  004025E1: FF 75 0C           push        dword ptr [ebp+0Ch]
  004025E4: FF 75 08           push        dword ptr [ebp+8]
  004025E7: 85 F6              test        esi,esi
  004025E9: 74 0C              je          004025F7
  004025EB: 8B CE              mov         ecx,esi
  004025ED: FF 15 08 D1 40 00  call        dword ptr ds:[0040D108h]
  004025F3: FF D6              call        esi
  004025F5: EB 06              jmp         004025FD
  004025F7: FF 15 5C D0 40 00  call        dword ptr ds:[0040D05Ch]
  004025FD: 5E                 pop         esi
  004025FE: 5D                 pop         ebp
  004025FF: C3                 ret
  00402600: 55                 push        ebp
  00402601: 8B EC              mov         ebp,esp
  00402603: 56                 push        esi
  00402604: 68 FC DB 40 00     push        40DBFCh
  00402609: 68 F4 DB 40 00     push        40DBF4h
  0040260E: 68 FC DB 40 00     push        40DBFCh
  00402613: 6A 04              push        4
  00402615: E8 AE FE FF FF     call        004024C8
  0040261A: 8B F0              mov         esi,eax
  0040261C: 83 C4 10           add         esp,10h
  0040261F: 85 F6              test        esi,esi
  00402621: 74 15              je          00402638
  00402623: FF 75 10           push        dword ptr [ebp+10h]
  00402626: 8B CE              mov         ecx,esi
  00402628: FF 75 0C           push        dword ptr [ebp+0Ch]
  0040262B: FF 75 08           push        dword ptr [ebp+8]
  0040262E: FF 15 08 D1 40 00  call        dword ptr ds:[0040D108h]
  00402634: FF D6              call        esi
  00402636: EB 0C              jmp         00402644
  00402638: FF 75 0C           push        dword ptr [ebp+0Ch]
  0040263B: FF 75 08           push        dword ptr [ebp+8]
  0040263E: FF 15 50 D0 40 00  call        dword ptr ds:[0040D050h]
  00402644: 5E                 pop         esi
  00402645: 5D                 pop         ebp
  00402646: C3                 ret
  00402647: CC                 int         3
  00402648: CC                 int         3
  00402649: CC                 int         3
  0040264A: CC                 int         3
  0040264B: CC                 int         3
  0040264C: CC                 int         3
  0040264D: CC                 int         3
  0040264E: CC                 int         3
  0040264F: CC                 int         3
  00402650: 57                 push        edi
  00402651: 56                 push        esi
  00402652: 8B 74 24 10        mov         esi,dword ptr [esp+10h]
  00402656: 8B 4C 24 14        mov         ecx,dword ptr [esp+14h]
  0040265A: 8B 7C 24 0C        mov         edi,dword ptr [esp+0Ch]
  0040265E: 8B C1              mov         eax,ecx
  00402660: 8B D1              mov         edx,ecx
  00402662: 03 C6              add         eax,esi
  00402664: 3B FE              cmp         edi,esi
  00402666: 76 08              jbe         00402670
  00402668: 3B F8              cmp         edi,eax
  0040266A: 0F 82 94 02 00 00  jb          00402904
  00402670: 83 F9 20           cmp         ecx,20h
  00402673: 0F 82 D2 04 00 00  jb          00402B4B
  00402679: 81 F9 80 00 00 00  cmp         ecx,80h
  0040267F: 73 13              jae         00402694
  00402681: 0F BA 25 10 30 41  bt          dword ptr ds:[00413010h],1
            00 01
  00402689: 0F 82 8E 04 00 00  jb          00402B1D
  0040268F: E9 E3 01 00 00     jmp         00402877
  00402694: 0F BA 25 C8 38 41  bt          dword ptr ds:[004138C8h],1
            00 01
  0040269C: 73 09              jae         004026A7
  0040269E: F3 A4              rep movs    byte ptr es:[edi],byte ptr [esi]
  004026A0: 8B 44 24 0C        mov         eax,dword ptr [esp+0Ch]
  004026A4: 5E                 pop         esi
  004026A5: 5F                 pop         edi
  004026A6: C3                 ret
  004026A7: 8B C7              mov         eax,edi
  004026A9: 33 C6              xor         eax,esi
  004026AB: A9 0F 00 00 00     test        eax,0Fh
  004026B0: 75 0E              jne         004026C0
  004026B2: 0F BA 25 10 30 41  bt          dword ptr ds:[00413010h],1
            00 01
  004026BA: 0F 82 E0 03 00 00  jb          00402AA0
  004026C0: 0F BA 25 C8 38 41  bt          dword ptr ds:[004138C8h],0
            00 00
  004026C8: 0F 83 A9 01 00 00  jae         00402877
  004026CE: F7 C7 03 00 00 00  test        edi,3
  004026D4: 0F 85 9D 01 00 00  jne         00402877
  004026DA: F7 C6 03 00 00 00  test        esi,3
  004026E0: 0F 85 AC 01 00 00  jne         00402892
  004026E6: 0F BA E7 02        bt          edi,2
  004026EA: 73 0D              jae         004026F9
  004026EC: 8B 06              mov         eax,dword ptr [esi]
  004026EE: 83 E9 04           sub         ecx,4
  004026F1: 8D 76 04           lea         esi,[esi+4]
  004026F4: 89 07              mov         dword ptr [edi],eax
  004026F6: 8D 7F 04           lea         edi,[edi+4]
  004026F9: 0F BA E7 03        bt          edi,3
  004026FD: 73 11              jae         00402710
  004026FF: F3 0F 7E 0E        movq        xmm1,mmword ptr [esi]
  00402703: 83 E9 08           sub         ecx,8
  00402706: 8D 76 08           lea         esi,[esi+8]
  00402709: 66 0F D6 0F        movq        mmword ptr [edi],xmm1
  0040270D: 8D 7F 08           lea         edi,[edi+8]
  00402710: F7 C6 07 00 00 00  test        esi,7
  00402716: 74 65              je          0040277D
  00402718: 0F BA E6 03        bt          esi,3
  0040271C: 0F 83 B4 00 00 00  jae         004027D6
  00402722: 66 0F 6F 4E F4     movdqa      xmm1,xmmword ptr [esi-0Ch]
  00402727: 8D 76 F4           lea         esi,[esi-0Ch]
  0040272A: 8B FF              mov         edi,edi
  0040272C: 66 0F 6F 5E 10     movdqa      xmm3,xmmword ptr [esi+10h]
  00402731: 83 E9 30           sub         ecx,30h
  00402734: 66 0F 6F 46 20     movdqa      xmm0,xmmword ptr [esi+20h]
  00402739: 66 0F 6F 6E 30     movdqa      xmm5,xmmword ptr [esi+30h]
  0040273E: 8D 76 30           lea         esi,[esi+30h]
  00402741: 83 F9 30           cmp         ecx,30h
  00402744: 66 0F 6F D3        movdqa      xmm2,xmm3
  00402748: 66 0F 3A 0F D9 0C  palignr     xmm3,xmm1,0Ch
  0040274E: 66 0F 7F 1F        movdqa      xmmword ptr [edi],xmm3
  00402752: 66 0F 6F E0        movdqa      xmm4,xmm0
  00402756: 66 0F 3A 0F C2 0C  palignr     xmm0,xmm2,0Ch
  0040275C: 66 0F 7F 47 10     movdqa      xmmword ptr [edi+10h],xmm0
  00402761: 66 0F 6F CD        movdqa      xmm1,xmm5
  00402765: 66 0F 3A 0F EC 0C  palignr     xmm5,xmm4,0Ch
  0040276B: 66 0F 7F 6F 20     movdqa      xmmword ptr [edi+20h],xmm5
  00402770: 8D 7F 30           lea         edi,[edi+30h]
  00402773: 73 B7              jae         0040272C
  00402775: 8D 76 0C           lea         esi,[esi+0Ch]
  00402778: E9 AF 00 00 00     jmp         0040282C
  0040277D: 66 0F 6F 4E F8     movdqa      xmm1,xmmword ptr [esi-8]
  00402782: 8D 76 F8           lea         esi,[esi-8]
  00402785: 8D 49 00           lea         ecx,[ecx]
  00402788: 66 0F 6F 5E 10     movdqa      xmm3,xmmword ptr [esi+10h]
  0040278D: 83 E9 30           sub         ecx,30h
  00402790: 66 0F 6F 46 20     movdqa      xmm0,xmmword ptr [esi+20h]
  00402795: 66 0F 6F 6E 30     movdqa      xmm5,xmmword ptr [esi+30h]
  0040279A: 8D 76 30           lea         esi,[esi+30h]
  0040279D: 83 F9 30           cmp         ecx,30h
  004027A0: 66 0F 6F D3        movdqa      xmm2,xmm3
  004027A4: 66 0F 3A 0F D9 08  palignr     xmm3,xmm1,8
  004027AA: 66 0F 7F 1F        movdqa      xmmword ptr [edi],xmm3
  004027AE: 66 0F 6F E0        movdqa      xmm4,xmm0
  004027B2: 66 0F 3A 0F C2 08  palignr     xmm0,xmm2,8
  004027B8: 66 0F 7F 47 10     movdqa      xmmword ptr [edi+10h],xmm0
  004027BD: 66 0F 6F CD        movdqa      xmm1,xmm5
  004027C1: 66 0F 3A 0F EC 08  palignr     xmm5,xmm4,8
  004027C7: 66 0F 7F 6F 20     movdqa      xmmword ptr [edi+20h],xmm5
  004027CC: 8D 7F 30           lea         edi,[edi+30h]
  004027CF: 73 B7              jae         00402788
  004027D1: 8D 76 08           lea         esi,[esi+8]
  004027D4: EB 56              jmp         0040282C
  004027D6: 66 0F 6F 4E FC     movdqa      xmm1,xmmword ptr [esi-4]
  004027DB: 8D 76 FC           lea         esi,[esi-4]
  004027DE: 8B FF              mov         edi,edi
  004027E0: 66 0F 6F 5E 10     movdqa      xmm3,xmmword ptr [esi+10h]
  004027E5: 83 E9 30           sub         ecx,30h
  004027E8: 66 0F 6F 46 20     movdqa      xmm0,xmmword ptr [esi+20h]
  004027ED: 66 0F 6F 6E 30     movdqa      xmm5,xmmword ptr [esi+30h]
  004027F2: 8D 76 30           lea         esi,[esi+30h]
  004027F5: 83 F9 30           cmp         ecx,30h
  004027F8: 66 0F 6F D3        movdqa      xmm2,xmm3
  004027FC: 66 0F 3A 0F D9 04  palignr     xmm3,xmm1,4
  00402802: 66 0F 7F 1F        movdqa      xmmword ptr [edi],xmm3
  00402806: 66 0F 6F E0        movdqa      xmm4,xmm0
  0040280A: 66 0F 3A 0F C2 04  palignr     xmm0,xmm2,4
  00402810: 66 0F 7F 47 10     movdqa      xmmword ptr [edi+10h],xmm0
  00402815: 66 0F 6F CD        movdqa      xmm1,xmm5
  00402819: 66 0F 3A 0F EC 04  palignr     xmm5,xmm4,4
  0040281F: 66 0F 7F 6F 20     movdqa      xmmword ptr [edi+20h],xmm5
  00402824: 8D 7F 30           lea         edi,[edi+30h]
  00402827: 73 B7              jae         004027E0
  00402829: 8D 76 04           lea         esi,[esi+4]
  0040282C: 83 F9 10           cmp         ecx,10h
  0040282F: 72 13              jb          00402844
  00402831: F3 0F 6F 0E        movdqu      xmm1,xmmword ptr [esi]
  00402835: 83 E9 10           sub         ecx,10h
  00402838: 8D 76 10           lea         esi,[esi+10h]
  0040283B: 66 0F 7F 0F        movdqa      xmmword ptr [edi],xmm1
  0040283F: 8D 7F 10           lea         edi,[edi+10h]
  00402842: EB E8              jmp         0040282C
  00402844: 0F BA E1 02        bt          ecx,2
  00402848: 73 0D              jae         00402857
  0040284A: 8B 06              mov         eax,dword ptr [esi]
  0040284C: 83 E9 04           sub         ecx,4
  0040284F: 8D 76 04           lea         esi,[esi+4]
  00402852: 89 07              mov         dword ptr [edi],eax
  00402854: 8D 7F 04           lea         edi,[edi+4]
  00402857: 0F BA E1 03        bt          ecx,3
  0040285B: 73 11              jae         0040286E
  0040285D: F3 0F 7E 0E        movq        xmm1,mmword ptr [esi]
  00402861: 83 E9 08           sub         ecx,8
  00402864: 8D 76 08           lea         esi,[esi+8]
  00402867: 66 0F D6 0F        movq        mmword ptr [edi],xmm1
  0040286B: 8D 7F 08           lea         edi,[edi+8]
  0040286E: 8B 04 8D B4 28 40  mov         eax,dword ptr [ecx*4+004028B4h]
            00
  00402875: FF E0              jmp         eax
  00402877: F7 C7 03 00 00 00  test        edi,3
  0040287D: 74 13              je          00402892
  0040287F: 8A 06              mov         al,byte ptr [esi]
  00402881: 88 07              mov         byte ptr [edi],al
  00402883: 49                 dec         ecx
  00402884: 83 C6 01           add         esi,1
  00402887: 83 C7 01           add         edi,1
  0040288A: F7 C7 03 00 00 00  test        edi,3
  00402890: 75 ED              jne         0040287F
  00402892: 8B D1              mov         edx,ecx
  00402894: 83 F9 20           cmp         ecx,20h
  00402897: 0F 82 AE 02 00 00  jb          00402B4B
  0040289D: C1 E9 02           shr         ecx,2
  004028A0: F3 A5              rep movs    dword ptr es:[edi],dword ptr [esi]
  004028A2: 83 E2 03           and         edx,3
  004028A5: FF 24 95 B4 28 40  jmp         dword ptr [edx*4+004028B4h]
            00
  004028AC: FF 24 8D C4 28 40  jmp         dword ptr [ecx*4+004028C4h]
            00
  004028B3: 90                 nop
  004028B4: C4 28              les         ebp,fword ptr [eax]
  004028B6: 40                 inc         eax
  004028B7: 00 CC              add         ah,cl
  004028B9: 28 40 00           sub         byte ptr [eax],al
  004028BC: D8 28              fsubr       dword ptr [eax]
  004028BE: 40                 inc         eax
  004028BF: 00 EC              add         ah,ch
  004028C1: 28 40 00           sub         byte ptr [eax],al
  004028C4: 8B 44 24 0C        mov         eax,dword ptr [esp+0Ch]
  004028C8: 5E                 pop         esi
  004028C9: 5F                 pop         edi
  004028CA: C3                 ret
  004028CB: 90                 nop
  004028CC: 8A 06              mov         al,byte ptr [esi]
  004028CE: 88 07              mov         byte ptr [edi],al
  004028D0: 8B 44 24 0C        mov         eax,dword ptr [esp+0Ch]
  004028D4: 5E                 pop         esi
  004028D5: 5F                 pop         edi
  004028D6: C3                 ret
  004028D7: 90                 nop
  004028D8: 8A 06              mov         al,byte ptr [esi]
  004028DA: 88 07              mov         byte ptr [edi],al
  004028DC: 8A 46 01           mov         al,byte ptr [esi+1]
  004028DF: 88 47 01           mov         byte ptr [edi+1],al
  004028E2: 8B 44 24 0C        mov         eax,dword ptr [esp+0Ch]
  004028E6: 5E                 pop         esi
  004028E7: 5F                 pop         edi
  004028E8: C3                 ret
  004028E9: 8D 49 00           lea         ecx,[ecx]
  004028EC: 8A 06              mov         al,byte ptr [esi]
  004028EE: 88 07              mov         byte ptr [edi],al
  004028F0: 8A 46 01           mov         al,byte ptr [esi+1]
  004028F3: 88 47 01           mov         byte ptr [edi+1],al
  004028F6: 8A 46 02           mov         al,byte ptr [esi+2]
  004028F9: 88 47 02           mov         byte ptr [edi+2],al
  004028FC: 8B 44 24 0C        mov         eax,dword ptr [esp+0Ch]
  00402900: 5E                 pop         esi
  00402901: 5F                 pop         edi
  00402902: C3                 ret
  00402903: 90                 nop
  00402904: 8D 34 0E           lea         esi,[esi+ecx]
  00402907: 8D 3C 0F           lea         edi,[edi+ecx]
  0040290A: 83 F9 20           cmp         ecx,20h
  0040290D: 0F 82 51 01 00 00  jb          00402A64
  00402913: 0F BA 25 10 30 41  bt          dword ptr ds:[00413010h],1
            00 01
  0040291B: 0F 82 94 00 00 00  jb          004029B5
  00402921: F7 C7 03 00 00 00  test        edi,3
  00402927: 74 14              je          0040293D
  00402929: 8B D7              mov         edx,edi
  0040292B: 83 E2 03           and         edx,3
  0040292E: 2B CA              sub         ecx,edx
  00402930: 8A 46 FF           mov         al,byte ptr [esi-1]
  00402933: 88 47 FF           mov         byte ptr [edi-1],al
  00402936: 4E                 dec         esi
  00402937: 4F                 dec         edi
  00402938: 83 EA 01           sub         edx,1
  0040293B: 75 F3              jne         00402930
  0040293D: 83 F9 20           cmp         ecx,20h
  00402940: 0F 82 1E 01 00 00  jb          00402A64
  00402946: 8B D1              mov         edx,ecx
  00402948: C1 E9 02           shr         ecx,2
  0040294B: 83 E2 03           and         edx,3
  0040294E: 83 EE 04           sub         esi,4
  00402951: 83 EF 04           sub         edi,4
  00402954: FD                 std
  00402955: F3 A5              rep movs    dword ptr es:[edi],dword ptr [esi]
  00402957: FC                 cld
  00402958: FF 24 95 60 29 40  jmp         dword ptr [edx*4+00402960h]
            00
  0040295F: 90                 nop
  00402960: 70 29              jo          0040298B
  00402962: 40                 inc         eax
  00402963: 00 78 29           add         byte ptr [eax+29h],bh
  00402966: 40                 inc         eax
  00402967: 00 88 29 40 00 9C  add         byte ptr [eax+9C004029h],cl
  0040296D: 29 40 00           sub         dword ptr [eax],eax
  00402970: 8B 44 24 0C        mov         eax,dword ptr [esp+0Ch]
  00402974: 5E                 pop         esi
  00402975: 5F                 pop         edi
  00402976: C3                 ret
  00402977: 90                 nop
  00402978: 8A 46 03           mov         al,byte ptr [esi+3]
  0040297B: 88 47 03           mov         byte ptr [edi+3],al
  0040297E: 8B 44 24 0C        mov         eax,dword ptr [esp+0Ch]
  00402982: 5E                 pop         esi
  00402983: 5F                 pop         edi
  00402984: C3                 ret
  00402985: 8D 49 00           lea         ecx,[ecx]
  00402988: 8A 46 03           mov         al,byte ptr [esi+3]
  0040298B: 88 47 03           mov         byte ptr [edi+3],al
  0040298E: 8A 46 02           mov         al,byte ptr [esi+2]
  00402991: 88 47 02           mov         byte ptr [edi+2],al
  00402994: 8B 44 24 0C        mov         eax,dword ptr [esp+0Ch]
  00402998: 5E                 pop         esi
  00402999: 5F                 pop         edi
  0040299A: C3                 ret
  0040299B: 90                 nop
  0040299C: 8A 46 03           mov         al,byte ptr [esi+3]
  0040299F: 88 47 03           mov         byte ptr [edi+3],al
  004029A2: 8A 46 02           mov         al,byte ptr [esi+2]
  004029A5: 88 47 02           mov         byte ptr [edi+2],al
  004029A8: 8A 46 01           mov         al,byte ptr [esi+1]
  004029AB: 88 47 01           mov         byte ptr [edi+1],al
  004029AE: 8B 44 24 0C        mov         eax,dword ptr [esp+0Ch]
  004029B2: 5E                 pop         esi
  004029B3: 5F                 pop         edi
  004029B4: C3                 ret
  004029B5: F7 C7 0F 00 00 00  test        edi,0Fh
  004029BB: 74 0F              je          004029CC
  004029BD: 49                 dec         ecx
  004029BE: 4E                 dec         esi
  004029BF: 4F                 dec         edi
  004029C0: 8A 06              mov         al,byte ptr [esi]
  004029C2: 88 07              mov         byte ptr [edi],al
  004029C4: F7 C7 0F 00 00 00  test        edi,0Fh
  004029CA: 75 F1              jne         004029BD
  004029CC: 81 F9 80 00 00 00  cmp         ecx,80h
  004029D2: 72 68              jb          00402A3C
  004029D4: 81 EE 80 00 00 00  sub         esi,80h
  004029DA: 81 EF 80 00 00 00  sub         edi,80h
  004029E0: F3 0F 6F 06        movdqu      xmm0,xmmword ptr [esi]
  004029E4: F3 0F 6F 4E 10     movdqu      xmm1,xmmword ptr [esi+10h]
  004029E9: F3 0F 6F 56 20     movdqu      xmm2,xmmword ptr [esi+20h]
  004029EE: F3 0F 6F 5E 30     movdqu      xmm3,xmmword ptr [esi+30h]
  004029F3: F3 0F 6F 66 40     movdqu      xmm4,xmmword ptr [esi+40h]
  004029F8: F3 0F 6F 6E 50     movdqu      xmm5,xmmword ptr [esi+50h]
  004029FD: F3 0F 6F 76 60     movdqu      xmm6,xmmword ptr [esi+60h]
  00402A02: F3 0F 6F 7E 70     movdqu      xmm7,xmmword ptr [esi+70h]
  00402A07: F3 0F 7F 07        movdqu      xmmword ptr [edi],xmm0
  00402A0B: F3 0F 7F 4F 10     movdqu      xmmword ptr [edi+10h],xmm1
  00402A10: F3 0F 7F 57 20     movdqu      xmmword ptr [edi+20h],xmm2
  00402A15: F3 0F 7F 5F 30     movdqu      xmmword ptr [edi+30h],xmm3
  00402A1A: F3 0F 7F 67 40     movdqu      xmmword ptr [edi+40h],xmm4
  00402A1F: F3 0F 7F 6F 50     movdqu      xmmword ptr [edi+50h],xmm5
  00402A24: F3 0F 7F 77 60     movdqu      xmmword ptr [edi+60h],xmm6
  00402A29: F3 0F 7F 7F 70     movdqu      xmmword ptr [edi+70h],xmm7
  00402A2E: 81 E9 80 00 00 00  sub         ecx,80h
  00402A34: F7 C1 80 FF FF FF  test        ecx,0FFFFFF80h
  00402A3A: 75 90              jne         004029CC
  00402A3C: 83 F9 20           cmp         ecx,20h
  00402A3F: 72 23              jb          00402A64
  00402A41: 83 EE 20           sub         esi,20h
  00402A44: 83 EF 20           sub         edi,20h
  00402A47: F3 0F 6F 06        movdqu      xmm0,xmmword ptr [esi]
  00402A4B: F3 0F 6F 4E 10     movdqu      xmm1,xmmword ptr [esi+10h]
  00402A50: F3 0F 7F 07        movdqu      xmmword ptr [edi],xmm0
  00402A54: F3 0F 7F 4F 10     movdqu      xmmword ptr [edi+10h],xmm1
  00402A59: 83 E9 20           sub         ecx,20h
  00402A5C: F7 C1 E0 FF FF FF  test        ecx,0FFFFFFE0h
  00402A62: 75 DD              jne         00402A41
  00402A64: F7 C1 FC FF FF FF  test        ecx,0FFFFFFFCh
  00402A6A: 74 15              je          00402A81
  00402A6C: 83 EF 04           sub         edi,4
  00402A6F: 83 EE 04           sub         esi,4
  00402A72: 8B 06              mov         eax,dword ptr [esi]
  00402A74: 89 07              mov         dword ptr [edi],eax
  00402A76: 83 E9 04           sub         ecx,4
  00402A79: F7 C1 FC FF FF FF  test        ecx,0FFFFFFFCh
  00402A7F: 75 EB              jne         00402A6C
  00402A81: 85 C9              test        ecx,ecx
  00402A83: 74 0F              je          00402A94
  00402A85: 83 EF 01           sub         edi,1
  00402A88: 83 EE 01           sub         esi,1
  00402A8B: 8A 06              mov         al,byte ptr [esi]
  00402A8D: 88 07              mov         byte ptr [edi],al
  00402A8F: 83 E9 01           sub         ecx,1
  00402A92: 75 F1              jne         00402A85
  00402A94: 8B 44 24 0C        mov         eax,dword ptr [esp+0Ch]
  00402A98: 5E                 pop         esi
  00402A99: 5F                 pop         edi
  00402A9A: C3                 ret
  00402A9B: EB 03              jmp         00402AA0
  00402A9D: CC                 int         3
  00402A9E: CC                 int         3
  00402A9F: CC                 int         3
  00402AA0: 8B C6              mov         eax,esi
  00402AA2: 83 E0 0F           and         eax,0Fh
  00402AA5: 85 C0              test        eax,eax
  00402AA7: 0F 85 E3 00 00 00  jne         00402B90
  00402AAD: 8B D1              mov         edx,ecx
  00402AAF: 83 E1 7F           and         ecx,7Fh
  00402AB2: C1 EA 07           shr         edx,7
  00402AB5: 74 66              je          00402B1D
  00402AB7: 8D A4 24 00 00 00  lea         esp,[esp+00000000h]
            00
  00402ABE: 8B FF              mov         edi,edi
  00402AC0: 66 0F 6F 06        movdqa      xmm0,xmmword ptr [esi]
  00402AC4: 66 0F 6F 4E 10     movdqa      xmm1,xmmword ptr [esi+10h]
  00402AC9: 66 0F 6F 56 20     movdqa      xmm2,xmmword ptr [esi+20h]
  00402ACE: 66 0F 6F 5E 30     movdqa      xmm3,xmmword ptr [esi+30h]
  00402AD3: 66 0F 7F 07        movdqa      xmmword ptr [edi],xmm0
  00402AD7: 66 0F 7F 4F 10     movdqa      xmmword ptr [edi+10h],xmm1
  00402ADC: 66 0F 7F 57 20     movdqa      xmmword ptr [edi+20h],xmm2
  00402AE1: 66 0F 7F 5F 30     movdqa      xmmword ptr [edi+30h],xmm3
  00402AE6: 66 0F 6F 66 40     movdqa      xmm4,xmmword ptr [esi+40h]
  00402AEB: 66 0F 6F 6E 50     movdqa      xmm5,xmmword ptr [esi+50h]
  00402AF0: 66 0F 6F 76 60     movdqa      xmm6,xmmword ptr [esi+60h]
  00402AF5: 66 0F 6F 7E 70     movdqa      xmm7,xmmword ptr [esi+70h]
  00402AFA: 66 0F 7F 67 40     movdqa      xmmword ptr [edi+40h],xmm4
  00402AFF: 66 0F 7F 6F 50     movdqa      xmmword ptr [edi+50h],xmm5
  00402B04: 66 0F 7F 77 60     movdqa      xmmword ptr [edi+60h],xmm6
  00402B09: 66 0F 7F 7F 70     movdqa      xmmword ptr [edi+70h],xmm7
  00402B0E: 8D B6 80 00 00 00  lea         esi,[esi+00000080h]
  00402B14: 8D BF 80 00 00 00  lea         edi,[edi+00000080h]
  00402B1A: 4A                 dec         edx
  00402B1B: 75 A3              jne         00402AC0
  00402B1D: 85 C9              test        ecx,ecx
  00402B1F: 74 5F              je          00402B80
  00402B21: 8B D1              mov         edx,ecx
  00402B23: C1 EA 05           shr         edx,5
  00402B26: 85 D2              test        edx,edx
  00402B28: 74 21              je          00402B4B
  00402B2A: 8D 9B 00 00 00 00  lea         ebx,[ebx+00000000h]
  00402B30: F3 0F 6F 06        movdqu      xmm0,xmmword ptr [esi]
  00402B34: F3 0F 6F 4E 10     movdqu      xmm1,xmmword ptr [esi+10h]
  00402B39: F3 0F 7F 07        movdqu      xmmword ptr [edi],xmm0
  00402B3D: F3 0F 7F 4F 10     movdqu      xmmword ptr [edi+10h],xmm1
  00402B42: 8D 76 20           lea         esi,[esi+20h]
  00402B45: 8D 7F 20           lea         edi,[edi+20h]
  00402B48: 4A                 dec         edx
  00402B49: 75 E5              jne         00402B30
  00402B4B: 83 E1 1F           and         ecx,1Fh
  00402B4E: 74 30              je          00402B80
  00402B50: 8B C1              mov         eax,ecx
  00402B52: C1 E9 02           shr         ecx,2
  00402B55: 74 0F              je          00402B66
  00402B57: 8B 16              mov         edx,dword ptr [esi]
  00402B59: 89 17              mov         dword ptr [edi],edx
  00402B5B: 83 C7 04           add         edi,4
  00402B5E: 83 C6 04           add         esi,4
  00402B61: 83 E9 01           sub         ecx,1
  00402B64: 75 F1              jne         00402B57
  00402B66: 8B C8              mov         ecx,eax
  00402B68: 83 E1 03           and         ecx,3
  00402B6B: 74 13              je          00402B80
  00402B6D: 8A 06              mov         al,byte ptr [esi]
  00402B6F: 88 07              mov         byte ptr [edi],al
  00402B71: 46                 inc         esi
  00402B72: 47                 inc         edi
  00402B73: 49                 dec         ecx
  00402B74: 75 F7              jne         00402B6D
  00402B76: 8D A4 24 00 00 00  lea         esp,[esp+00000000h]
            00
  00402B7D: 8D 49 00           lea         ecx,[ecx]
  00402B80: 8B 44 24 0C        mov         eax,dword ptr [esp+0Ch]
  00402B84: 5E                 pop         esi
  00402B85: 5F                 pop         edi
  00402B86: C3                 ret
  00402B87: 8D A4 24 00 00 00  lea         esp,[esp+00000000h]
            00
  00402B8E: 8B FF              mov         edi,edi
  00402B90: BA 10 00 00 00     mov         edx,10h
  00402B95: 2B D0              sub         edx,eax
  00402B97: 2B CA              sub         ecx,edx
  00402B99: 51                 push        ecx
  00402B9A: 8B C2              mov         eax,edx
  00402B9C: 8B C8              mov         ecx,eax
  00402B9E: 83 E1 03           and         ecx,3
  00402BA1: 74 09              je          00402BAC
  00402BA3: 8A 16              mov         dl,byte ptr [esi]
  00402BA5: 88 17              mov         byte ptr [edi],dl
  00402BA7: 46                 inc         esi
  00402BA8: 47                 inc         edi
  00402BA9: 49                 dec         ecx
  00402BAA: 75 F7              jne         00402BA3
  00402BAC: C1 E8 02           shr         eax,2
  00402BAF: 74 0D              je          00402BBE
  00402BB1: 8B 16              mov         edx,dword ptr [esi]
  00402BB3: 89 17              mov         dword ptr [edi],edx
  00402BB5: 8D 76 04           lea         esi,[esi+4]
  00402BB8: 8D 7F 04           lea         edi,[edi+4]
  00402BBB: 48                 dec         eax
  00402BBC: 75 F3              jne         00402BB1
  00402BBE: 59                 pop         ecx
  00402BBF: E9 E9 FE FF FF     jmp         00402AAD
  00402BC4: CC                 int         3
  00402BC5: CC                 int         3
  00402BC6: CC                 int         3
  00402BC7: CC                 int         3
  00402BC8: CC                 int         3
  00402BC9: CC                 int         3
  00402BCA: CC                 int         3
  00402BCB: CC                 int         3
  00402BCC: CC                 int         3
  00402BCD: CC                 int         3
  00402BCE: CC                 int         3
  00402BCF: CC                 int         3
  00402BD0: 55                 push        ebp
  00402BD1: 8B EC              mov         ebp,esp
  00402BD3: 83 EC 04           sub         esp,4
  00402BD6: 53                 push        ebx
  00402BD7: 51                 push        ecx
  00402BD8: 8B 45 0C           mov         eax,dword ptr [ebp+0Ch]
  00402BDB: 83 C0 0C           add         eax,0Ch
  00402BDE: 89 45 FC           mov         dword ptr [ebp-4],eax
  00402BE1: 8B 45 08           mov         eax,dword ptr [ebp+8]
  00402BE4: 55                 push        ebp
  00402BE5: FF 75 10           push        dword ptr [ebp+10h]
  00402BE8: 8B 4D 10           mov         ecx,dword ptr [ebp+10h]
  00402BEB: 8B 6D FC           mov         ebp,dword ptr [ebp-4]
  00402BEE: E8 0D F8 FF FF     call        00402400
  00402BF3: 56                 push        esi
  00402BF4: 57                 push        edi
  00402BF5: FF D0              call        eax
  00402BF7: 5F                 pop         edi
  00402BF8: 5E                 pop         esi
  00402BF9: 8B DD              mov         ebx,ebp
  00402BFB: 5D                 pop         ebp
  00402BFC: 8B 4D 10           mov         ecx,dword ptr [ebp+10h]
  00402BFF: 55                 push        ebp
  00402C00: 8B EB              mov         ebp,ebx
  00402C02: 81 F9 00 01 00 00  cmp         ecx,100h
  00402C08: 75 05              jne         00402C0F
  00402C0A: B9 02 00 00 00     mov         ecx,2
  00402C0F: 51                 push        ecx
  00402C10: E8 EB F7 FF FF     call        00402400
  00402C15: 5D                 pop         ebp
  00402C16: 59                 pop         ecx
  00402C17: 5B                 pop         ebx
  00402C18: C9                 leave
  00402C19: C2 0C 00           ret         0Ch
  00402C1C: CC                 int         3
  00402C1D: CC                 int         3
  00402C1E: CC                 int         3
  00402C1F: CC                 int         3
  00402C20: 57                 push        edi
  00402C21: 56                 push        esi
  00402C22: 8B 74 24 10        mov         esi,dword ptr [esp+10h]
  00402C26: 8B 4C 24 14        mov         ecx,dword ptr [esp+14h]
  00402C2A: 8B 7C 24 0C        mov         edi,dword ptr [esp+0Ch]
  00402C2E: 8B C1              mov         eax,ecx
  00402C30: 8B D1              mov         edx,ecx
  00402C32: 03 C6              add         eax,esi
  00402C34: 3B FE              cmp         edi,esi
  00402C36: 76 08              jbe         00402C40
  00402C38: 3B F8              cmp         edi,eax
  00402C3A: 0F 82 94 02 00 00  jb          00402ED4
  00402C40: 83 F9 20           cmp         ecx,20h
  00402C43: 0F 82 D2 04 00 00  jb          0040311B
  00402C49: 81 F9 80 00 00 00  cmp         ecx,80h
  00402C4F: 73 13              jae         00402C64
  00402C51: 0F BA 25 10 30 41  bt          dword ptr ds:[00413010h],1
            00 01
  00402C59: 0F 82 8E 04 00 00  jb          004030ED
  00402C5F: E9 E3 01 00 00     jmp         00402E47
  00402C64: 0F BA 25 C8 38 41  bt          dword ptr ds:[004138C8h],1
            00 01
  00402C6C: 73 09              jae         00402C77
  00402C6E: F3 A4              rep movs    byte ptr es:[edi],byte ptr [esi]
  00402C70: 8B 44 24 0C        mov         eax,dword ptr [esp+0Ch]
  00402C74: 5E                 pop         esi
  00402C75: 5F                 pop         edi
  00402C76: C3                 ret
  00402C77: 8B C7              mov         eax,edi
  00402C79: 33 C6              xor         eax,esi
  00402C7B: A9 0F 00 00 00     test        eax,0Fh
  00402C80: 75 0E              jne         00402C90
  00402C82: 0F BA 25 10 30 41  bt          dword ptr ds:[00413010h],1
            00 01
  00402C8A: 0F 82 E0 03 00 00  jb          00403070
  00402C90: 0F BA 25 C8 38 41  bt          dword ptr ds:[004138C8h],0
            00 00
  00402C98: 0F 83 A9 01 00 00  jae         00402E47
  00402C9E: F7 C7 03 00 00 00  test        edi,3
  00402CA4: 0F 85 9D 01 00 00  jne         00402E47
  00402CAA: F7 C6 03 00 00 00  test        esi,3
  00402CB0: 0F 85 AC 01 00 00  jne         00402E62
  00402CB6: 0F BA E7 02        bt          edi,2
  00402CBA: 73 0D              jae         00402CC9
  00402CBC: 8B 06              mov         eax,dword ptr [esi]
  00402CBE: 83 E9 04           sub         ecx,4
  00402CC1: 8D 76 04           lea         esi,[esi+4]
  00402CC4: 89 07              mov         dword ptr [edi],eax
  00402CC6: 8D 7F 04           lea         edi,[edi+4]
  00402CC9: 0F BA E7 03        bt          edi,3
  00402CCD: 73 11              jae         00402CE0
  00402CCF: F3 0F 7E 0E        movq        xmm1,mmword ptr [esi]
  00402CD3: 83 E9 08           sub         ecx,8
  00402CD6: 8D 76 08           lea         esi,[esi+8]
  00402CD9: 66 0F D6 0F        movq        mmword ptr [edi],xmm1
  00402CDD: 8D 7F 08           lea         edi,[edi+8]
  00402CE0: F7 C6 07 00 00 00  test        esi,7
  00402CE6: 74 65              je          00402D4D
  00402CE8: 0F BA E6 03        bt          esi,3
  00402CEC: 0F 83 B4 00 00 00  jae         00402DA6
  00402CF2: 66 0F 6F 4E F4     movdqa      xmm1,xmmword ptr [esi-0Ch]
  00402CF7: 8D 76 F4           lea         esi,[esi-0Ch]
  00402CFA: 8B FF              mov         edi,edi
  00402CFC: 66 0F 6F 5E 10     movdqa      xmm3,xmmword ptr [esi+10h]
  00402D01: 83 E9 30           sub         ecx,30h
  00402D04: 66 0F 6F 46 20     movdqa      xmm0,xmmword ptr [esi+20h]
  00402D09: 66 0F 6F 6E 30     movdqa      xmm5,xmmword ptr [esi+30h]
  00402D0E: 8D 76 30           lea         esi,[esi+30h]
  00402D11: 83 F9 30           cmp         ecx,30h
  00402D14: 66 0F 6F D3        movdqa      xmm2,xmm3
  00402D18: 66 0F 3A 0F D9 0C  palignr     xmm3,xmm1,0Ch
  00402D1E: 66 0F 7F 1F        movdqa      xmmword ptr [edi],xmm3
  00402D22: 66 0F 6F E0        movdqa      xmm4,xmm0
  00402D26: 66 0F 3A 0F C2 0C  palignr     xmm0,xmm2,0Ch
  00402D2C: 66 0F 7F 47 10     movdqa      xmmword ptr [edi+10h],xmm0
  00402D31: 66 0F 6F CD        movdqa      xmm1,xmm5
  00402D35: 66 0F 3A 0F EC 0C  palignr     xmm5,xmm4,0Ch
  00402D3B: 66 0F 7F 6F 20     movdqa      xmmword ptr [edi+20h],xmm5
  00402D40: 8D 7F 30           lea         edi,[edi+30h]
  00402D43: 73 B7              jae         00402CFC
  00402D45: 8D 76 0C           lea         esi,[esi+0Ch]
  00402D48: E9 AF 00 00 00     jmp         00402DFC
  00402D4D: 66 0F 6F 4E F8     movdqa      xmm1,xmmword ptr [esi-8]
  00402D52: 8D 76 F8           lea         esi,[esi-8]
  00402D55: 8D 49 00           lea         ecx,[ecx]
  00402D58: 66 0F 6F 5E 10     movdqa      xmm3,xmmword ptr [esi+10h]
  00402D5D: 83 E9 30           sub         ecx,30h
  00402D60: 66 0F 6F 46 20     movdqa      xmm0,xmmword ptr [esi+20h]
  00402D65: 66 0F 6F 6E 30     movdqa      xmm5,xmmword ptr [esi+30h]
  00402D6A: 8D 76 30           lea         esi,[esi+30h]
  00402D6D: 83 F9 30           cmp         ecx,30h
  00402D70: 66 0F 6F D3        movdqa      xmm2,xmm3
  00402D74: 66 0F 3A 0F D9 08  palignr     xmm3,xmm1,8
  00402D7A: 66 0F 7F 1F        movdqa      xmmword ptr [edi],xmm3
  00402D7E: 66 0F 6F E0        movdqa      xmm4,xmm0
  00402D82: 66 0F 3A 0F C2 08  palignr     xmm0,xmm2,8
  00402D88: 66 0F 7F 47 10     movdqa      xmmword ptr [edi+10h],xmm0
  00402D8D: 66 0F 6F CD        movdqa      xmm1,xmm5
  00402D91: 66 0F 3A 0F EC 08  palignr     xmm5,xmm4,8
  00402D97: 66 0F 7F 6F 20     movdqa      xmmword ptr [edi+20h],xmm5
  00402D9C: 8D 7F 30           lea         edi,[edi+30h]
  00402D9F: 73 B7              jae         00402D58
  00402DA1: 8D 76 08           lea         esi,[esi+8]
  00402DA4: EB 56              jmp         00402DFC
  00402DA6: 66 0F 6F 4E FC     movdqa      xmm1,xmmword ptr [esi-4]
  00402DAB: 8D 76 FC           lea         esi,[esi-4]
  00402DAE: 8B FF              mov         edi,edi
  00402DB0: 66 0F 6F 5E 10     movdqa      xmm3,xmmword ptr [esi+10h]
  00402DB5: 83 E9 30           sub         ecx,30h
  00402DB8: 66 0F 6F 46 20     movdqa      xmm0,xmmword ptr [esi+20h]
  00402DBD: 66 0F 6F 6E 30     movdqa      xmm5,xmmword ptr [esi+30h]
  00402DC2: 8D 76 30           lea         esi,[esi+30h]
  00402DC5: 83 F9 30           cmp         ecx,30h
  00402DC8: 66 0F 6F D3        movdqa      xmm2,xmm3
  00402DCC: 66 0F 3A 0F D9 04  palignr     xmm3,xmm1,4
  00402DD2: 66 0F 7F 1F        movdqa      xmmword ptr [edi],xmm3
  00402DD6: 66 0F 6F E0        movdqa      xmm4,xmm0
  00402DDA: 66 0F 3A 0F C2 04  palignr     xmm0,xmm2,4
  00402DE0: 66 0F 7F 47 10     movdqa      xmmword ptr [edi+10h],xmm0
  00402DE5: 66 0F 6F CD        movdqa      xmm1,xmm5
  00402DE9: 66 0F 3A 0F EC 04  palignr     xmm5,xmm4,4
  00402DEF: 66 0F 7F 6F 20     movdqa      xmmword ptr [edi+20h],xmm5
  00402DF4: 8D 7F 30           lea         edi,[edi+30h]
  00402DF7: 73 B7              jae         00402DB0
  00402DF9: 8D 76 04           lea         esi,[esi+4]
  00402DFC: 83 F9 10           cmp         ecx,10h
  00402DFF: 72 13              jb          00402E14
  00402E01: F3 0F 6F 0E        movdqu      xmm1,xmmword ptr [esi]
  00402E05: 83 E9 10           sub         ecx,10h
  00402E08: 8D 76 10           lea         esi,[esi+10h]
  00402E0B: 66 0F 7F 0F        movdqa      xmmword ptr [edi],xmm1
  00402E0F: 8D 7F 10           lea         edi,[edi+10h]
  00402E12: EB E8              jmp         00402DFC
  00402E14: 0F BA E1 02        bt          ecx,2
  00402E18: 73 0D              jae         00402E27
  00402E1A: 8B 06              mov         eax,dword ptr [esi]
  00402E1C: 83 E9 04           sub         ecx,4
  00402E1F: 8D 76 04           lea         esi,[esi+4]
  00402E22: 89 07              mov         dword ptr [edi],eax
  00402E24: 8D 7F 04           lea         edi,[edi+4]
  00402E27: 0F BA E1 03        bt          ecx,3
  00402E2B: 73 11              jae         00402E3E
  00402E2D: F3 0F 7E 0E        movq        xmm1,mmword ptr [esi]
  00402E31: 83 E9 08           sub         ecx,8
  00402E34: 8D 76 08           lea         esi,[esi+8]
  00402E37: 66 0F D6 0F        movq        mmword ptr [edi],xmm1
  00402E3B: 8D 7F 08           lea         edi,[edi+8]
  00402E3E: 8B 04 8D 84 2E 40  mov         eax,dword ptr [ecx*4+00402E84h]
            00
  00402E45: FF E0              jmp         eax
  00402E47: F7 C7 03 00 00 00  test        edi,3
  00402E4D: 74 13              je          00402E62
  00402E4F: 8A 06              mov         al,byte ptr [esi]
  00402E51: 88 07              mov         byte ptr [edi],al
  00402E53: 49                 dec         ecx
  00402E54: 83 C6 01           add         esi,1
  00402E57: 83 C7 01           add         edi,1
  00402E5A: F7 C7 03 00 00 00  test        edi,3
  00402E60: 75 ED              jne         00402E4F
  00402E62: 8B D1              mov         edx,ecx
  00402E64: 83 F9 20           cmp         ecx,20h
  00402E67: 0F 82 AE 02 00 00  jb          0040311B
  00402E6D: C1 E9 02           shr         ecx,2
  00402E70: F3 A5              rep movs    dword ptr es:[edi],dword ptr [esi]
  00402E72: 83 E2 03           and         edx,3
  00402E75: FF 24 95 84 2E 40  jmp         dword ptr [edx*4+00402E84h]
            00
  00402E7C: FF 24 8D 94 2E 40  jmp         dword ptr [ecx*4+00402E94h]
            00
  00402E83: 90                 nop
  00402E84: 94                 xchg        eax,esp
  00402E85: 2E 40              inc         eax
  00402E87: 00 9C 2E 40 00 A8  add         byte ptr [esi+ebp+2EA80040h],bl
            2E
  00402E8E: 40                 inc         eax
  00402E8F: 00 BC 2E 40 00 8B  add         byte ptr [esi+ebp+448B0040h],bh
            44
  00402E96: 24 0C              and         al,0Ch
  00402E98: 5E                 pop         esi
  00402E99: 5F                 pop         edi
  00402E9A: C3                 ret
  00402E9B: 90                 nop
  00402E9C: 8A 06              mov         al,byte ptr [esi]
  00402E9E: 88 07              mov         byte ptr [edi],al
  00402EA0: 8B 44 24 0C        mov         eax,dword ptr [esp+0Ch]
  00402EA4: 5E                 pop         esi
  00402EA5: 5F                 pop         edi
  00402EA6: C3                 ret
  00402EA7: 90                 nop
  00402EA8: 8A 06              mov         al,byte ptr [esi]
  00402EAA: 88 07              mov         byte ptr [edi],al
  00402EAC: 8A 46 01           mov         al,byte ptr [esi+1]
  00402EAF: 88 47 01           mov         byte ptr [edi+1],al
  00402EB2: 8B 44 24 0C        mov         eax,dword ptr [esp+0Ch]
  00402EB6: 5E                 pop         esi
  00402EB7: 5F                 pop         edi
  00402EB8: C3                 ret
  00402EB9: 8D 49 00           lea         ecx,[ecx]
  00402EBC: 8A 06              mov         al,byte ptr [esi]
  00402EBE: 88 07              mov         byte ptr [edi],al
  00402EC0: 8A 46 01           mov         al,byte ptr [esi+1]
  00402EC3: 88 47 01           mov         byte ptr [edi+1],al
  00402EC6: 8A 46 02           mov         al,byte ptr [esi+2]
  00402EC9: 88 47 02           mov         byte ptr [edi+2],al
  00402ECC: 8B 44 24 0C        mov         eax,dword ptr [esp+0Ch]
  00402ED0: 5E                 pop         esi
  00402ED1: 5F                 pop         edi
  00402ED2: C3                 ret
  00402ED3: 90                 nop
  00402ED4: 8D 34 0E           lea         esi,[esi+ecx]
  00402ED7: 8D 3C 0F           lea         edi,[edi+ecx]
  00402EDA: 83 F9 20           cmp         ecx,20h
  00402EDD: 0F 82 51 01 00 00  jb          00403034
  00402EE3: 0F BA 25 10 30 41  bt          dword ptr ds:[00413010h],1
            00 01
  00402EEB: 0F 82 94 00 00 00  jb          00402F85
  00402EF1: F7 C7 03 00 00 00  test        edi,3
  00402EF7: 74 14              je          00402F0D
  00402EF9: 8B D7              mov         edx,edi
  00402EFB: 83 E2 03           and         edx,3
  00402EFE: 2B CA              sub         ecx,edx
  00402F00: 8A 46 FF           mov         al,byte ptr [esi-1]
  00402F03: 88 47 FF           mov         byte ptr [edi-1],al
  00402F06: 4E                 dec         esi
  00402F07: 4F                 dec         edi
  00402F08: 83 EA 01           sub         edx,1
  00402F0B: 75 F3              jne         00402F00
  00402F0D: 83 F9 20           cmp         ecx,20h
  00402F10: 0F 82 1E 01 00 00  jb          00403034
  00402F16: 8B D1              mov         edx,ecx
  00402F18: C1 E9 02           shr         ecx,2
  00402F1B: 83 E2 03           and         edx,3
  00402F1E: 83 EE 04           sub         esi,4
  00402F21: 83 EF 04           sub         edi,4
  00402F24: FD                 std
  00402F25: F3 A5              rep movs    dword ptr es:[edi],dword ptr [esi]
  00402F27: FC                 cld
  00402F28: FF 24 95 30 2F 40  jmp         dword ptr [edx*4+00402F30h]
            00
  00402F2F: 90                 nop
  00402F30: 40                 inc         eax
  00402F31: 2F                 das
  00402F32: 40                 inc         eax
  00402F33: 00 48 2F           add         byte ptr [eax+2Fh],cl
  00402F36: 40                 inc         eax
  00402F37: 00 58 2F           add         byte ptr [eax+2Fh],bl
  00402F3A: 40                 inc         eax
  00402F3B: 00 6C 2F 40        add         byte ptr [edi+ebp+40h],ch
  00402F3F: 00 8B 44 24 0C 5E  add         byte ptr [ebx+5E0C2444h],cl
  00402F45: 5F                 pop         edi
  00402F46: C3                 ret
  00402F47: 90                 nop
  00402F48: 8A 46 03           mov         al,byte ptr [esi+3]
  00402F4B: 88 47 03           mov         byte ptr [edi+3],al
  00402F4E: 8B 44 24 0C        mov         eax,dword ptr [esp+0Ch]
  00402F52: 5E                 pop         esi
  00402F53: 5F                 pop         edi
  00402F54: C3                 ret
  00402F55: 8D 49 00           lea         ecx,[ecx]
  00402F58: 8A 46 03           mov         al,byte ptr [esi+3]
  00402F5B: 88 47 03           mov         byte ptr [edi+3],al
  00402F5E: 8A 46 02           mov         al,byte ptr [esi+2]
  00402F61: 88 47 02           mov         byte ptr [edi+2],al
  00402F64: 8B 44 24 0C        mov         eax,dword ptr [esp+0Ch]
  00402F68: 5E                 pop         esi
  00402F69: 5F                 pop         edi
  00402F6A: C3                 ret
  00402F6B: 90                 nop
  00402F6C: 8A 46 03           mov         al,byte ptr [esi+3]
  00402F6F: 88 47 03           mov         byte ptr [edi+3],al
  00402F72: 8A 46 02           mov         al,byte ptr [esi+2]
  00402F75: 88 47 02           mov         byte ptr [edi+2],al
  00402F78: 8A 46 01           mov         al,byte ptr [esi+1]
  00402F7B: 88 47 01           mov         byte ptr [edi+1],al
  00402F7E: 8B 44 24 0C        mov         eax,dword ptr [esp+0Ch]
  00402F82: 5E                 pop         esi
  00402F83: 5F                 pop         edi
  00402F84: C3                 ret
  00402F85: F7 C7 0F 00 00 00  test        edi,0Fh
  00402F8B: 74 0F              je          00402F9C
  00402F8D: 49                 dec         ecx
  00402F8E: 4E                 dec         esi
  00402F8F: 4F                 dec         edi
  00402F90: 8A 06              mov         al,byte ptr [esi]
  00402F92: 88 07              mov         byte ptr [edi],al
  00402F94: F7 C7 0F 00 00 00  test        edi,0Fh
  00402F9A: 75 F1              jne         00402F8D
  00402F9C: 81 F9 80 00 00 00  cmp         ecx,80h
  00402FA2: 72 68              jb          0040300C
  00402FA4: 81 EE 80 00 00 00  sub         esi,80h
  00402FAA: 81 EF 80 00 00 00  sub         edi,80h
  00402FB0: F3 0F 6F 06        movdqu      xmm0,xmmword ptr [esi]
  00402FB4: F3 0F 6F 4E 10     movdqu      xmm1,xmmword ptr [esi+10h]
  00402FB9: F3 0F 6F 56 20     movdqu      xmm2,xmmword ptr [esi+20h]
  00402FBE: F3 0F 6F 5E 30     movdqu      xmm3,xmmword ptr [esi+30h]
  00402FC3: F3 0F 6F 66 40     movdqu      xmm4,xmmword ptr [esi+40h]
  00402FC8: F3 0F 6F 6E 50     movdqu      xmm5,xmmword ptr [esi+50h]
  00402FCD: F3 0F 6F 76 60     movdqu      xmm6,xmmword ptr [esi+60h]
  00402FD2: F3 0F 6F 7E 70     movdqu      xmm7,xmmword ptr [esi+70h]
  00402FD7: F3 0F 7F 07        movdqu      xmmword ptr [edi],xmm0
  00402FDB: F3 0F 7F 4F 10     movdqu      xmmword ptr [edi+10h],xmm1
  00402FE0: F3 0F 7F 57 20     movdqu      xmmword ptr [edi+20h],xmm2
  00402FE5: F3 0F 7F 5F 30     movdqu      xmmword ptr [edi+30h],xmm3
  00402FEA: F3 0F 7F 67 40     movdqu      xmmword ptr [edi+40h],xmm4
  00402FEF: F3 0F 7F 6F 50     movdqu      xmmword ptr [edi+50h],xmm5
  00402FF4: F3 0F 7F 77 60     movdqu      xmmword ptr [edi+60h],xmm6
  00402FF9: F3 0F 7F 7F 70     movdqu      xmmword ptr [edi+70h],xmm7
  00402FFE: 81 E9 80 00 00 00  sub         ecx,80h
  00403004: F7 C1 80 FF FF FF  test        ecx,0FFFFFF80h
  0040300A: 75 90              jne         00402F9C
  0040300C: 83 F9 20           cmp         ecx,20h
  0040300F: 72 23              jb          00403034
  00403011: 83 EE 20           sub         esi,20h
  00403014: 83 EF 20           sub         edi,20h
  00403017: F3 0F 6F 06        movdqu      xmm0,xmmword ptr [esi]
  0040301B: F3 0F 6F 4E 10     movdqu      xmm1,xmmword ptr [esi+10h]
  00403020: F3 0F 7F 07        movdqu      xmmword ptr [edi],xmm0
  00403024: F3 0F 7F 4F 10     movdqu      xmmword ptr [edi+10h],xmm1
  00403029: 83 E9 20           sub         ecx,20h
  0040302C: F7 C1 E0 FF FF FF  test        ecx,0FFFFFFE0h
  00403032: 75 DD              jne         00403011
  00403034: F7 C1 FC FF FF FF  test        ecx,0FFFFFFFCh
  0040303A: 74 15              je          00403051
  0040303C: 83 EF 04           sub         edi,4
  0040303F: 83 EE 04           sub         esi,4
  00403042: 8B 06              mov         eax,dword ptr [esi]
  00403044: 89 07              mov         dword ptr [edi],eax
  00403046: 83 E9 04           sub         ecx,4
  00403049: F7 C1 FC FF FF FF  test        ecx,0FFFFFFFCh
  0040304F: 75 EB              jne         0040303C
  00403051: 85 C9              test        ecx,ecx
  00403053: 74 0F              je          00403064
  00403055: 83 EF 01           sub         edi,1
  00403058: 83 EE 01           sub         esi,1
  0040305B: 8A 06              mov         al,byte ptr [esi]
  0040305D: 88 07              mov         byte ptr [edi],al
  0040305F: 83 E9 01           sub         ecx,1
  00403062: 75 F1              jne         00403055
  00403064: 8B 44 24 0C        mov         eax,dword ptr [esp+0Ch]
  00403068: 5E                 pop         esi
  00403069: 5F                 pop         edi
  0040306A: C3                 ret
  0040306B: EB 03              jmp         00403070
  0040306D: CC                 int         3
  0040306E: CC                 int         3
  0040306F: CC                 int         3
  00403070: 8B C6              mov         eax,esi
  00403072: 83 E0 0F           and         eax,0Fh
  00403075: 85 C0              test        eax,eax
  00403077: 0F 85 E3 00 00 00  jne         00403160
  0040307D: 8B D1              mov         edx,ecx
  0040307F: 83 E1 7F           and         ecx,7Fh
  00403082: C1 EA 07           shr         edx,7
  00403085: 74 66              je          004030ED
  00403087: 8D A4 24 00 00 00  lea         esp,[esp+00000000h]
            00
  0040308E: 8B FF              mov         edi,edi
  00403090: 66 0F 6F 06        movdqa      xmm0,xmmword ptr [esi]
  00403094: 66 0F 6F 4E 10     movdqa      xmm1,xmmword ptr [esi+10h]
  00403099: 66 0F 6F 56 20     movdqa      xmm2,xmmword ptr [esi+20h]
  0040309E: 66 0F 6F 5E 30     movdqa      xmm3,xmmword ptr [esi+30h]
  004030A3: 66 0F 7F 07        movdqa      xmmword ptr [edi],xmm0
  004030A7: 66 0F 7F 4F 10     movdqa      xmmword ptr [edi+10h],xmm1
  004030AC: 66 0F 7F 57 20     movdqa      xmmword ptr [edi+20h],xmm2
  004030B1: 66 0F 7F 5F 30     movdqa      xmmword ptr [edi+30h],xmm3
  004030B6: 66 0F 6F 66 40     movdqa      xmm4,xmmword ptr [esi+40h]
  004030BB: 66 0F 6F 6E 50     movdqa      xmm5,xmmword ptr [esi+50h]
  004030C0: 66 0F 6F 76 60     movdqa      xmm6,xmmword ptr [esi+60h]
  004030C5: 66 0F 6F 7E 70     movdqa      xmm7,xmmword ptr [esi+70h]
  004030CA: 66 0F 7F 67 40     movdqa      xmmword ptr [edi+40h],xmm4
  004030CF: 66 0F 7F 6F 50     movdqa      xmmword ptr [edi+50h],xmm5
  004030D4: 66 0F 7F 77 60     movdqa      xmmword ptr [edi+60h],xmm6
  004030D9: 66 0F 7F 7F 70     movdqa      xmmword ptr [edi+70h],xmm7
  004030DE: 8D B6 80 00 00 00  lea         esi,[esi+00000080h]
  004030E4: 8D BF 80 00 00 00  lea         edi,[edi+00000080h]
  004030EA: 4A                 dec         edx
  004030EB: 75 A3              jne         00403090
  004030ED: 85 C9              test        ecx,ecx
  004030EF: 74 5F              je          00403150
  004030F1: 8B D1              mov         edx,ecx
  004030F3: C1 EA 05           shr         edx,5
  004030F6: 85 D2              test        edx,edx
  004030F8: 74 21              je          0040311B
  004030FA: 8D 9B 00 00 00 00  lea         ebx,[ebx+00000000h]
  00403100: F3 0F 6F 06        movdqu      xmm0,xmmword ptr [esi]
  00403104: F3 0F 6F 4E 10     movdqu      xmm1,xmmword ptr [esi+10h]
  00403109: F3 0F 7F 07        movdqu      xmmword ptr [edi],xmm0
  0040310D: F3 0F 7F 4F 10     movdqu      xmmword ptr [edi+10h],xmm1
  00403112: 8D 76 20           lea         esi,[esi+20h]
  00403115: 8D 7F 20           lea         edi,[edi+20h]
  00403118: 4A                 dec         edx
  00403119: 75 E5              jne         00403100
  0040311B: 83 E1 1F           and         ecx,1Fh
  0040311E: 74 30              je          00403150
  00403120: 8B C1              mov         eax,ecx
  00403122: C1 E9 02           shr         ecx,2
  00403125: 74 0F              je          00403136
  00403127: 8B 16              mov         edx,dword ptr [esi]
  00403129: 89 17              mov         dword ptr [edi],edx
  0040312B: 83 C7 04           add         edi,4
  0040312E: 83 C6 04           add         esi,4
  00403131: 83 E9 01           sub         ecx,1
  00403134: 75 F1              jne         00403127
  00403136: 8B C8              mov         ecx,eax
  00403138: 83 E1 03           and         ecx,3
  0040313B: 74 13              je          00403150
  0040313D: 8A 06              mov         al,byte ptr [esi]
  0040313F: 88 07              mov         byte ptr [edi],al
  00403141: 46                 inc         esi
  00403142: 47                 inc         edi
  00403143: 49                 dec         ecx
  00403144: 75 F7              jne         0040313D
  00403146: 8D A4 24 00 00 00  lea         esp,[esp+00000000h]
            00
  0040314D: 8D 49 00           lea         ecx,[ecx]
  00403150: 8B 44 24 0C        mov         eax,dword ptr [esp+0Ch]
  00403154: 5E                 pop         esi
  00403155: 5F                 pop         edi
  00403156: C3                 ret
  00403157: 8D A4 24 00 00 00  lea         esp,[esp+00000000h]
            00
  0040315E: 8B FF              mov         edi,edi
  00403160: BA 10 00 00 00     mov         edx,10h
  00403165: 2B D0              sub         edx,eax
  00403167: 2B CA              sub         ecx,edx
  00403169: 51                 push        ecx
  0040316A: 8B C2              mov         eax,edx
  0040316C: 8B C8              mov         ecx,eax
  0040316E: 83 E1 03           and         ecx,3
  00403171: 74 09              je          0040317C
  00403173: 8A 16              mov         dl,byte ptr [esi]
  00403175: 88 17              mov         byte ptr [edi],dl
  00403177: 46                 inc         esi
  00403178: 47                 inc         edi
  00403179: 49                 dec         ecx
  0040317A: 75 F7              jne         00403173
  0040317C: C1 E8 02           shr         eax,2
  0040317F: 74 0D              je          0040318E
  00403181: 8B 16              mov         edx,dword ptr [esi]
  00403183: 89 17              mov         dword ptr [edi],edx
  00403185: 8D 76 04           lea         esi,[esi+4]
  00403188: 8D 7F 04           lea         edi,[edi+4]
  0040318B: 48                 dec         eax
  0040318C: 75 F3              jne         00403181
  0040318E: 59                 pop         ecx
  0040318F: E9 E9 FE FF FF     jmp         0040307D
  00403194: 8B FF              mov         edi,edi
  00403196: 55                 push        ebp
  00403197: 8B EC              mov         ebp,esp
  00403199: 51                 push        ecx
  0040319A: 53                 push        ebx
  0040319B: 56                 push        esi
  0040319C: 57                 push        edi
  0040319D: E8 55 18 00 00     call        004049F7
  004031A2: 8B F0              mov         esi,eax
  004031A4: 85 F6              test        esi,esi
  004031A6: 0F 84 39 01 00 00  je          004032E5
  004031AC: 8B 16              mov         edx,dword ptr [esi]
  004031AE: 33 DB              xor         ebx,ebx
  004031B0: 8B CA              mov         ecx,edx
  004031B2: 8D 82 90 00 00 00  lea         eax,[edx+00000090h]
  004031B8: 3B D0              cmp         edx,eax
  004031BA: 74 0E              je          004031CA
  004031BC: 8B 7D 08           mov         edi,dword ptr [ebp+8]
  004031BF: 39 39              cmp         dword ptr [ecx],edi
  004031C1: 74 09              je          004031CC
  004031C3: 83 C1 0C           add         ecx,0Ch
  004031C6: 3B C8              cmp         ecx,eax
  004031C8: 75 F5              jne         004031BF
  004031CA: 8B CB              mov         ecx,ebx
  004031CC: 85 C9              test        ecx,ecx
  004031CE: 0F 84 11 01 00 00  je          004032E5
  004031D4: 8B 79 08           mov         edi,dword ptr [ecx+8]
  004031D7: 85 FF              test        edi,edi
  004031D9: 0F 84 06 01 00 00  je          004032E5
  004031DF: 83 FF 05           cmp         edi,5
  004031E2: 75 0B              jne         004031EF
  004031E4: 33 C0              xor         eax,eax
  004031E6: 89 59 08           mov         dword ptr [ecx+8],ebx
  004031E9: 40                 inc         eax
  004031EA: E9 F8 00 00 00     jmp         004032E7
  004031EF: 83 FF 01           cmp         edi,1
  004031F2: 75 08              jne         004031FC
  004031F4: 83 C8 FF           or          eax,0FFFFFFFFh
  004031F7: E9 EB 00 00 00     jmp         004032E7
  004031FC: 8B 46 04           mov         eax,dword ptr [esi+4]
  004031FF: 89 45 FC           mov         dword ptr [ebp-4],eax
  00403202: 8B 45 0C           mov         eax,dword ptr [ebp+0Ch]
  00403205: 89 46 04           mov         dword ptr [esi+4],eax
  00403208: 83 79 04 08        cmp         dword ptr [ecx+4],8
  0040320C: 0F 85 B7 00 00 00  jne         004032C9
  00403212: 8D 42 24           lea         eax,[edx+24h]
  00403215: 8D 50 6C           lea         edx,[eax+6Ch]
  00403218: EB 06              jmp         00403220
  0040321A: 89 58 08           mov         dword ptr [eax+8],ebx
  0040321D: 83 C0 0C           add         eax,0Ch
  00403220: 3B C2              cmp         eax,edx
  00403222: 75 F6              jne         0040321A
  00403224: 8B 5E 08           mov         ebx,dword ptr [esi+8]
  00403227: B8 91 00 00 C0     mov         eax,0C0000091h
  0040322C: 39 01              cmp         dword ptr [ecx],eax
  0040322E: 77 47              ja          00403277
  00403230: 74 3E              je          00403270
  00403232: 81 39 8D 00 00 C0  cmp         dword ptr [ecx],0C000008Dh
  00403238: 74 2F              je          00403269
  0040323A: 81 39 8E 00 00 C0  cmp         dword ptr [ecx],0C000008Eh
  00403240: 74 20              je          00403262
  00403242: 81 39 8F 00 00 C0  cmp         dword ptr [ecx],0C000008Fh
  00403248: 74 11              je          0040325B
  0040324A: 81 39 90 00 00 C0  cmp         dword ptr [ecx],0C0000090h
  00403250: 8B C3              mov         eax,ebx
  00403252: 75 62              jne         004032B6
  00403254: B8 81 00 00 00     mov         eax,81h
  00403259: EB 58              jmp         004032B3
  0040325B: B8 86 00 00 00     mov         eax,86h
  00403260: EB 51              jmp         004032B3
  00403262: B8 83 00 00 00     mov         eax,83h
  00403267: EB 4A              jmp         004032B3
  00403269: B8 82 00 00 00     mov         eax,82h
  0040326E: EB 43              jmp         004032B3
  00403270: B8 84 00 00 00     mov         eax,84h
  00403275: EB 3C              jmp         004032B3
  00403277: 81 39 92 00 00 C0  cmp         dword ptr [ecx],0C0000092h
  0040327D: 74 2F              je          004032AE
  0040327F: 81 39 93 00 00 C0  cmp         dword ptr [ecx],0C0000093h
  00403285: 74 20              je          004032A7
  00403287: 81 39 B4 02 00 C0  cmp         dword ptr [ecx],0C00002B4h
  0040328D: 74 11              je          004032A0
  0040328F: 81 39 B5 02 00 C0  cmp         dword ptr [ecx],0C00002B5h
  00403295: 8B C3              mov         eax,ebx
  00403297: 75 1D              jne         004032B6
  00403299: B8 8D 00 00 00     mov         eax,8Dh
  0040329E: EB 13              jmp         004032B3
  004032A0: B8 8E 00 00 00     mov         eax,8Eh
  004032A5: EB 0C              jmp         004032B3
  004032A7: B8 85 00 00 00     mov         eax,85h
  004032AC: EB 05              jmp         004032B3
  004032AE: B8 8A 00 00 00     mov         eax,8Ah
  004032B3: 89 46 08           mov         dword ptr [esi+8],eax
  004032B6: 50                 push        eax
  004032B7: 6A 08              push        8
  004032B9: 8B CF              mov         ecx,edi
  004032BB: FF 15 08 D1 40 00  call        dword ptr ds:[0040D108h]
  004032C1: FF D7              call        edi
  004032C3: 59                 pop         ecx
  004032C4: 89 5E 08           mov         dword ptr [esi+8],ebx
  004032C7: EB 10              jmp         004032D9
  004032C9: FF 71 04           push        dword ptr [ecx+4]
  004032CC: 89 59 08           mov         dword ptr [ecx+8],ebx
  004032CF: 8B CF              mov         ecx,edi
  004032D1: FF 15 08 D1 40 00  call        dword ptr ds:[0040D108h]
  004032D7: FF D7              call        edi
  004032D9: 8B 45 FC           mov         eax,dword ptr [ebp-4]
  004032DC: 59                 pop         ecx
  004032DD: 89 46 04           mov         dword ptr [esi+4],eax
  004032E0: E9 0F FF FF FF     jmp         004031F4
  004032E5: 33 C0              xor         eax,eax
  004032E7: 5F                 pop         edi
  004032E8: 5E                 pop         esi
  004032E9: 5B                 pop         ebx
  004032EA: C9                 leave
  004032EB: C3                 ret
  004032EC: A1 94 3C 41 00     mov         eax,dword ptr ds:[00413C94h]
  004032F1: C3                 ret
  004032F2: 8B FF              mov         edi,edi
  004032F4: 55                 push        ebp
  004032F5: 8B EC              mov         ebp,esp
  004032F7: 8B 45 08           mov         eax,dword ptr [ebp+8]
  004032FA: A3 94 3C 41 00     mov         dword ptr ds:[00413C94h],eax
  004032FF: 5D                 pop         ebp
  00403300: C3                 ret
  00403301: 8B FF              mov         edi,edi
  00403303: 55                 push        ebp
  00403304: 8B EC              mov         ebp,esp
  00403306: A1 18 30 41 00     mov         eax,dword ptr ds:[00413018h]
  0040330B: 83 E0 1F           and         eax,1Fh
  0040330E: 6A 20              push        20h
  00403310: 59                 pop         ecx
  00403311: 2B C8              sub         ecx,eax
  00403313: 8B 45 08           mov         eax,dword ptr [ebp+8]
  00403316: D3 C8              ror         eax,cl
  00403318: 33 05 18 30 41 00  xor         eax,dword ptr ds:[00413018h]
  0040331E: 5D                 pop         ebp
  0040331F: C3                 ret
  00403320: A1 18 30 41 00     mov         eax,dword ptr ds:[00413018h]
  00403325: 8B C8              mov         ecx,eax
  00403327: 33 05 98 3C 41 00  xor         eax,dword ptr ds:[00413C98h]
  0040332D: 83 E1 1F           and         ecx,1Fh
  00403330: D3 C8              ror         eax,cl
  00403332: 85 C0              test        eax,eax
  00403334: 0F 95 C0           setne       al
  00403337: C3                 ret
  00403338: 8B FF              mov         edi,edi
  0040333A: 55                 push        ebp
  0040333B: 8B EC              mov         ebp,esp
  0040333D: 8B 45 08           mov         eax,dword ptr [ebp+8]
  00403340: A3 98 3C 41 00     mov         dword ptr ds:[00413C98h],eax
  00403345: 5D                 pop         ebp
  00403346: C3                 ret
  00403347: 8B FF              mov         edi,edi
  00403349: 55                 push        ebp
  0040334A: 8B EC              mov         ebp,esp
  0040334C: 56                 push        esi
  0040334D: 8B 35 18 30 41 00  mov         esi,dword ptr ds:[00413018h]
  00403353: 8B CE              mov         ecx,esi
  00403355: 33 35 98 3C 41 00  xor         esi,dword ptr ds:[00413C98h]
  0040335B: 83 E1 1F           and         ecx,1Fh
  0040335E: D3 CE              ror         esi,cl
  00403360: 85 F6              test        esi,esi
  00403362: 75 04              jne         00403368
  00403364: 33 C0              xor         eax,eax
  00403366: EB 0E              jmp         00403376
  00403368: FF 75 08           push        dword ptr [ebp+8]
  0040336B: 8B CE              mov         ecx,esi
  0040336D: FF 15 08 D1 40 00  call        dword ptr ds:[0040D108h]
  00403373: FF D6              call        esi
  00403375: 59                 pop         ecx
  00403376: 5E                 pop         esi
  00403377: 5D                 pop         ebp
  00403378: C3                 ret
  00403379: 8B FF              mov         edi,edi
  0040337B: 55                 push        ebp
  0040337C: 8B EC              mov         ebp,esp
  0040337E: FF 75 08           push        dword ptr [ebp+8]
  00403381: E8 7B FF FF FF     call        00403301
  00403386: 59                 pop         ecx
  00403387: A3 98 3C 41 00     mov         dword ptr ds:[00413C98h],eax
  0040338C: 5D                 pop         ebp
  0040338D: C3                 ret
  0040338E: 8B FF              mov         edi,edi
  00403390: 55                 push        ebp
  00403391: 8B EC              mov         ebp,esp
  00403393: 83 EC 10           sub         esp,10h
  00403396: 53                 push        ebx
  00403397: 8B 5D 08           mov         ebx,dword ptr [ebp+8]
  0040339A: 85 DB              test        ebx,ebx
  0040339C: 75 07              jne         004033A5
  0040339E: 33 C0              xor         eax,eax
  004033A0: E9 1C 01 00 00     jmp         004034C1
  004033A5: 56                 push        esi
  004033A6: 83 FB 02           cmp         ebx,2
  004033A9: 74 1B              je          004033C6
  004033AB: 83 FB 01           cmp         ebx,1
  004033AE: 74 16              je          004033C6
  004033B0: E8 A6 19 00 00     call        00404D5B
  004033B5: 6A 16              push        16h
  004033B7: 5E                 pop         esi
  004033B8: 89 30              mov         dword ptr [eax],esi
  004033BA: E8 DF 18 00 00     call        00404C9E
  004033BF: 8B C6              mov         eax,esi
  004033C1: E9 FA 00 00 00     jmp         004034C0
  004033C6: 57                 push        edi
  004033C7: E8 2C 29 00 00     call        00405CF8
  004033CC: 68 04 01 00 00     push        104h
  004033D1: BE A0 3C 41 00     mov         esi,413CA0h
  004033D6: 33 FF              xor         edi,edi
  004033D8: 56                 push        esi
  004033D9: 57                 push        edi
  004033DA: E8 5A 23 00 00     call        00405739
  004033DF: A1 D4 3D 41 00     mov         eax,dword ptr ds:[00413DD4h]
  004033E4: 83 C4 0C           add         esp,0Ch
  004033E7: 89 35 C4 3D 41 00  mov         dword ptr ds:[00413DC4h],esi
  004033ED: 89 45 F0           mov         dword ptr [ebp-10h],eax
  004033F0: 85 C0              test        eax,eax
  004033F2: 74 05              je          004033F9
  004033F4: 80 38 00           cmp         byte ptr [eax],0
  004033F7: 75 05              jne         004033FE
  004033F9: 8B C6              mov         eax,esi
  004033FB: 89 75 F0           mov         dword ptr [ebp-10h],esi
  004033FE: 8D 4D F4           lea         ecx,[ebp-0Ch]
  00403401: 89 7D FC           mov         dword ptr [ebp-4],edi
  00403404: 51                 push        ecx
  00403405: 8D 4D FC           lea         ecx,[ebp-4]
  00403408: 89 7D F4           mov         dword ptr [ebp-0Ch],edi
  0040340B: 51                 push        ecx
  0040340C: 57                 push        edi
  0040340D: 57                 push        edi
  0040340E: 50                 push        eax
  0040340F: E8 B0 00 00 00     call        004034C4
  00403414: 6A 01              push        1
  00403416: FF 75 F4           push        dword ptr [ebp-0Ch]
  00403419: FF 75 FC           push        dword ptr [ebp-4]
  0040341C: E8 1A 02 00 00     call        0040363B
  00403421: 8B F0              mov         esi,eax
  00403423: 83 C4 20           add         esp,20h
  00403426: 85 F6              test        esi,esi
  00403428: 75 0C              jne         00403436
  0040342A: E8 2C 19 00 00     call        00404D5B
  0040342F: 6A 0C              push        0Ch
  00403431: 5F                 pop         edi
  00403432: 89 38              mov         dword ptr [eax],edi
  00403434: EB 32              jmp         00403468
  00403436: 8D 45 F4           lea         eax,[ebp-0Ch]
  00403439: 50                 push        eax
  0040343A: 8D 45 FC           lea         eax,[ebp-4]
  0040343D: 50                 push        eax
  0040343E: 8B 45 FC           mov         eax,dword ptr [ebp-4]
  00403441: 8D 04 86           lea         eax,[esi+eax*4]
  00403444: 50                 push        eax
  00403445: 56                 push        esi
  00403446: FF 75 F0           push        dword ptr [ebp-10h]
  00403449: E8 76 00 00 00     call        004034C4
  0040344E: 83 C4 14           add         esp,14h
  00403451: 83 FB 01           cmp         ebx,1
  00403454: 75 16              jne         0040346C
  00403456: 8B 45 FC           mov         eax,dword ptr [ebp-4]
  00403459: 48                 dec         eax
  0040345A: A3 C8 3D 41 00     mov         dword ptr ds:[00413DC8h],eax
  0040345F: 8B C6              mov         eax,esi
  00403461: 8B F7              mov         esi,edi
  00403463: A3 CC 3D 41 00     mov         dword ptr ds:[00413DCCh],eax
  00403468: 8B DF              mov         ebx,edi
  0040346A: EB 4A              jmp         004034B6
  0040346C: 8D 45 F8           lea         eax,[ebp-8]
  0040346F: 89 7D F8           mov         dword ptr [ebp-8],edi
  00403472: 50                 push        eax
  00403473: 56                 push        esi
  00403474: E8 B3 21 00 00     call        0040562C
  00403479: 8B D8              mov         ebx,eax
  0040347B: 59                 pop         ecx
  0040347C: 59                 pop         ecx
  0040347D: 85 DB              test        ebx,ebx
  0040347F: 74 05              je          00403486
  00403481: 8B 45 F8           mov         eax,dword ptr [ebp-8]
  00403484: EB 26              jmp         004034AC
  00403486: 8B 55 F8           mov         edx,dword ptr [ebp-8]
  00403489: 8B CF              mov         ecx,edi
  0040348B: 8B C2              mov         eax,edx
  0040348D: 39 3A              cmp         dword ptr [edx],edi
  0040348F: 74 08              je          00403499
  00403491: 8D 40 04           lea         eax,[eax+4]
  00403494: 41                 inc         ecx
  00403495: 39 38              cmp         dword ptr [eax],edi
  00403497: 75 F8              jne         00403491
  00403499: 8B C7              mov         eax,edi
  0040349B: 89 0D C8 3D 41 00  mov         dword ptr ds:[00413DC8h],ecx
  004034A1: 89 45 F8           mov         dword ptr [ebp-8],eax
  004034A4: 8B DF              mov         ebx,edi
  004034A6: 89 15 CC 3D 41 00  mov         dword ptr ds:[00413DCCh],edx
  004034AC: 50                 push        eax
  004034AD: E8 19 19 00 00     call        00404DCB
  004034B2: 59                 pop         ecx
  004034B3: 89 7D F8           mov         dword ptr [ebp-8],edi
  004034B6: 56                 push        esi
  004034B7: E8 0F 19 00 00     call        00404DCB
  004034BC: 59                 pop         ecx
  004034BD: 8B C3              mov         eax,ebx
  004034BF: 5F                 pop         edi
  004034C0: 5E                 pop         esi
  004034C1: 5B                 pop         ebx
  004034C2: C9                 leave
  004034C3: C3                 ret
  004034C4: 8B FF              mov         edi,edi
  004034C6: 55                 push        ebp
  004034C7: 8B EC              mov         ebp,esp
  004034C9: 51                 push        ecx
  004034CA: 8B 45 14           mov         eax,dword ptr [ebp+14h]
  004034CD: 53                 push        ebx
  004034CE: 8B 5D 18           mov         ebx,dword ptr [ebp+18h]
  004034D1: 56                 push        esi
  004034D2: 8B 75 10           mov         esi,dword ptr [ebp+10h]
  004034D5: 57                 push        edi
  004034D6: 83 23 00           and         dword ptr [ebx],0
  004034D9: 8B 7D 08           mov         edi,dword ptr [ebp+8]
  004034DC: C7 00 01 00 00 00  mov         dword ptr [eax],1
  004034E2: 8B 45 0C           mov         eax,dword ptr [ebp+0Ch]
  004034E5: 85 C0              test        eax,eax
  004034E7: 74 08              je          004034F1
  004034E9: 89 30              mov         dword ptr [eax],esi
  004034EB: 83 C0 04           add         eax,4
  004034EE: 89 45 0C           mov         dword ptr [ebp+0Ch],eax
  004034F1: 32 C9              xor         cl,cl
  004034F3: 88 4D FF           mov         byte ptr [ebp-1],cl
  004034F6: 80 3F 22           cmp         byte ptr [edi],22h
  004034F9: 75 0D              jne         00403508
  004034FB: 84 C9              test        cl,cl
  004034FD: B0 22              mov         al,22h
  004034FF: 0F 94 C1           sete        cl
  00403502: 47                 inc         edi
  00403503: 88 4D FF           mov         byte ptr [ebp-1],cl
  00403506: EB 35              jmp         0040353D
  00403508: FF 03              inc         dword ptr [ebx]
  0040350A: 85 F6              test        esi,esi
  0040350C: 74 05              je          00403513
  0040350E: 8A 07              mov         al,byte ptr [edi]
  00403510: 88 06              mov         byte ptr [esi],al
  00403512: 46                 inc         esi
  00403513: 8A 07              mov         al,byte ptr [edi]
  00403515: 47                 inc         edi
  00403516: 88 45 FE           mov         byte ptr [ebp-2],al
  00403519: 0F BE C0           movsx       eax,al
  0040351C: 50                 push        eax
  0040351D: E8 FC 2A 00 00     call        0040601E
  00403522: 59                 pop         ecx
  00403523: 85 C0              test        eax,eax
  00403525: 74 0C              je          00403533
  00403527: FF 03              inc         dword ptr [ebx]
  00403529: 85 F6              test        esi,esi
  0040352B: 74 05              je          00403532
  0040352D: 8A 07              mov         al,byte ptr [edi]
  0040352F: 88 06              mov         byte ptr [esi],al
  00403531: 46                 inc         esi
  00403532: 47                 inc         edi
  00403533: 8A 45 FE           mov         al,byte ptr [ebp-2]
  00403536: 84 C0              test        al,al
  00403538: 74 19              je          00403553
  0040353A: 8A 4D FF           mov         cl,byte ptr [ebp-1]
  0040353D: 84 C9              test        cl,cl
  0040353F: 75 B5              jne         004034F6
  00403541: 3C 20              cmp         al,20h
  00403543: 74 04              je          00403549
  00403545: 3C 09              cmp         al,9
  00403547: 75 AD              jne         004034F6
  00403549: 85 F6              test        esi,esi
  0040354B: 74 07              je          00403554
  0040354D: C6 46 FF 00        mov         byte ptr [esi-1],0
  00403551: EB 01              jmp         00403554
  00403553: 4F                 dec         edi
  00403554: C6 45 FF 00        mov         byte ptr [ebp-1],0
  00403558: 8A 07              mov         al,byte ptr [edi]
  0040355A: 84 C0              test        al,al
  0040355C: 0F 84 C5 00 00 00  je          00403627
  00403562: 3C 20              cmp         al,20h
  00403564: 74 04              je          0040356A
  00403566: 3C 09              cmp         al,9
  00403568: 75 05              jne         0040356F
  0040356A: 47                 inc         edi
  0040356B: 8A 07              mov         al,byte ptr [edi]
  0040356D: EB F3              jmp         00403562
  0040356F: 84 C0              test        al,al
  00403571: 0F 84 B0 00 00 00  je          00403627
  00403577: 8B 4D 0C           mov         ecx,dword ptr [ebp+0Ch]
  0040357A: 85 C9              test        ecx,ecx
  0040357C: 74 08              je          00403586
  0040357E: 89 31              mov         dword ptr [ecx],esi
  00403580: 83 C1 04           add         ecx,4
  00403583: 89 4D 0C           mov         dword ptr [ebp+0Ch],ecx
  00403586: 8B 45 14           mov         eax,dword ptr [ebp+14h]
  00403589: FF 00              inc         dword ptr [eax]
  0040358B: 33 D2              xor         edx,edx
  0040358D: 42                 inc         edx
  0040358E: 33 C0              xor         eax,eax
  00403590: EB 02              jmp         00403594
  00403592: 47                 inc         edi
  00403593: 40                 inc         eax
  00403594: 8A 0F              mov         cl,byte ptr [edi]
  00403596: 80 F9 5C           cmp         cl,5Ch
  00403599: 74 F7              je          00403592
  0040359B: 80 F9 22           cmp         cl,22h
  0040359E: 75 31              jne         004035D1
  004035A0: A8 01              test        al,1
  004035A2: 75 1E              jne         004035C2
  004035A4: 8A 4D FF           mov         cl,byte ptr [ebp-1]
  004035A7: 84 C9              test        cl,cl
  004035A9: 74 0F              je          004035BA
  004035AB: 8D 4F 01           lea         ecx,[edi+1]
  004035AE: 80 39 22           cmp         byte ptr [ecx],22h
  004035B1: 75 04              jne         004035B7
  004035B3: 8B F9              mov         edi,ecx
  004035B5: EB 0B              jmp         004035C2
  004035B7: 8A 4D FF           mov         cl,byte ptr [ebp-1]
  004035BA: 33 D2              xor         edx,edx
  004035BC: 84 C9              test        cl,cl
  004035BE: 0F 94 45 FF        sete        byte ptr [ebp-1]
  004035C2: D1 E8              shr         eax,1
  004035C4: EB 0B              jmp         004035D1
  004035C6: 48                 dec         eax
  004035C7: 85 F6              test        esi,esi
  004035C9: 74 04              je          004035CF
  004035CB: C6 06 5C           mov         byte ptr [esi],5Ch
  004035CE: 46                 inc         esi
  004035CF: FF 03              inc         dword ptr [ebx]
  004035D1: 85 C0              test        eax,eax
  004035D3: 75 F1              jne         004035C6
  004035D5: 8A 07              mov         al,byte ptr [edi]
  004035D7: 84 C0              test        al,al
  004035D9: 74 3D              je          00403618
  004035DB: 80 7D FF 00        cmp         byte ptr [ebp-1],0
  004035DF: 75 08              jne         004035E9
  004035E1: 3C 20              cmp         al,20h
  004035E3: 74 33              je          00403618
  004035E5: 3C 09              cmp         al,9
  004035E7: 74 2F              je          00403618
  004035E9: 85 D2              test        edx,edx
  004035EB: 74 25              je          00403612
  004035ED: 85 F6              test        esi,esi
  004035EF: 74 05              je          004035F6
  004035F1: 88 06              mov         byte ptr [esi],al
  004035F3: 46                 inc         esi
  004035F4: 8A 07              mov         al,byte ptr [edi]
  004035F6: 0F BE C0           movsx       eax,al
  004035F9: 50                 push        eax
  004035FA: E8 1F 2A 00 00     call        0040601E
  004035FF: 59                 pop         ecx
  00403600: 85 C0              test        eax,eax
  00403602: 74 0C              je          00403610
  00403604: 47                 inc         edi
  00403605: FF 03              inc         dword ptr [ebx]
  00403607: 85 F6              test        esi,esi
  00403609: 74 05              je          00403610
  0040360B: 8A 07              mov         al,byte ptr [edi]
  0040360D: 88 06              mov         byte ptr [esi],al
  0040360F: 46                 inc         esi
  00403610: FF 03              inc         dword ptr [ebx]
  00403612: 47                 inc         edi
  00403613: E9 73 FF FF FF     jmp         0040358B
  00403618: 85 F6              test        esi,esi
  0040361A: 74 04              je          00403620
  0040361C: C6 06 00           mov         byte ptr [esi],0
  0040361F: 46                 inc         esi
  00403620: FF 03              inc         dword ptr [ebx]
  00403622: E9 31 FF FF FF     jmp         00403558
  00403627: 8B 4D 0C           mov         ecx,dword ptr [ebp+0Ch]
  0040362A: 5F                 pop         edi
  0040362B: 5E                 pop         esi
  0040362C: 5B                 pop         ebx
  0040362D: 85 C9              test        ecx,ecx
  0040362F: 74 03              je          00403634
  00403631: 83 21 00           and         dword ptr [ecx],0
  00403634: 8B 45 14           mov         eax,dword ptr [ebp+14h]
  00403637: FF 00              inc         dword ptr [eax]
  00403639: C9                 leave
  0040363A: C3                 ret
  0040363B: 8B FF              mov         edi,edi
  0040363D: 55                 push        ebp
  0040363E: 8B EC              mov         ebp,esp
  00403640: 56                 push        esi
  00403641: 8B 75 08           mov         esi,dword ptr [ebp+8]
  00403644: 81 FE FF FF FF 3F  cmp         esi,3FFFFFFFh
  0040364A: 73 39              jae         00403685
  0040364C: 83 C8 FF           or          eax,0FFFFFFFFh
  0040364F: 8B 4D 0C           mov         ecx,dword ptr [ebp+0Ch]
  00403652: 33 D2              xor         edx,edx
  00403654: F7 75 10           div         eax,dword ptr [ebp+10h]
  00403657: 3B C8              cmp         ecx,eax
  00403659: 73 2A              jae         00403685
  0040365B: 0F AF 4D 10        imul        ecx,dword ptr [ebp+10h]
  0040365F: C1 E6 02           shl         esi,2
  00403662: 8B C6              mov         eax,esi
  00403664: F7 D0              not         eax
  00403666: 3B C1              cmp         eax,ecx
  00403668: 76 1B              jbe         00403685
  0040366A: 8D 04 0E           lea         eax,[esi+ecx]
  0040366D: 6A 01              push        1
  0040366F: 50                 push        eax
  00403670: E8 F9 16 00 00     call        00404D6E
  00403675: 6A 00              push        0
  00403677: 8B F0              mov         esi,eax
  00403679: E8 4D 17 00 00     call        00404DCB
  0040367E: 83 C4 0C           add         esp,0Ch
  00403681: 8B C6              mov         eax,esi
  00403683: EB 02              jmp         00403687
  00403685: 33 C0              xor         eax,eax
  00403687: 5E                 pop         esi
  00403688: 5D                 pop         ebp
  00403689: C3                 ret
  0040368A: 8B FF              mov         edi,edi
  0040368C: 55                 push        ebp
  0040368D: 8B EC              mov         ebp,esp
  0040368F: 5D                 pop         ebp
  00403690: E9 F9 FC FF FF     jmp         0040338E
  00403695: A1 A8 3D 41 00     mov         eax,dword ptr ds:[00413DA8h]
  0040369A: 85 C0              test        eax,eax
  0040369C: 75 22              jne         004036C0
  0040369E: 39 05 AC 3D 41 00  cmp         dword ptr ds:[00413DACh],eax
  004036A4: 74 18              je          004036BE
  004036A6: E8 16 00 00 00     call        004036C1
  004036AB: 85 C0              test        eax,eax
  004036AD: 74 09              je          004036B8
  004036AF: E8 5F 01 00 00     call        00403813
  004036B4: 85 C0              test        eax,eax
  004036B6: 75 06              jne         004036BE
  004036B8: A1 A8 3D 41 00     mov         eax,dword ptr ds:[00413DA8h]
  004036BD: C3                 ret
  004036BE: 33 C0              xor         eax,eax
  004036C0: C3                 ret
  004036C1: 83 3D A8 3D 41 00  cmp         dword ptr ds:[00413DA8h],0
            00
  004036C8: 74 03              je          004036CD
  004036CA: 33 C0              xor         eax,eax
  004036CC: C3                 ret
  004036CD: 56                 push        esi
  004036CE: 57                 push        edi
  004036CF: E8 24 26 00 00     call        00405CF8
  004036D4: E8 BD 2A 00 00     call        00406196
  004036D9: 8B F0              mov         esi,eax
  004036DB: 85 F6              test        esi,esi
  004036DD: 75 05              jne         004036E4
  004036DF: 83 CF FF           or          edi,0FFFFFFFFh
  004036E2: EB 24              jmp         00403708
  004036E4: 56                 push        esi
  004036E5: E8 2A 00 00 00     call        00403714
  004036EA: 59                 pop         ecx
  004036EB: 85 C0              test        eax,eax
  004036ED: 75 05              jne         004036F4
  004036EF: 83 CF FF           or          edi,0FFFFFFFFh
  004036F2: EB 0C              jmp         00403700
  004036F4: A3 B4 3D 41 00     mov         dword ptr ds:[00413DB4h],eax
  004036F9: 33 FF              xor         edi,edi
  004036FB: A3 A8 3D 41 00     mov         dword ptr ds:[00413DA8h],eax
  00403700: 6A 00              push        0
  00403702: E8 C4 16 00 00     call        00404DCB
  00403707: 59                 pop         ecx
  00403708: 56                 push        esi
  00403709: E8 BD 16 00 00     call        00404DCB
  0040370E: 59                 pop         ecx
  0040370F: 8B C7              mov         eax,edi
  00403711: 5F                 pop         edi
  00403712: 5E                 pop         esi
  00403713: C3                 ret
  00403714: 8B FF              mov         edi,edi
  00403716: 55                 push        ebp
  00403717: 8B EC              mov         ebp,esp
  00403719: 51                 push        ecx
  0040371A: 51                 push        ecx
  0040371B: 53                 push        ebx
  0040371C: 8B 5D 08           mov         ebx,dword ptr [ebp+8]
  0040371F: 33 D2              xor         edx,edx
  00403721: 56                 push        esi
  00403722: 57                 push        edi
  00403723: 8B F3              mov         esi,ebx
  00403725: 8A 03              mov         al,byte ptr [ebx]
  00403727: EB 18              jmp         00403741
  00403729: 3C 3D              cmp         al,3Dh
  0040372B: 74 01              je          0040372E
  0040372D: 42                 inc         edx
  0040372E: 8B CE              mov         ecx,esi
  00403730: 8D 79 01           lea         edi,[ecx+1]
  00403733: 8A 01              mov         al,byte ptr [ecx]
  00403735: 41                 inc         ecx
  00403736: 84 C0              test        al,al
  00403738: 75 F9              jne         00403733
  0040373A: 2B CF              sub         ecx,edi
  0040373C: 46                 inc         esi
  0040373D: 03 F1              add         esi,ecx
  0040373F: 8A 06              mov         al,byte ptr [esi]
  00403741: 84 C0              test        al,al
  00403743: 75 E4              jne         00403729
  00403745: 8D 42 01           lea         eax,[edx+1]
  00403748: 6A 04              push        4
  0040374A: 50                 push        eax
  0040374B: E8 1E 16 00 00     call        00404D6E
  00403750: 8B F8              mov         edi,eax
  00403752: 59                 pop         ecx
  00403753: 59                 pop         ecx
  00403754: 85 FF              test        edi,edi
  00403756: 74 6E              je          004037C6
  00403758: 89 7D FC           mov         dword ptr [ebp-4],edi
  0040375B: EB 52              jmp         004037AF
  0040375D: 8B CB              mov         ecx,ebx
  0040375F: 8D 71 01           lea         esi,[ecx+1]
  00403762: 8A 01              mov         al,byte ptr [ecx]
  00403764: 41                 inc         ecx
  00403765: 84 C0              test        al,al
  00403767: 75 F9              jne         00403762
  00403769: 2B CE              sub         ecx,esi
  0040376B: 8D 41 01           lea         eax,[ecx+1]
  0040376E: 89 45 F8           mov         dword ptr [ebp-8],eax
  00403771: 80 FA 3D           cmp         dl,3Dh
  00403774: 74 37              je          004037AD
  00403776: 6A 01              push        1
  00403778: 50                 push        eax
  00403779: E8 F0 15 00 00     call        00404D6E
  0040377E: 8B F0              mov         esi,eax
  00403780: 59                 pop         ecx
  00403781: 59                 pop         ecx
  00403782: 85 F6              test        esi,esi
  00403784: 74 31              je          004037B7
  00403786: 53                 push        ebx
  00403787: FF 75 F8           push        dword ptr [ebp-8]
  0040378A: 56                 push        esi
  0040378B: E8 EC 0B 00 00     call        0040437C
  00403790: 83 C4 0C           add         esp,0Ch
  00403793: 85 C0              test        eax,eax
  00403795: 75 40              jne         004037D7
  00403797: 8B 45 FC           mov         eax,dword ptr [ebp-4]
  0040379A: 6A 00              push        0
  0040379C: 89 30              mov         dword ptr [eax],esi
  0040379E: 83 C0 04           add         eax,4
  004037A1: 89 45 FC           mov         dword ptr [ebp-4],eax
  004037A4: E8 22 16 00 00     call        00404DCB
  004037A9: 8B 45 F8           mov         eax,dword ptr [ebp-8]
  004037AC: 59                 pop         ecx
  004037AD: 03 D8              add         ebx,eax
  004037AF: 8A 13              mov         dl,byte ptr [ebx]
  004037B1: 84 D2              test        dl,dl
  004037B3: 75 A8              jne         0040375D
  004037B5: EB 11              jmp         004037C8
  004037B7: 57                 push        edi
  004037B8: E8 27 00 00 00     call        004037E4
  004037BD: 6A 00              push        0
  004037BF: E8 07 16 00 00     call        00404DCB
  004037C4: 59                 pop         ecx
  004037C5: 59                 pop         ecx
  004037C6: 33 FF              xor         edi,edi
  004037C8: 6A 00              push        0
  004037CA: E8 FC 15 00 00     call        00404DCB
  004037CF: 59                 pop         ecx
  004037D0: 8B C7              mov         eax,edi
  004037D2: 5F                 pop         edi
  004037D3: 5E                 pop         esi
  004037D4: 5B                 pop         ebx
  004037D5: C9                 leave
  004037D6: C3                 ret
  004037D7: 33 C0              xor         eax,eax
  004037D9: 50                 push        eax
  004037DA: 50                 push        eax
  004037DB: 50                 push        eax
  004037DC: 50                 push        eax
  004037DD: 50                 push        eax
  004037DE: E8 CB 14 00 00     call        00404CAE
  004037E3: CC                 int         3
  004037E4: 8B FF              mov         edi,edi
  004037E6: 55                 push        ebp
  004037E7: 8B EC              mov         ebp,esp
  004037E9: 56                 push        esi
  004037EA: 8B 75 08           mov         esi,dword ptr [ebp+8]
  004037ED: 85 F6              test        esi,esi
  004037EF: 74 1F              je          00403810
  004037F1: 8B 06              mov         eax,dword ptr [esi]
  004037F3: 57                 push        edi
  004037F4: 8B FE              mov         edi,esi
  004037F6: EB 0C              jmp         00403804
  004037F8: 50                 push        eax
  004037F9: E8 CD 15 00 00     call        00404DCB
  004037FE: 8D 7F 04           lea         edi,[edi+4]
  00403801: 8B 07              mov         eax,dword ptr [edi]
  00403803: 59                 pop         ecx
  00403804: 85 C0              test        eax,eax
  00403806: 75 F0              jne         004037F8
  00403808: 56                 push        esi
  00403809: E8 BD 15 00 00     call        00404DCB
  0040380E: 59                 pop         ecx
  0040380F: 5F                 pop         edi
  00403810: 5E                 pop         esi
  00403811: 5D                 pop         ebp
  00403812: C3                 ret
  00403813: 8B FF              mov         edi,edi
  00403815: 53                 push        ebx
  00403816: 56                 push        esi
  00403817: 57                 push        edi
  00403818: 8B 3D AC 3D 41 00  mov         edi,dword ptr ds:[00413DACh]
  0040381E: 85 FF              test        edi,edi
  00403820: 74 6D              je          0040388F
  00403822: 8B 07              mov         eax,dword ptr [edi]
  00403824: 85 C0              test        eax,eax
  00403826: 74 5C              je          00403884
  00403828: 33 DB              xor         ebx,ebx
  0040382A: 53                 push        ebx
  0040382B: 53                 push        ebx
  0040382C: 53                 push        ebx
  0040382D: 53                 push        ebx
  0040382E: 6A FF              push        0FFFFFFFFh
  00403830: 50                 push        eax
  00403831: 53                 push        ebx
  00403832: 53                 push        ebx
  00403833: E8 7A 28 00 00     call        004060B2
  00403838: 8B D8              mov         ebx,eax
  0040383A: 83 C4 20           add         esp,20h
  0040383D: 85 DB              test        ebx,ebx
  0040383F: 74 4E              je          0040388F
  00403841: 6A 01              push        1
  00403843: 53                 push        ebx
  00403844: E8 25 15 00 00     call        00404D6E
  00403849: 8B F0              mov         esi,eax
  0040384B: 59                 pop         ecx
  0040384C: 59                 pop         ecx
  0040384D: 85 F6              test        esi,esi
  0040384F: 74 37              je          00403888
  00403851: 6A 00              push        0
  00403853: 6A 00              push        0
  00403855: 53                 push        ebx
  00403856: 56                 push        esi
  00403857: 6A FF              push        0FFFFFFFFh
  00403859: FF 37              push        dword ptr [edi]
  0040385B: 33 DB              xor         ebx,ebx
  0040385D: 53                 push        ebx
  0040385E: 53                 push        ebx
  0040385F: E8 4E 28 00 00     call        004060B2
  00403864: 83 C4 20           add         esp,20h
  00403867: 85 C0              test        eax,eax
  00403869: 74 1D              je          00403888
  0040386B: 53                 push        ebx
  0040386C: 56                 push        esi
  0040386D: E8 05 2D 00 00     call        00406577
  00403872: 53                 push        ebx
  00403873: E8 53 15 00 00     call        00404DCB
  00403878: 83 C7 04           add         edi,4
  0040387B: 83 C4 0C           add         esp,0Ch
  0040387E: 8B 07              mov         eax,dword ptr [edi]
  00403880: 85 C0              test        eax,eax
  00403882: 75 A6              jne         0040382A
  00403884: 33 C0              xor         eax,eax
  00403886: EB 0A              jmp         00403892
  00403888: 56                 push        esi
  00403889: E8 3D 15 00 00     call        00404DCB
  0040388E: 59                 pop         ecx
  0040388F: 83 C8 FF           or          eax,0FFFFFFFFh
  00403892: 5F                 pop         edi
  00403893: 5E                 pop         esi
  00403894: 5B                 pop         ebx
  00403895: C3                 ret
  00403896: 8B FF              mov         edi,edi
  00403898: 55                 push        ebp
  00403899: 8B EC              mov         ebp,esp
  0040389B: 56                 push        esi
  0040389C: 8B F1              mov         esi,ecx
  0040389E: 57                 push        edi
  0040389F: 8D 7E 04           lea         edi,[esi+4]
  004038A2: EB 11              jmp         004038B5
  004038A4: 8B 4D 08           mov         ecx,dword ptr [ebp+8]
  004038A7: 56                 push        esi
  004038A8: FF 15 08 D1 40 00  call        dword ptr ds:[0040D108h]
  004038AE: FF 55 08           call        dword ptr [ebp+8]
  004038B1: 59                 pop         ecx
  004038B2: 83 C6 04           add         esi,4
  004038B5: 3B F7              cmp         esi,edi
  004038B7: 75 EB              jne         004038A4
  004038B9: 5F                 pop         edi
  004038BA: 5E                 pop         esi
  004038BB: 5D                 pop         ebp
  004038BC: C2 04 00           ret         4
  004038BF: 8B FF              mov         edi,edi
  004038C1: 55                 push        ebp
  004038C2: 8B EC              mov         ebp,esp
  004038C4: 8B 45 08           mov         eax,dword ptr [ebp+8]
  004038C7: 8B 00              mov         eax,dword ptr [eax]
  004038C9: 3B 05 B4 3D 41 00  cmp         eax,dword ptr ds:[00413DB4h]
  004038CF: 74 07              je          004038D8
  004038D1: 50                 push        eax
  004038D2: E8 0D FF FF FF     call        004037E4
  004038D7: 59                 pop         ecx
  004038D8: 5D                 pop         ebp
  004038D9: C3                 ret
  004038DA: 8B FF              mov         edi,edi
  004038DC: 55                 push        ebp
  004038DD: 8B EC              mov         ebp,esp
  004038DF: 8B 45 08           mov         eax,dword ptr [ebp+8]
  004038E2: 8B 00              mov         eax,dword ptr [eax]
  004038E4: 3B 05 B0 3D 41 00  cmp         eax,dword ptr ds:[00413DB0h]
  004038EA: 74 07              je          004038F3
  004038EC: 50                 push        eax
  004038ED: E8 F2 FE FF FF     call        004037E4
  004038F2: 59                 pop         ecx
  004038F3: 5D                 pop         ebp
  004038F4: C3                 ret
  004038F5: E9 9B FD FF FF     jmp         00403695
  004038FA: 68 BF 38 40 00     push        4038BFh
  004038FF: B9 A8 3D 41 00     mov         ecx,413DA8h
  00403904: E8 8D FF FF FF     call        00403896
  00403909: 68 DA 38 40 00     push        4038DAh
  0040390E: B9 AC 3D 41 00     mov         ecx,413DACh
  00403913: E8 7E FF FF FF     call        00403896
  00403918: FF 35 B4 3D 41 00  push        dword ptr ds:[00413DB4h]
  0040391E: E8 C1 FE FF FF     call        004037E4
  00403923: FF 35 B0 3D 41 00  push        dword ptr ds:[00413DB0h]
  00403929: E8 B6 FE FF FF     call        004037E4
  0040392E: 59                 pop         ecx
  0040392F: 59                 pop         ecx
  00403930: C3                 ret
  00403931: A1 B4 3D 41 00     mov         eax,dword ptr ds:[00413DB4h]
  00403936: 85 C0              test        eax,eax
  00403938: 75 0A              jne         00403944
  0040393A: E8 56 FD FF FF     call        00403695
  0040393F: A3 B4 3D 41 00     mov         dword ptr ds:[00413DB4h],eax
  00403944: C3                 ret
  00403945: E9 77 FD FF FF     jmp         004036C1
  0040394A: 8B FF              mov         edi,edi
  0040394C: 55                 push        ebp
  0040394D: 8B EC              mov         ebp,esp
  0040394F: 51                 push        ecx
  00403950: 8B 45 0C           mov         eax,dword ptr [ebp+0Ch]
  00403953: 53                 push        ebx
  00403954: 56                 push        esi
  00403955: 8B 75 08           mov         esi,dword ptr [ebp+8]
  00403958: 2B C6              sub         eax,esi
  0040395A: 83 C0 03           add         eax,3
  0040395D: 57                 push        edi
  0040395E: 33 FF              xor         edi,edi
  00403960: C1 E8 02           shr         eax,2
  00403963: 39 75 0C           cmp         dword ptr [ebp+0Ch],esi
  00403966: 1B DB              sbb         ebx,ebx
  00403968: F7 D3              not         ebx
  0040396A: 23 D8              and         ebx,eax
  0040396C: 74 1C              je          0040398A
  0040396E: 8B 06              mov         eax,dword ptr [esi]
  00403970: 89 45 FC           mov         dword ptr [ebp-4],eax
  00403973: 85 C0              test        eax,eax
  00403975: 74 0B              je          00403982
  00403977: 8B C8              mov         ecx,eax
  00403979: FF 15 08 D1 40 00  call        dword ptr ds:[0040D108h]
  0040397F: FF 55 FC           call        dword ptr [ebp-4]
  00403982: 83 C6 04           add         esi,4
  00403985: 47                 inc         edi
  00403986: 3B FB              cmp         edi,ebx
  00403988: 75 E4              jne         0040396E
  0040398A: 5F                 pop         edi
  0040398B: 5E                 pop         esi
  0040398C: 5B                 pop         ebx
  0040398D: C9                 leave
  0040398E: C3                 ret
  0040398F: 8B FF              mov         edi,edi
  00403991: 55                 push        ebp
  00403992: 8B EC              mov         ebp,esp
  00403994: 56                 push        esi
  00403995: 8B 75 08           mov         esi,dword ptr [ebp+8]
  00403998: 57                 push        edi
  00403999: EB 17              jmp         004039B2
  0040399B: 8B 3E              mov         edi,dword ptr [esi]
  0040399D: 85 FF              test        edi,edi
  0040399F: 74 0E              je          004039AF
  004039A1: 8B CF              mov         ecx,edi
  004039A3: FF 15 08 D1 40 00  call        dword ptr ds:[0040D108h]
  004039A9: FF D7              call        edi
  004039AB: 85 C0              test        eax,eax
  004039AD: 75 0A              jne         004039B9
  004039AF: 83 C6 04           add         esi,4
  004039B2: 3B 75 0C           cmp         esi,dword ptr [ebp+0Ch]
  004039B5: 75 E4              jne         0040399B
  004039B7: 33 C0              xor         eax,eax
  004039B9: 5F                 pop         edi
  004039BA: 5E                 pop         esi
  004039BB: 5D                 pop         ebp
  004039BC: C3                 ret
  004039BD: 6A 08              push        8
  004039BF: 68 D8 1F 41 00     push        411FD8h
  004039C4: E8 27 DE FF FF     call        004017F0
  004039C9: 8B 45 08           mov         eax,dword ptr [ebp+8]
  004039CC: FF 30              push        dword ptr [eax]
  004039CE: E8 F0 2B 00 00     call        004065C3
  004039D3: 59                 pop         ecx
  004039D4: 83 65 FC 00        and         dword ptr [ebp-4],0
  004039D8: 8B 4D 0C           mov         ecx,dword ptr [ebp+0Ch]
  004039DB: E8 2A 00 00 00     call        00403A0A
  004039E0: C7 45 FC FE FF FF  mov         dword ptr [ebp-4],0FFFFFFFEh
            FF
  004039E7: E8 12 00 00 00     call        004039FE
  004039EC: 8B 4D F0           mov         ecx,dword ptr [ebp-10h]
  004039EF: 64 89 0D 00 00 00  mov         dword ptr fs:[00000000h],ecx
            00
  004039F6: 59                 pop         ecx
  004039F7: 5F                 pop         edi
  004039F8: 5E                 pop         esi
  004039F9: 5B                 pop         ebx
  004039FA: C9                 leave
  004039FB: C2 0C 00           ret         0Ch
  004039FE: 8B 45 10           mov         eax,dword ptr [ebp+10h]
  00403A01: FF 30              push        dword ptr [eax]
  00403A03: E8 03 2C 00 00     call        0040660B
  00403A08: 59                 pop         ecx
  00403A09: C3                 ret
  00403A0A: 6A 08              push        8
  00403A0C: 68 B8 1F 41 00     push        411FB8h
  00403A11: E8 DA DD FF FF     call        004017F0
  00403A16: 8B F1              mov         esi,ecx
  00403A18: 80 3D C0 3D 41 00  cmp         byte ptr ds:[00413DC0h],0
            00
  00403A1F: 0F 85 96 00 00 00  jne         00403ABB
  00403A25: 33 C0              xor         eax,eax
  00403A27: 40                 inc         eax
  00403A28: B9 B8 3D 41 00     mov         ecx,413DB8h
  00403A2D: 87 01              xchg        eax,dword ptr [ecx]
  00403A2F: 33 DB              xor         ebx,ebx
  00403A31: 89 5D FC           mov         dword ptr [ebp-4],ebx
  00403A34: 8B 06              mov         eax,dword ptr [esi]
  00403A36: 8B 00              mov         eax,dword ptr [eax]
  00403A38: 85 C0              test        eax,eax
  00403A3A: 75 2C              jne         00403A68
  00403A3C: 8B 3D 18 30 41 00  mov         edi,dword ptr ds:[00413018h]
  00403A42: 8B CF              mov         ecx,edi
  00403A44: 83 E1 1F           and         ecx,1Fh
  00403A47: A1 BC 3D 41 00     mov         eax,dword ptr ds:[00413DBCh]
  00403A4C: 3B C7              cmp         eax,edi
  00403A4E: 74 11              je          00403A61
  00403A50: 33 F8              xor         edi,eax
  00403A52: D3 CF              ror         edi,cl
  00403A54: 53                 push        ebx
  00403A55: 53                 push        ebx
  00403A56: 53                 push        ebx
  00403A57: 8B CF              mov         ecx,edi
  00403A59: FF 15 08 D1 40 00  call        dword ptr ds:[0040D108h]
  00403A5F: FF D7              call        edi
  00403A61: 68 E8 3D 41 00     push        413DE8h
  00403A66: EB 0A              jmp         00403A72
  00403A68: 83 F8 01           cmp         eax,1
  00403A6B: 75 0B              jne         00403A78
  00403A6D: 68 F4 3D 41 00     push        413DF4h
  00403A72: E8 89 06 00 00     call        00404100
  00403A77: 59                 pop         ecx
  00403A78: C7 45 FC FE FF FF  mov         dword ptr [ebp-4],0FFFFFFFEh
            FF
  00403A7F: 8B 06              mov         eax,dword ptr [esi]
  00403A81: 39 18              cmp         dword ptr [eax],ebx
  00403A83: 75 11              jne         00403A96
  00403A85: 68 44 D1 40 00     push        40D144h
  00403A8A: 68 34 D1 40 00     push        40D134h
  00403A8F: E8 B6 FE FF FF     call        0040394A
  00403A94: 59                 pop         ecx
  00403A95: 59                 pop         ecx
  00403A96: 68 4C D1 40 00     push        40D14Ch
  00403A9B: 68 48 D1 40 00     push        40D148h
  00403AA0: E8 A5 FE FF FF     call        0040394A
  00403AA5: 59                 pop         ecx
  00403AA6: 59                 pop         ecx
  00403AA7: 8B 46 04           mov         eax,dword ptr [esi+4]
  00403AAA: 39 18              cmp         dword ptr [eax],ebx
  00403AAC: 75 0D              jne         00403ABB
  00403AAE: C6 05 C0 3D 41 00  mov         byte ptr ds:[00413DC0h],1
            01
  00403AB5: 8B 46 08           mov         eax,dword ptr [esi+8]
  00403AB8: C6 00 01           mov         byte ptr [eax],1
  00403ABB: 8B 4D F0           mov         ecx,dword ptr [ebp-10h]
  00403ABE: 64 89 0D 00 00 00  mov         dword ptr fs:[00000000h],ecx
            00
  00403AC5: 59                 pop         ecx
  00403AC6: 5F                 pop         edi
  00403AC7: 5E                 pop         esi
  00403AC8: 5B                 pop         ebx
  00403AC9: C9                 leave
  00403ACA: C3                 ret
  00403ACB: 8B 45 EC           mov         eax,dword ptr [ebp-14h]
  00403ACE: 8B 00              mov         eax,dword ptr [eax]
  00403AD0: FF 30              push        dword ptr [eax]
  00403AD2: E8 0D 00 00 00     call        00403AE4
  00403AD7: 83 C4 04           add         esp,4
  00403ADA: C3                 ret
  00403ADB: 8B 65 E8           mov         esp,dword ptr [ebp-18h]
  00403ADE: E8 42 08 00 00     call        00404325
  00403AE3: CC                 int         3
  00403AE4: 8B FF              mov         edi,edi
  00403AE6: 55                 push        ebp
  00403AE7: 8B EC              mov         ebp,esp
  00403AE9: 33 C0              xor         eax,eax
  00403AEB: 81 7D 08 63 73 6D  cmp         dword ptr [ebp+8],0E06D7363h
            E0
  00403AF2: 0F 94 C0           sete        al
  00403AF5: 5D                 pop         ebp
  00403AF6: C3                 ret
  00403AF7: 8B FF              mov         edi,edi
  00403AF9: 55                 push        ebp
  00403AFA: 8B EC              mov         ebp,esp
  00403AFC: 83 EC 18           sub         esp,18h
  00403AFF: 83 7D 10 00        cmp         dword ptr [ebp+10h],0
  00403B03: 75 12              jne         00403B17
  00403B05: E8 DF DB FF FF     call        004016E9
  00403B0A: 84 C0              test        al,al
  00403B0C: 74 09              je          00403B17
  00403B0E: FF 75 08           push        dword ptr [ebp+8]
  00403B11: E8 87 00 00 00     call        00403B9D
  00403B16: 59                 pop         ecx
  00403B17: 8D 45 0C           lea         eax,[ebp+0Ch]
  00403B1A: C6 45 FF 00        mov         byte ptr [ebp-1],0
  00403B1E: 89 45 E8           mov         dword ptr [ebp-18h],eax
  00403B21: 8D 4D FE           lea         ecx,[ebp-2]
  00403B24: 8D 45 10           lea         eax,[ebp+10h]
  00403B27: 89 45 EC           mov         dword ptr [ebp-14h],eax
  00403B2A: 8D 45 FF           lea         eax,[ebp-1]
  00403B2D: 6A 02              push        2
  00403B2F: 89 45 F0           mov         dword ptr [ebp-10h],eax
  00403B32: 58                 pop         eax
  00403B33: 89 45 F8           mov         dword ptr [ebp-8],eax
  00403B36: 89 45 F4           mov         dword ptr [ebp-0Ch],eax
  00403B39: 8D 45 F8           lea         eax,[ebp-8]
  00403B3C: 50                 push        eax
  00403B3D: 8D 45 E8           lea         eax,[ebp-18h]
  00403B40: 50                 push        eax
  00403B41: 8D 45 F4           lea         eax,[ebp-0Ch]
  00403B44: 50                 push        eax
  00403B45: E8 73 FE FF FF     call        004039BD
  00403B4A: 83 7D 10 00        cmp         dword ptr [ebp+10h],0
  00403B4E: 74 02              je          00403B52
  00403B50: C9                 leave
  00403B51: C3                 ret
  00403B52: FF 75 08           push        dword ptr [ebp+8]
  00403B55: E8 01 00 00 00     call        00403B5B
  00403B5A: CC                 int         3
  00403B5B: 8B FF              mov         edi,edi
  00403B5D: 55                 push        ebp
  00403B5E: 8B EC              mov         ebp,esp
  00403B60: E8 BD 2A 00 00     call        00406622
  00403B65: 83 F8 01           cmp         eax,1
  00403B68: 74 20              je          00403B8A
  00403B6A: 64 A1 30 00 00 00  mov         eax,dword ptr fs:[00000030h]
  00403B70: 8B 40 68           mov         eax,dword ptr [eax+68h]
  00403B73: C1 E8 08           shr         eax,8
  00403B76: A8 01              test        al,1
  00403B78: 75 10              jne         00403B8A
  00403B7A: FF 75 08           push        dword ptr [ebp+8]
  00403B7D: FF 15 2C D0 40 00  call        dword ptr ds:[0040D02Ch]
  00403B83: 50                 push        eax
  00403B84: FF 15 30 D0 40 00  call        dword ptr ds:[0040D030h]
  00403B8A: FF 75 08           push        dword ptr [ebp+8]
  00403B8D: E8 0B 00 00 00     call        00403B9D
  00403B92: 59                 pop         ecx
  00403B93: FF 75 08           push        dword ptr [ebp+8]
  00403B96: FF 15 80 D0 40 00  call        dword ptr ds:[0040D080h]
  00403B9C: CC                 int         3
  00403B9D: 8B FF              mov         edi,edi
  00403B9F: 55                 push        ebp
  00403BA0: 8B EC              mov         ebp,esp
  00403BA2: 51                 push        ecx
  00403BA3: 83 65 FC 00        and         dword ptr [ebp-4],0
  00403BA7: 8D 45 FC           lea         eax,[ebp-4]
  00403BAA: 50                 push        eax
  00403BAB: 68 B4 DC 40 00     push        40DCB4h
  00403BB0: 6A 00              push        0
  00403BB2: FF 15 84 D0 40 00  call        dword ptr ds:[0040D084h]
  00403BB8: 85 C0              test        eax,eax
  00403BBA: 74 23              je          00403BDF
  00403BBC: 56                 push        esi
  00403BBD: 68 CC DC 40 00     push        40DCCCh
  00403BC2: FF 75 FC           push        dword ptr [ebp-4]
  00403BC5: FF 15 68 D0 40 00  call        dword ptr ds:[0040D068h]
  00403BCB: 8B F0              mov         esi,eax
  00403BCD: 85 F6              test        esi,esi
  00403BCF: 74 0D              je          00403BDE
  00403BD1: FF 75 08           push        dword ptr [ebp+8]
  00403BD4: 8B CE              mov         ecx,esi
  00403BD6: FF 15 08 D1 40 00  call        dword ptr ds:[0040D108h]
  00403BDC: FF D6              call        esi
  00403BDE: 5E                 pop         esi
  00403BDF: 83 7D FC 00        cmp         dword ptr [ebp-4],0
  00403BE3: 74 09              je          00403BEE
  00403BE5: FF 75 FC           push        dword ptr [ebp-4]
  00403BE8: FF 15 64 D0 40 00  call        dword ptr ds:[0040D064h]
  00403BEE: C9                 leave
  00403BEF: C3                 ret
  00403BF0: 8B FF              mov         edi,edi
  00403BF2: 55                 push        ebp
  00403BF3: 8B EC              mov         ebp,esp
  00403BF5: 8B 45 08           mov         eax,dword ptr [ebp+8]
  00403BF8: A3 BC 3D 41 00     mov         dword ptr ds:[00413DBCh],eax
  00403BFD: 5D                 pop         ebp
  00403BFE: C3                 ret
  00403BFF: 6A 01              push        1
  00403C01: 6A 02              push        2
  00403C03: 6A 00              push        0
  00403C05: E8 ED FE FF FF     call        00403AF7
  00403C0A: 83 C4 0C           add         esp,0Ch
  00403C0D: C3                 ret
  00403C0E: 6A 01              push        1
  00403C10: 6A 00              push        0
  00403C12: 6A 00              push        0
  00403C14: E8 DE FE FF FF     call        00403AF7
  00403C19: 83 C4 0C           add         esp,0Ch
  00403C1C: C3                 ret
  00403C1D: 8B FF              mov         edi,edi
  00403C1F: 55                 push        ebp
  00403C20: 8B EC              mov         ebp,esp
  00403C22: 6A 00              push        0
  00403C24: 6A 02              push        2
  00403C26: FF 75 08           push        dword ptr [ebp+8]
  00403C29: E8 C9 FE FF FF     call        00403AF7
  00403C2E: 83 C4 0C           add         esp,0Ch
  00403C31: 5D                 pop         ebp
  00403C32: C3                 ret
  00403C33: 8B FF              mov         edi,edi
  00403C35: 55                 push        ebp
  00403C36: 8B EC              mov         ebp,esp
  00403C38: A1 BC 3D 41 00     mov         eax,dword ptr ds:[00413DBCh]
  00403C3D: 3B 05 18 30 41 00  cmp         eax,dword ptr ds:[00413018h]
  00403C43: 0F 85 DC 06 00 00  jne         00404325
  00403C49: FF 75 08           push        dword ptr [ebp+8]
  00403C4C: E8 B0 F6 FF FF     call        00403301
  00403C51: 59                 pop         ecx
  00403C52: A3 BC 3D 41 00     mov         dword ptr ds:[00413DBCh],eax
  00403C57: 5D                 pop         ebp
  00403C58: C3                 ret
  00403C59: 8B FF              mov         edi,edi
  00403C5B: 55                 push        ebp
  00403C5C: 8B EC              mov         ebp,esp
  00403C5E: 6A 00              push        0
  00403C60: 6A 00              push        0
  00403C62: FF 75 08           push        dword ptr [ebp+8]
  00403C65: E8 8D FE FF FF     call        00403AF7
  00403C6A: 83 C4 0C           add         esp,0Ch
  00403C6D: 5D                 pop         ebp
  00403C6E: C3                 ret
  00403C6F: 8B FF              mov         edi,edi
  00403C71: 55                 push        ebp
  00403C72: 8B EC              mov         ebp,esp
  00403C74: 8B 45 08           mov         eax,dword ptr [ebp+8]
  00403C77: 3D 00 40 00 00     cmp         eax,4000h
  00403C7C: 74 23              je          00403CA1
  00403C7E: 3D 00 80 00 00     cmp         eax,8000h
  00403C83: 74 1C              je          00403CA1
  00403C85: 3D 00 00 01 00     cmp         eax,10000h
  00403C8A: 74 15              je          00403CA1
  00403C8C: E8 CA 10 00 00     call        00404D5B
  00403C91: C7 00 16 00 00 00  mov         dword ptr [eax],16h
  00403C97: E8 02 10 00 00     call        00404C9E
  00403C9C: 6A 16              push        16h
  00403C9E: 58                 pop         eax
  00403C9F: 5D                 pop         ebp
  00403CA0: C3                 ret
  00403CA1: B9 6C 3F 41 00     mov         ecx,413F6Ch
  00403CA6: 87 01              xchg        eax,dword ptr [ecx]
  00403CA8: 33 C0              xor         eax,eax
  00403CAA: 5D                 pop         ebp
  00403CAB: C3                 ret
  00403CAC: FF 15 88 D0 40 00  call        dword ptr ds:[0040D088h]
  00403CB2: A3 D4 3D 41 00     mov         dword ptr ds:[00413DD4h],eax
  00403CB7: FF 15 8C D0 40 00  call        dword ptr ds:[0040D08Ch]
  00403CBD: A3 D8 3D 41 00     mov         dword ptr ds:[00413DD8h],eax
  00403CC2: B0 01              mov         al,1
  00403CC4: C3                 ret
  00403CC5: B8 C8 3D 41 00     mov         eax,413DC8h
  00403CCA: C3                 ret
  00403CCB: B8 CC 3D 41 00     mov         eax,413DCCh
  00403CD0: C3                 ret
  00403CD1: 6A 0C              push        0Ch
  00403CD3: 68 F8 1F 41 00     push        411FF8h
  00403CD8: E8 13 DB FF FF     call        004017F0
  00403CDD: 8B 45 08           mov         eax,dword ptr [ebp+8]
  00403CE0: FF 30              push        dword ptr [eax]
  00403CE2: E8 DC 28 00 00     call        004065C3
  00403CE7: 59                 pop         ecx
  00403CE8: 83 65 FC 00        and         dword ptr [ebp-4],0
  00403CEC: BE 74 41 41 00     mov         esi,414174h
  00403CF1: BF 80 35 41 00     mov         edi,413580h
  00403CF6: 89 75 E4           mov         dword ptr [ebp-1Ch],esi
  00403CF9: 81 FE 78 41 41 00  cmp         esi,414178h
  00403CFF: 74 14              je          00403D15
  00403D01: 39 3E              cmp         dword ptr [esi],edi
  00403D03: 74 0B              je          00403D10
  00403D05: 57                 push        edi
  00403D06: 56                 push        esi
  00403D07: E8 2E 35 00 00     call        0040723A
  00403D0C: 59                 pop         ecx
  00403D0D: 59                 pop         ecx
  00403D0E: 89 06              mov         dword ptr [esi],eax
  00403D10: 83 C6 04           add         esi,4
  00403D13: EB E1              jmp         00403CF6
  00403D15: C7 45 FC FE FF FF  mov         dword ptr [ebp-4],0FFFFFFFEh
            FF
  00403D1C: E8 12 00 00 00     call        00403D33
  00403D21: 8B 4D F0           mov         ecx,dword ptr [ebp-10h]
  00403D24: 64 89 0D 00 00 00  mov         dword ptr fs:[00000000h],ecx
            00
  00403D2B: 59                 pop         ecx
  00403D2C: 5F                 pop         edi
  00403D2D: 5E                 pop         esi
  00403D2E: 5B                 pop         ebx
  00403D2F: C9                 leave
  00403D30: C2 0C 00           ret         0Ch
  00403D33: 8B 45 10           mov         eax,dword ptr [ebp+10h]
  00403D36: FF 30              push        dword ptr [eax]
  00403D38: E8 CE 28 00 00     call        0040660B
  00403D3D: 59                 pop         ecx
  00403D3E: C3                 ret
  00403D3F: 8B FF              mov         edi,edi
  00403D41: 55                 push        ebp
  00403D42: 8B EC              mov         ebp,esp
  00403D44: 8B 4D 0C           mov         ecx,dword ptr [ebp+0Ch]
  00403D47: 8D 41 01           lea         eax,[ecx+1]
  00403D4A: 3D 00 01 00 00     cmp         eax,100h
  00403D4F: 77 0C              ja          00403D5D
  00403D51: 8B 45 08           mov         eax,dword ptr [ebp+8]
  00403D54: 0F B7 04 48        movzx       eax,word ptr [eax+ecx*2]
  00403D58: 23 45 10           and         eax,dword ptr [ebp+10h]
  00403D5B: 5D                 pop         ebp
  00403D5C: C3                 ret
  00403D5D: 33 C0              xor         eax,eax
  00403D5F: 5D                 pop         ebp
  00403D60: C3                 ret
  00403D61: 33 C0              xor         eax,eax
  00403D63: B9 DC 3D 41 00     mov         ecx,413DDCh
  00403D68: 40                 inc         eax
  00403D69: 87 01              xchg        eax,dword ptr [ecx]
  00403D6B: C3                 ret
  00403D6C: 8B FF              mov         edi,edi
  00403D6E: 55                 push        ebp
  00403D6F: 8B EC              mov         ebp,esp
  00403D71: 83 EC 0C           sub         esp,0Ch
  00403D74: 6A 04              push        4
  00403D76: 58                 pop         eax
  00403D77: 89 45 F8           mov         dword ptr [ebp-8],eax
  00403D7A: 8D 4D FF           lea         ecx,[ebp-1]
  00403D7D: 89 45 F4           mov         dword ptr [ebp-0Ch],eax
  00403D80: 8D 45 F8           lea         eax,[ebp-8]
  00403D83: 50                 push        eax
  00403D84: 8D 45 FF           lea         eax,[ebp-1]
  00403D87: 50                 push        eax
  00403D88: 8D 45 F4           lea         eax,[ebp-0Ch]
  00403D8B: 50                 push        eax
  00403D8C: E8 40 FF FF FF     call        00403CD1
  00403D91: C9                 leave
  00403D92: C3                 ret
  00403D93: 8B FF              mov         edi,edi
  00403D95: 55                 push        ebp
  00403D96: 8B EC              mov         ebp,esp
  00403D98: 56                 push        esi
  00403D99: E8 02 0B 00 00     call        004048A0
  00403D9E: 8B 55 08           mov         edx,dword ptr [ebp+8]
  00403DA1: 8B F0              mov         esi,eax
  00403DA3: 6A 00              push        0
  00403DA5: 58                 pop         eax
  00403DA6: 8B 8E 50 03 00 00  mov         ecx,dword ptr [esi+00000350h]
  00403DAC: F6 C1 02           test        cl,2
  00403DAF: 0F 94 C0           sete        al
  00403DB2: 40                 inc         eax
  00403DB3: 83 FA FF           cmp         edx,0FFFFFFFFh
  00403DB6: 74 33              je          00403DEB
  00403DB8: 85 D2              test        edx,edx
  00403DBA: 74 36              je          00403DF2
  00403DBC: 83 FA 01           cmp         edx,1
  00403DBF: 74 1F              je          00403DE0
  00403DC1: 83 FA 02           cmp         edx,2
  00403DC4: 74 15              je          00403DDB
  00403DC6: E8 90 0F 00 00     call        00404D5B
  00403DCB: C7 00 16 00 00 00  mov         dword ptr [eax],16h
  00403DD1: E8 C8 0E 00 00     call        00404C9E
  00403DD6: 83 C8 FF           or          eax,0FFFFFFFFh
  00403DD9: EB 17              jmp         00403DF2
  00403DDB: 83 E1 FD           and         ecx,0FFFFFFFDh
  00403DDE: EB 03              jmp         00403DE3
  00403DE0: 83 C9 02           or          ecx,2
  00403DE3: 89 8E 50 03 00 00  mov         dword ptr [esi+00000350h],ecx
  00403DE9: EB 07              jmp         00403DF2
  00403DEB: 83 0D A0 36 41 00  or          dword ptr ds:[004136A0h],0FFFFFFFFh
            FF
  00403DF2: 5E                 pop         esi
  00403DF3: 5D                 pop         ebp
  00403DF4: C3                 ret
  00403DF5: A1 E0 3D 41 00     mov         eax,dword ptr ds:[00413DE0h]
  00403DFA: 90                 nop
  00403DFB: C3                 ret
  00403DFC: 8B FF              mov         edi,edi
  00403DFE: 55                 push        ebp
  00403DFF: 8B EC              mov         ebp,esp
  00403E01: 8B 45 08           mov         eax,dword ptr [ebp+8]
  00403E04: 85 C0              test        eax,eax
  00403E06: 74 1A              je          00403E22
  00403E08: 83 F8 01           cmp         eax,1
  00403E0B: 74 15              je          00403E22
  00403E0D: E8 49 0F 00 00     call        00404D5B
  00403E12: C7 00 16 00 00 00  mov         dword ptr [eax],16h
  00403E18: E8 81 0E 00 00     call        00404C9E
  00403E1D: 83 C8 FF           or          eax,0FFFFFFFFh
  00403E20: 5D                 pop         ebp
  00403E21: C3                 ret
  00403E22: B9 E0 3D 41 00     mov         ecx,413DE0h
  00403E27: 87 01              xchg        eax,dword ptr [ecx]
  00403E29: 5D                 pop         ebp
  00403E2A: C3                 ret
  00403E2B: B8 E4 3D 41 00     mov         eax,413DE4h
  00403E30: C3                 ret
  00403E31: 6A 0C              push        0Ch
  00403E33: 68 38 20 41 00     push        412038h
  00403E38: E8 B3 D9 FF FF     call        004017F0
  00403E3D: 83 65 E4 00        and         dword ptr [ebp-1Ch],0
  00403E41: 8B 45 08           mov         eax,dword ptr [ebp+8]
  00403E44: FF 30              push        dword ptr [eax]
  00403E46: E8 78 27 00 00     call        004065C3
  00403E4B: 59                 pop         ecx
  00403E4C: 83 65 FC 00        and         dword ptr [ebp-4],0
  00403E50: 8B 4D 0C           mov         ecx,dword ptr [ebp+0Ch]
  00403E53: E8 B8 01 00 00     call        00404010
  00403E58: 8B F0              mov         esi,eax
  00403E5A: 89 75 E4           mov         dword ptr [ebp-1Ch],esi
  00403E5D: C7 45 FC FE FF FF  mov         dword ptr [ebp-4],0FFFFFFFEh
            FF
  00403E64: E8 17 00 00 00     call        00403E80
  00403E69: 8B C6              mov         eax,esi
  00403E6B: 8B 4D F0           mov         ecx,dword ptr [ebp-10h]
  00403E6E: 64 89 0D 00 00 00  mov         dword ptr fs:[00000000h],ecx
            00
  00403E75: 59                 pop         ecx
  00403E76: 5F                 pop         edi
  00403E77: 5E                 pop         esi
  00403E78: 5B                 pop         ebx
  00403E79: C9                 leave
  00403E7A: C2 0C 00           ret         0Ch
  00403E7D: 8B 75 E4           mov         esi,dword ptr [ebp-1Ch]
  00403E80: 8B 45 10           mov         eax,dword ptr [ebp+10h]
  00403E83: FF 30              push        dword ptr [eax]
  00403E85: E8 81 27 00 00     call        0040660B
  00403E8A: 59                 pop         ecx
  00403E8B: C3                 ret
  00403E8C: 6A 0C              push        0Ch
  00403E8E: 68 18 20 41 00     push        412018h
  00403E93: E8 58 D9 FF FF     call        004017F0
  00403E98: 83 65 E4 00        and         dword ptr [ebp-1Ch],0
  00403E9C: 8B 45 08           mov         eax,dword ptr [ebp+8]
  00403E9F: FF 30              push        dword ptr [eax]
  00403EA1: E8 1D 27 00 00     call        004065C3
  00403EA6: 59                 pop         ecx
  00403EA7: 83 65 FC 00        and         dword ptr [ebp-4],0
  00403EAB: 8B 4D 0C           mov         ecx,dword ptr [ebp+0Ch]
  00403EAE: E8 34 00 00 00     call        00403EE7
  00403EB3: 8B F0              mov         esi,eax
  00403EB5: 89 75 E4           mov         dword ptr [ebp-1Ch],esi
  00403EB8: C7 45 FC FE FF FF  mov         dword ptr [ebp-4],0FFFFFFFEh
            FF
  00403EBF: E8 17 00 00 00     call        00403EDB
  00403EC4: 8B C6              mov         eax,esi
  00403EC6: 8B 4D F0           mov         ecx,dword ptr [ebp-10h]
  00403EC9: 64 89 0D 00 00 00  mov         dword ptr fs:[00000000h],ecx
            00
  00403ED0: 59                 pop         ecx
  00403ED1: 5F                 pop         edi
  00403ED2: 5E                 pop         esi
  00403ED3: 5B                 pop         ebx
  00403ED4: C9                 leave
  00403ED5: C2 0C 00           ret         0Ch
  00403ED8: 8B 75 E4           mov         esi,dword ptr [ebp-1Ch]
  00403EDB: 8B 45 10           mov         eax,dword ptr [ebp+10h]
  00403EDE: FF 30              push        dword ptr [eax]
  00403EE0: E8 26 27 00 00     call        0040660B
  00403EE5: 59                 pop         ecx
  00403EE6: C3                 ret
  00403EE7: 8B FF              mov         edi,edi
  00403EE9: 55                 push        ebp
  00403EEA: 8B EC              mov         ebp,esp
  00403EEC: 83 EC 0C           sub         esp,0Ch
  00403EEF: 8B C1              mov         eax,ecx
  00403EF1: 89 45 F8           mov         dword ptr [ebp-8],eax
  00403EF4: 53                 push        ebx
  00403EF5: 56                 push        esi
  00403EF6: 8B 00              mov         eax,dword ptr [eax]
  00403EF8: 57                 push        edi
  00403EF9: 8B 30              mov         esi,dword ptr [eax]
  00403EFB: 85 F6              test        esi,esi
  00403EFD: 0F 84 05 01 00 00  je          00404008
  00403F03: A1 18 30 41 00     mov         eax,dword ptr ds:[00413018h]
  00403F08: 8B C8              mov         ecx,eax
  00403F0A: 8B 1E              mov         ebx,dword ptr [esi]
  00403F0C: 83 E1 1F           and         ecx,1Fh
  00403F0F: 8B 7E 04           mov         edi,dword ptr [esi+4]
  00403F12: 33 D8              xor         ebx,eax
  00403F14: 8B 76 08           mov         esi,dword ptr [esi+8]
  00403F17: 33 F8              xor         edi,eax
  00403F19: 33 F0              xor         esi,eax
  00403F1B: D3 CF              ror         edi,cl
  00403F1D: D3 CE              ror         esi,cl
  00403F1F: D3 CB              ror         ebx,cl
  00403F21: 3B FE              cmp         edi,esi
  00403F23: 0F 85 9D 00 00 00  jne         00403FC6
  00403F29: 2B F3              sub         esi,ebx
  00403F2B: B8 00 02 00 00     mov         eax,200h
  00403F30: C1 FE 02           sar         esi,2
  00403F33: 3B F0              cmp         esi,eax
  00403F35: 77 02              ja          00403F39
  00403F37: 8B C6              mov         eax,esi
  00403F39: 8D 3C 30           lea         edi,[eax+esi]
  00403F3C: 85 FF              test        edi,edi
  00403F3E: 75 03              jne         00403F43
  00403F40: 6A 20              push        20h
  00403F42: 5F                 pop         edi
  00403F43: 3B FE              cmp         edi,esi
  00403F45: 72 1D              jb          00403F64
  00403F47: 6A 04              push        4
  00403F49: 57                 push        edi
  00403F4A: 53                 push        ebx
  00403F4B: E8 E1 37 00 00     call        00407731
  00403F50: 6A 00              push        0
  00403F52: 89 45 FC           mov         dword ptr [ebp-4],eax
  00403F55: E8 71 0E 00 00     call        00404DCB
  00403F5A: 8B 4D FC           mov         ecx,dword ptr [ebp-4]
  00403F5D: 83 C4 10           add         esp,10h
  00403F60: 85 C9              test        ecx,ecx
  00403F62: 75 24              jne         00403F88
  00403F64: 6A 04              push        4
  00403F66: 8D 7E 04           lea         edi,[esi+4]
  00403F69: 57                 push        edi
  00403F6A: 53                 push        ebx
  00403F6B: E8 C1 37 00 00     call        00407731
  00403F70: 6A 00              push        0
  00403F72: 89 45 FC           mov         dword ptr [ebp-4],eax
  00403F75: E8 51 0E 00 00     call        00404DCB
  00403F7A: 8B 4D FC           mov         ecx,dword ptr [ebp-4]
  00403F7D: 83 C4 10           add         esp,10h
  00403F80: 85 C9              test        ecx,ecx
  00403F82: 0F 84 80 00 00 00  je          00404008
  00403F88: 8D 04 B1           lea         eax,[ecx+esi*4]
  00403F8B: 8B D9              mov         ebx,ecx
  00403F8D: 89 45 FC           mov         dword ptr [ebp-4],eax
  00403F90: 8D 34 B9           lea         esi,[ecx+edi*4]
  00403F93: A1 18 30 41 00     mov         eax,dword ptr ds:[00413018h]
  00403F98: 8B 7D FC           mov         edi,dword ptr [ebp-4]
  00403F9B: 8B CF              mov         ecx,edi
  00403F9D: 89 45 F4           mov         dword ptr [ebp-0Ch],eax
  00403FA0: 8B C6              mov         eax,esi
  00403FA2: 2B C7              sub         eax,edi
  00403FA4: 83 C0 03           add         eax,3
  00403FA7: C1 E8 02           shr         eax,2
  00403FAA: 3B F7              cmp         esi,edi
  00403FAC: 1B D2              sbb         edx,edx
  00403FAE: F7 D2              not         edx
  00403FB0: 23 D0              and         edx,eax
  00403FB2: 74 12              je          00403FC6
  00403FB4: 8B 7D F4           mov         edi,dword ptr [ebp-0Ch]
  00403FB7: 33 C0              xor         eax,eax
  00403FB9: 40                 inc         eax
  00403FBA: 89 39              mov         dword ptr [ecx],edi
  00403FBC: 8D 49 04           lea         ecx,[ecx+4]
  00403FBF: 3B C2              cmp         eax,edx
  00403FC1: 75 F6              jne         00403FB9
  00403FC3: 8B 7D FC           mov         edi,dword ptr [ebp-4]
  00403FC6: 8B 45 F8           mov         eax,dword ptr [ebp-8]
  00403FC9: 8B 40 04           mov         eax,dword ptr [eax+4]
  00403FCC: FF 30              push        dword ptr [eax]
  00403FCE: E8 2E F3 FF FF     call        00403301
  00403FD3: 53                 push        ebx
  00403FD4: 89 07              mov         dword ptr [edi],eax
  00403FD6: E8 26 F3 FF FF     call        00403301
  00403FDB: 8B 5D F8           mov         ebx,dword ptr [ebp-8]
  00403FDE: 8B 0B              mov         ecx,dword ptr [ebx]
  00403FE0: 8B 09              mov         ecx,dword ptr [ecx]
  00403FE2: 89 01              mov         dword ptr [ecx],eax
  00403FE4: 8D 47 04           lea         eax,[edi+4]
  00403FE7: 50                 push        eax
  00403FE8: E8 14 F3 FF FF     call        00403301
  00403FED: 8B 0B              mov         ecx,dword ptr [ebx]
  00403FEF: 56                 push        esi
  00403FF0: 8B 09              mov         ecx,dword ptr [ecx]
  00403FF2: 89 41 04           mov         dword ptr [ecx+4],eax
  00403FF5: E8 07 F3 FF FF     call        00403301
  00403FFA: 8B 0B              mov         ecx,dword ptr [ebx]
  00403FFC: 83 C4 10           add         esp,10h
  00403FFF: 8B 09              mov         ecx,dword ptr [ecx]
  00404001: 89 41 08           mov         dword ptr [ecx+8],eax
  00404004: 33 C0              xor         eax,eax
  00404006: EB 03              jmp         0040400B
  00404008: 83 C8 FF           or          eax,0FFFFFFFFh
  0040400B: 5F                 pop         edi
  0040400C: 5E                 pop         esi
  0040400D: 5B                 pop         ebx
  0040400E: C9                 leave
  0040400F: C3                 ret
  00404010: 8B FF              mov         edi,edi
  00404012: 55                 push        ebp
  00404013: 8B EC              mov         ebp,esp
  00404015: 83 EC 14           sub         esp,14h
  00404018: 53                 push        ebx
  00404019: 8B D9              mov         ebx,ecx
  0040401B: 57                 push        edi
  0040401C: 89 5D EC           mov         dword ptr [ebp-14h],ebx
  0040401F: 8B 03              mov         eax,dword ptr [ebx]
  00404021: 8B 38              mov         edi,dword ptr [eax]
  00404023: 85 FF              test        edi,edi
  00404025: 75 08              jne         0040402F
  00404027: 83 C8 FF           or          eax,0FFFFFFFFh
  0040402A: E9 B7 00 00 00     jmp         004040E6
  0040402F: 8B 15 18 30 41 00  mov         edx,dword ptr ds:[00413018h]
  00404035: 8B CA              mov         ecx,edx
  00404037: 56                 push        esi
  00404038: 8B 37              mov         esi,dword ptr [edi]
  0040403A: 83 E1 1F           and         ecx,1Fh
  0040403D: 8B 7F 04           mov         edi,dword ptr [edi+4]
  00404040: 33 F2              xor         esi,edx
  00404042: 33 FA              xor         edi,edx
  00404044: D3 CE              ror         esi,cl
  00404046: D3 CF              ror         edi,cl
  00404048: 85 F6              test        esi,esi
  0040404A: 0F 84 93 00 00 00  je          004040E3
  00404050: 83 FE FF           cmp         esi,0FFFFFFFFh
  00404053: 0F 84 8A 00 00 00  je          004040E3
  00404059: 89 55 FC           mov         dword ptr [ebp-4],edx
  0040405C: 89 7D F4           mov         dword ptr [ebp-0Ch],edi
  0040405F: 89 75 F8           mov         dword ptr [ebp-8],esi
  00404062: 83 EF 04           sub         edi,4
  00404065: 3B FE              cmp         edi,esi
  00404067: 72 54              jb          004040BD
  00404069: 8B 07              mov         eax,dword ptr [edi]
  0040406B: 3B 45 FC           cmp         eax,dword ptr [ebp-4]
  0040406E: 74 F2              je          00404062
  00404070: 33 C2              xor         eax,edx
  00404072: 8B 55 FC           mov         edx,dword ptr [ebp-4]
  00404075: D3 C8              ror         eax,cl
  00404077: 8B C8              mov         ecx,eax
  00404079: 89 17              mov         dword ptr [edi],edx
  0040407B: 89 45 F0           mov         dword ptr [ebp-10h],eax
  0040407E: FF 15 08 D1 40 00  call        dword ptr ds:[0040D108h]
  00404084: FF 55 F0           call        dword ptr [ebp-10h]
  00404087: 8B 03              mov         eax,dword ptr [ebx]
  00404089: 8B 15 18 30 41 00  mov         edx,dword ptr ds:[00413018h]
  0040408F: 8B CA              mov         ecx,edx
  00404091: 83 E1 1F           and         ecx,1Fh
  00404094: 8B 00              mov         eax,dword ptr [eax]
  00404096: 8B 18              mov         ebx,dword ptr [eax]
  00404098: 8B 40 04           mov         eax,dword ptr [eax+4]
  0040409B: 33 DA              xor         ebx,edx
  0040409D: D3 CB              ror         ebx,cl
  0040409F: 33 C2              xor         eax,edx
  004040A1: D3 C8              ror         eax,cl
  004040A3: 3B 5D F8           cmp         ebx,dword ptr [ebp-8]
  004040A6: 89 5D F0           mov         dword ptr [ebp-10h],ebx
  004040A9: 8B 5D EC           mov         ebx,dword ptr [ebp-14h]
  004040AC: 75 05              jne         004040B3
  004040AE: 3B 45 F4           cmp         eax,dword ptr [ebp-0Ch]
  004040B1: 74 AF              je          00404062
  004040B3: 8B 75 F0           mov         esi,dword ptr [ebp-10h]
  004040B6: 8B F8              mov         edi,eax
  004040B8: 89 45 F4           mov         dword ptr [ebp-0Ch],eax
  004040BB: EB A2              jmp         0040405F
  004040BD: 83 FE FF           cmp         esi,0FFFFFFFFh
  004040C0: 74 0D              je          004040CF
  004040C2: 56                 push        esi
  004040C3: E8 03 0D 00 00     call        00404DCB
  004040C8: 8B 15 18 30 41 00  mov         edx,dword ptr ds:[00413018h]
  004040CE: 59                 pop         ecx
  004040CF: 8B 03              mov         eax,dword ptr [ebx]
  004040D1: 8B 00              mov         eax,dword ptr [eax]
  004040D3: 89 10              mov         dword ptr [eax],edx
  004040D5: 8B 03              mov         eax,dword ptr [ebx]
  004040D7: 8B 00              mov         eax,dword ptr [eax]
  004040D9: 89 50 04           mov         dword ptr [eax+4],edx
  004040DC: 8B 03              mov         eax,dword ptr [ebx]
  004040DE: 8B 00              mov         eax,dword ptr [eax]
  004040E0: 89 50 08           mov         dword ptr [eax+8],edx
  004040E3: 33 C0              xor         eax,eax
  004040E5: 5E                 pop         esi
  004040E6: 5F                 pop         edi
  004040E7: 5B                 pop         ebx
  004040E8: C9                 leave
  004040E9: C3                 ret
  004040EA: 8B FF              mov         edi,edi
  004040EC: 55                 push        ebp
  004040ED: 8B EC              mov         ebp,esp
  004040EF: FF 75 08           push        dword ptr [ebp+8]
  004040F2: 68 E8 3D 41 00     push        413DE8h
  004040F7: E8 5A 00 00 00     call        00404156
  004040FC: 59                 pop         ecx
  004040FD: 59                 pop         ecx
  004040FE: 5D                 pop         ebp
  004040FF: C3                 ret
  00404100: 8B FF              mov         edi,edi
  00404102: 55                 push        ebp
  00404103: 8B EC              mov         ebp,esp
  00404105: 83 EC 10           sub         esp,10h
  00404108: 6A 02              push        2
  0040410A: 8D 45 08           lea         eax,[ebp+8]
  0040410D: 89 45 F4           mov         dword ptr [ebp-0Ch],eax
  00404110: 8D 4D FF           lea         ecx,[ebp-1]
  00404113: 58                 pop         eax
  00404114: 89 45 F8           mov         dword ptr [ebp-8],eax
  00404117: 89 45 F0           mov         dword ptr [ebp-10h],eax
  0040411A: 8D 45 F8           lea         eax,[ebp-8]
  0040411D: 50                 push        eax
  0040411E: 8D 45 F4           lea         eax,[ebp-0Ch]
  00404121: 50                 push        eax
  00404122: 8D 45 F0           lea         eax,[ebp-10h]
  00404125: 50                 push        eax
  00404126: E8 06 FD FF FF     call        00403E31
  0040412B: C9                 leave
  0040412C: C3                 ret
  0040412D: 8B FF              mov         edi,edi
  0040412F: 55                 push        ebp
  00404130: 8B EC              mov         ebp,esp
  00404132: 8B 4D 08           mov         ecx,dword ptr [ebp+8]
  00404135: 85 C9              test        ecx,ecx
  00404137: 75 05              jne         0040413E
  00404139: 83 C8 FF           or          eax,0FFFFFFFFh
  0040413C: 5D                 pop         ebp
  0040413D: C3                 ret
  0040413E: 8B 01              mov         eax,dword ptr [ecx]
  00404140: 3B 41 08           cmp         eax,dword ptr [ecx+8]
  00404143: 75 0D              jne         00404152
  00404145: A1 18 30 41 00     mov         eax,dword ptr ds:[00413018h]
  0040414A: 89 01              mov         dword ptr [ecx],eax
  0040414C: 89 41 04           mov         dword ptr [ecx+4],eax
  0040414F: 89 41 08           mov         dword ptr [ecx+8],eax
  00404152: 33 C0              xor         eax,eax
  00404154: 5D                 pop         ebp
  00404155: C3                 ret
  00404156: 8B FF              mov         edi,edi
  00404158: 55                 push        ebp
  00404159: 8B EC              mov         ebp,esp
  0040415B: 83 EC 14           sub         esp,14h
  0040415E: 8D 45 08           lea         eax,[ebp+8]
  00404161: 89 45 EC           mov         dword ptr [ebp-14h],eax
  00404164: 8D 4D FF           lea         ecx,[ebp-1]
  00404167: 6A 02              push        2
  00404169: 8D 45 0C           lea         eax,[ebp+0Ch]
  0040416C: 89 45 F0           mov         dword ptr [ebp-10h],eax
  0040416F: 58                 pop         eax
  00404170: 89 45 F8           mov         dword ptr [ebp-8],eax
  00404173: 89 45 F4           mov         dword ptr [ebp-0Ch],eax
  00404176: 8D 45 F8           lea         eax,[ebp-8]
  00404179: 50                 push        eax
  0040417A: 8D 45 EC           lea         eax,[ebp-14h]
  0040417D: 50                 push        eax
  0040417E: 8D 45 F4           lea         eax,[ebp-0Ch]
  00404181: 50                 push        eax
  00404182: E8 05 FD FF FF     call        00403E8C
  00404187: C9                 leave
  00404188: C3                 ret
  00404189: C7 05 74 41 41 00  mov         dword ptr ds:[00414174h],413580h
            80 35 41 00
  00404193: B0 01              mov         al,1
  00404195: C3                 ret
  00404196: 68 E8 3D 41 00     push        413DE8h
  0040419B: E8 8D FF FF FF     call        0040412D
  004041A0: C7 04 24 F4 3D 41  mov         dword ptr [esp],413DF4h
            00
  004041A7: E8 81 FF FF FF     call        0040412D
  004041AC: 59                 pop         ecx
  004041AD: B0 01              mov         al,1
  004041AF: C3                 ret
  004041B0: E8 45 F7 FF FF     call        004038FA
  004041B5: B0 01              mov         al,1
  004041B7: C3                 ret
  004041B8: 8B FF              mov         edi,edi
  004041BA: 56                 push        esi
  004041BB: 8B 35 18 30 41 00  mov         esi,dword ptr ds:[00413018h]
  004041C1: 56                 push        esi
  004041C2: E8 64 0A 00 00     call        00404C2B
  004041C7: 56                 push        esi
  004041C8: E8 85 36 00 00     call        00407852
  004041CD: 56                 push        esi
  004041CE: E8 0C 38 00 00     call        004079DF
  004041D3: 56                 push        esi
  004041D4: E8 5F F1 FF FF     call        00403338
  004041D9: 56                 push        esi
  004041DA: E8 11 FA FF FF     call        00403BF0
  004041DF: 83 C4 14           add         esp,14h
  004041E2: B0 01              mov         al,1
  004041E4: 5E                 pop         esi
  004041E5: C3                 ret
  004041E6: 6A 00              push        0
  004041E8: E8 30 DB FF FF     call        00401D1D
  004041ED: 59                 pop         ecx
  004041EE: C3                 ret
  004041EF: 8B FF              mov         edi,edi
  004041F1: 55                 push        ebp
  004041F2: 8B EC              mov         ebp,esp
  004041F4: 51                 push        ecx
  004041F5: 68 0C 3E 41 00     push        413E0Ch
  004041FA: 8D 4D FF           lea         ecx,[ebp-1]
  004041FD: E8 54 00 00 00     call        00404256
  00404202: B0 01              mov         al,1
  00404204: C9                 leave
  00404205: C3                 ret
  00404206: 8B FF              mov         edi,edi
  00404208: 56                 push        esi
  00404209: FF 35 78 42 41 00  push        dword ptr ds:[00414278h]
  0040420F: E8 B7 0B 00 00     call        00404DCB
  00404214: FF 35 7C 42 41 00  push        dword ptr ds:[0041427Ch]
  0040421A: 33 F6              xor         esi,esi
  0040421C: 89 35 78 42 41 00  mov         dword ptr ds:[00414278h],esi
  00404222: E8 A4 0B 00 00     call        00404DCB
  00404227: FF 35 CC 3D 41 00  push        dword ptr ds:[00413DCCh]
  0040422D: 89 35 7C 42 41 00  mov         dword ptr ds:[0041427Ch],esi
  00404233: E8 93 0B 00 00     call        00404DCB
  00404238: FF 35 D0 3D 41 00  push        dword ptr ds:[00413DD0h]
  0040423E: 89 35 CC 3D 41 00  mov         dword ptr ds:[00413DCCh],esi
  00404244: E8 82 0B 00 00     call        00404DCB
  00404249: 83 C4 10           add         esp,10h
  0040424C: 89 35 D0 3D 41 00  mov         dword ptr ds:[00413DD0h],esi
  00404252: B0 01              mov         al,1
  00404254: 5E                 pop         esi
  00404255: C3                 ret
  00404256: 8B FF              mov         edi,edi
  00404258: 55                 push        ebp
  00404259: 8B EC              mov         ebp,esp
  0040425B: 56                 push        esi
  0040425C: 8B 75 08           mov         esi,dword ptr [ebp+8]
  0040425F: 83 C9 FF           or          ecx,0FFFFFFFFh
  00404262: 8B 06              mov         eax,dword ptr [esi]
  00404264: F0 0F C1 08        lock xadd   dword ptr [eax],ecx
  00404268: 75 15              jne         0040427F
  0040426A: 57                 push        edi
  0040426B: BF 60 30 41 00     mov         edi,413060h
  00404270: 39 3E              cmp         dword ptr [esi],edi
  00404272: 74 0A              je          0040427E
  00404274: FF 36              push        dword ptr [esi]
  00404276: E8 50 0B 00 00     call        00404DCB
  0040427B: 59                 pop         ecx
  0040427C: 89 3E              mov         dword ptr [esi],edi
  0040427E: 5F                 pop         edi
  0040427F: 5E                 pop         esi
  00404280: 5D                 pop         ebp
  00404281: C2 04 00           ret         4
  00404284: 68 60 DD 40 00     push        40DD60h
  00404289: 68 E0 DC 40 00     push        40DCE0h
  0040428E: E8 26 35 00 00     call        004077B9
  00404293: 59                 pop         ecx
  00404294: 59                 pop         ecx
  00404295: C3                 ret
  00404296: 8B FF              mov         edi,edi
  00404298: 55                 push        ebp
  00404299: 8B EC              mov         ebp,esp
  0040429B: 80 7D 08 00        cmp         byte ptr [ebp+8],0
  0040429F: 74 12              je          004042B3
  004042A1: 83 3D 74 42 41 00  cmp         dword ptr ds:[00414274h],0
            00
  004042A8: 74 05              je          004042AF
  004042AA: E8 DC 3B 00 00     call        00407E8B
  004042AF: B0 01              mov         al,1
  004042B1: 5D                 pop         ebp
  004042B2: C3                 ret
  004042B3: 68 60 DD 40 00     push        40DD60h
  004042B8: 68 E0 DC 40 00     push        40DCE0h
  004042BD: E8 5F 35 00 00     call        00407821
  004042C2: 59                 pop         ecx
  004042C3: 59                 pop         ecx
  004042C4: 5D                 pop         ebp
  004042C5: C3                 ret
  004042C6: 8B FF              mov         edi,edi
  004042C8: 55                 push        ebp
  004042C9: 8B EC              mov         ebp,esp
  004042CB: 8B 4D 10           mov         ecx,dword ptr [ebp+10h]
  004042CE: 8B 45 0C           mov         eax,dword ptr [ebp+0Ch]
  004042D1: 81 E1 FF FF F7 FF  and         ecx,0FFF7FFFFh
  004042D7: 23 C1              and         eax,ecx
  004042D9: 56                 push        esi
  004042DA: 8B 75 08           mov         esi,dword ptr [ebp+8]
  004042DD: A9 E0 FC F0 FC     test        eax,0FCF0FCE0h
  004042E2: 74 24              je          00404308
  004042E4: 85 F6              test        esi,esi
  004042E6: 74 0D              je          004042F5
  004042E8: 6A 00              push        0
  004042EA: 6A 00              push        0
  004042EC: E8 86 3D 00 00     call        00408077
  004042F1: 59                 pop         ecx
  004042F2: 59                 pop         ecx
  004042F3: 89 06              mov         dword ptr [esi],eax
  004042F5: E8 61 0A 00 00     call        00404D5B
  004042FA: 6A 16              push        16h
  004042FC: 5E                 pop         esi
  004042FD: 89 30              mov         dword ptr [eax],esi
  004042FF: E8 9A 09 00 00     call        00404C9E
  00404304: 8B C6              mov         eax,esi
  00404306: EB 1A              jmp         00404322
  00404308: 51                 push        ecx
  00404309: FF 75 0C           push        dword ptr [ebp+0Ch]
  0040430C: 85 F6              test        esi,esi
  0040430E: 74 09              je          00404319
  00404310: E8 62 3D 00 00     call        00408077
  00404315: 89 06              mov         dword ptr [esi],eax
  00404317: EB 05              jmp         0040431E
  00404319: E8 59 3D 00 00     call        00408077
  0040431E: 59                 pop         ecx
  0040431F: 59                 pop         ecx
  00404320: 33 C0              xor         eax,eax
  00404322: 5E                 pop         esi
  00404323: 5D                 pop         ebp
  00404324: C3                 ret
  00404325: 6A 08              push        8
  00404327: 68 58 20 41 00     push        412058h
  0040432C: E8 BF D4 FF FF     call        004017F0
  00404331: E8 6A 05 00 00     call        004048A0
  00404336: 8B 70 0C           mov         esi,dword ptr [eax+0Ch]
  00404339: 85 F6              test        esi,esi
  0040433B: 74 1E              je          0040435B
  0040433D: 83 65 FC 00        and         dword ptr [ebp-4],0
  00404341: 8B CE              mov         ecx,esi
  00404343: FF 15 08 D1 40 00  call        dword ptr ds:[0040D108h]
  00404349: FF D6              call        esi
  0040434B: EB 07              jmp         00404354
  0040434D: 33 C0              xor         eax,eax
  0040434F: 40                 inc         eax
  00404350: C3                 ret
  00404351: 8B 65 E8           mov         esp,dword ptr [ebp-18h]
  00404354: C7 45 FC FE FF FF  mov         dword ptr [ebp-4],0FFFFFFFEh
            FF
  0040435B: E8 76 00 00 00     call        004043D6
  00404360: CC                 int         3
  00404361: 8B FF              mov         edi,edi
  00404363: 55                 push        ebp
  00404364: 8B EC              mov         ebp,esp
  00404366: 51                 push        ecx
  00404367: FF 75 08           push        dword ptr [ebp+8]
  0040436A: C7 45 FC 00 00 00  mov         dword ptr [ebp-4],0
            00
  00404371: 8B 45 FC           mov         eax,dword ptr [ebp-4]
  00404374: E8 52 0A 00 00     call        00404DCB
  00404379: 59                 pop         ecx
  0040437A: C9                 leave
  0040437B: C3                 ret
  0040437C: 8B FF              mov         edi,edi
  0040437E: 55                 push        ebp
  0040437F: 8B EC              mov         ebp,esp
  00404381: 8B 55 08           mov         edx,dword ptr [ebp+8]
  00404384: 56                 push        esi
  00404385: 85 D2              test        edx,edx
  00404387: 74 11              je          0040439A
  00404389: 8B 4D 0C           mov         ecx,dword ptr [ebp+0Ch]
  0040438C: 85 C9              test        ecx,ecx
  0040438E: 74 0A              je          0040439A
  00404390: 8B 75 10           mov         esi,dword ptr [ebp+10h]
  00404393: 85 F6              test        esi,esi
  00404395: 75 17              jne         004043AE
  00404397: C6 02 00           mov         byte ptr [edx],0
  0040439A: E8 BC 09 00 00     call        00404D5B
  0040439F: 6A 16              push        16h
  004043A1: 5E                 pop         esi
  004043A2: 89 30              mov         dword ptr [eax],esi
  004043A4: E8 F5 08 00 00     call        00404C9E
  004043A9: 8B C6              mov         eax,esi
  004043AB: 5E                 pop         esi
  004043AC: 5D                 pop         ebp
  004043AD: C3                 ret
  004043AE: 57                 push        edi
  004043AF: 8B FA              mov         edi,edx
  004043B1: 2B F2              sub         esi,edx
  004043B3: 8A 04 3E           mov         al,byte ptr [esi+edi]
  004043B6: 88 07              mov         byte ptr [edi],al
  004043B8: 47                 inc         edi
  004043B9: 84 C0              test        al,al
  004043BB: 74 05              je          004043C2
  004043BD: 83 E9 01           sub         ecx,1
  004043C0: 75 F1              jne         004043B3
  004043C2: 5F                 pop         edi
  004043C3: 85 C9              test        ecx,ecx
  004043C5: 75 0B              jne         004043D2
  004043C7: 88 0A              mov         byte ptr [edx],cl
  004043C9: E8 8D 09 00 00     call        00404D5B
  004043CE: 6A 22              push        22h
  004043D0: EB CF              jmp         004043A1
  004043D2: 33 F6              xor         esi,esi
  004043D4: EB D3              jmp         004043A9
  004043D6: E8 DD 35 00 00     call        004079B8
  004043DB: 85 C0              test        eax,eax
  004043DD: 74 08              je          004043E7
  004043DF: 6A 16              push        16h
  004043E1: E8 20 36 00 00     call        00407A06
  004043E6: 59                 pop         ecx
  004043E7: F6 05 40 30 41 00  test        byte ptr ds:[00413040h],2
            02
  004043EE: 74 22              je          00404412
  004043F0: 6A 17              push        17h
  004043F2: FF 15 24 D0 40 00  call        dword ptr ds:[0040D024h]
  004043F8: 85 C0              test        eax,eax
  004043FA: 74 05              je          00404401
  004043FC: 6A 07              push        7
  004043FE: 59                 pop         ecx
  004043FF: CD 29              int         29h
  00404401: 6A 01              push        1
  00404403: 68 15 00 00 40     push        40000015h
  00404408: 6A 03              push        3
  0040440A: E8 E3 06 00 00     call        00404AF2
  0040440F: 83 C4 0C           add         esp,0Ch
  00404412: 6A 03              push        3
  00404414: E8 04 F8 FF FF     call        00403C1D
  00404419: CC                 int         3
  0040441A: 8B FF              mov         edi,edi
  0040441C: 55                 push        ebp
  0040441D: 8B EC              mov         ebp,esp
  0040441F: 5D                 pop         ebp
  00404420: E9 49 09 00 00     jmp         00404D6E
  00404425: 8B FF              mov         edi,edi
  00404427: 55                 push        ebp
  00404428: 8B EC              mov         ebp,esp
  0040442A: 53                 push        ebx
  0040442B: 57                 push        edi
  0040442C: 8B F9              mov         edi,ecx
  0040442E: 8B 4D 08           mov         ecx,dword ptr [ebp+8]
  00404431: C6 47 0C 00        mov         byte ptr [edi+0Ch],0
  00404435: 8D 5F 04           lea         ebx,[edi+4]
  00404438: 85 C9              test        ecx,ecx
  0040443A: 74 09              je          00404445
  0040443C: 8B 01              mov         eax,dword ptr [ecx]
  0040443E: 89 03              mov         dword ptr [ebx],eax
  00404440: 8B 41 04           mov         eax,dword ptr [ecx+4]
  00404443: EB 15              jmp         0040445A
  00404445: 83 3D DC 3D 41 00  cmp         dword ptr ds:[00413DDCh],0
            00
  0040444C: 75 11              jne         0040445F
  0040444E: A1 38 36 41 00     mov         eax,dword ptr ds:[00413638h]
  00404453: 89 03              mov         dword ptr [ebx],eax
  00404455: A1 3C 36 41 00     mov         eax,dword ptr ds:[0041363Ch]
  0040445A: 89 43 04           mov         dword ptr [ebx+4],eax
  0040445D: EB 41              jmp         004044A0
  0040445F: 56                 push        esi
  00404460: E8 3B 04 00 00     call        004048A0
  00404465: 89 07              mov         dword ptr [edi],eax
  00404467: 8D 77 08           lea         esi,[edi+8]
  0040446A: 53                 push        ebx
  0040446B: 50                 push        eax
  0040446C: 8B 48 4C           mov         ecx,dword ptr [eax+4Ch]
  0040446F: 89 0B              mov         dword ptr [ebx],ecx
  00404471: 8B 48 48           mov         ecx,dword ptr [eax+48h]
  00404474: 89 0E              mov         dword ptr [esi],ecx
  00404476: E8 F7 40 00 00     call        00408572
  0040447B: 56                 push        esi
  0040447C: FF 37              push        dword ptr [edi]
  0040447E: E8 1C 41 00 00     call        0040859F
  00404483: 8B 0F              mov         ecx,dword ptr [edi]
  00404485: 83 C4 10           add         esp,10h
  00404488: 8B 81 50 03 00 00  mov         eax,dword ptr [ecx+00000350h]
  0040448E: 5E                 pop         esi
  0040448F: A8 02              test        al,2
  00404491: 75 0D              jne         004044A0
  00404493: 83 C8 02           or          eax,2
  00404496: 89 81 50 03 00 00  mov         dword ptr [ecx+00000350h],eax
  0040449C: C6 47 0C 01        mov         byte ptr [edi+0Ch],1
  004044A0: 8B C7              mov         eax,edi
  004044A2: 5F                 pop         edi
  004044A3: 5B                 pop         ebx
  004044A4: 5D                 pop         ebp
  004044A5: C2 04 00           ret         4
  004044A8: CC                 int         3
  004044A9: CC                 int         3
  004044AA: CC                 int         3
  004044AB: CC                 int         3
  004044AC: CC                 int         3
  004044AD: CC                 int         3
  004044AE: CC                 int         3
  004044AF: CC                 int         3
  004044B0: 53                 push        ebx
  004044B1: 56                 push        esi
  004044B2: 8B 4C 24 0C        mov         ecx,dword ptr [esp+0Ch]
  004044B6: 8B 54 24 10        mov         edx,dword ptr [esp+10h]
  004044BA: 8B 5C 24 14        mov         ebx,dword ptr [esp+14h]
  004044BE: F7 C3 FF FF FF FF  test        ebx,0FFFFFFFFh
  004044C4: 74 50              je          00404516
  004044C6: 2B CA              sub         ecx,edx
  004044C8: F7 C2 03 00 00 00  test        edx,3
  004044CE: 74 17              je          004044E7
  004044D0: 0F B6 04 11        movzx       eax,byte ptr [ecx+edx]
  004044D4: 3A 02              cmp         al,byte ptr [edx]
  004044D6: 75 48              jne         00404520
  004044D8: 85 C0              test        eax,eax
  004044DA: 74 3A              je          00404516
  004044DC: 42                 inc         edx
  004044DD: 83 EB 01           sub         ebx,1
  004044E0: 76 34              jbe         00404516
  004044E2: F6 C2 03           test        dl,3
  004044E5: 75 E9              jne         004044D0
  004044E7: 8D 04 11           lea         eax,[ecx+edx]
  004044EA: 25 FF 0F 00 00     and         eax,0FFFh
  004044EF: 3D FC 0F 00 00     cmp         eax,0FFCh
  004044F4: 77 DA              ja          004044D0
  004044F6: 8B 04 11           mov         eax,dword ptr [ecx+edx]
  004044F9: 3B 02              cmp         eax,dword ptr [edx]
  004044FB: 75 D3              jne         004044D0
  004044FD: 83 EB 04           sub         ebx,4
  00404500: 76 14              jbe         00404516
  00404502: 8D B0 FF FE FE FE  lea         esi,[eax+FEFEFEFFh]
  00404508: 83 C2 04           add         edx,4
  0040450B: F7 D0              not         eax
  0040450D: 23 C6              and         eax,esi
  0040450F: A9 80 80 80 80     test        eax,80808080h
  00404514: 74 D1              je          004044E7
  00404516: 33 C0              xor         eax,eax
  00404518: 5E                 pop         esi
  00404519: 5B                 pop         ebx
  0040451A: C3                 ret
  0040451B: EB 03              jmp         00404520
  0040451D: CC                 int         3
  0040451E: CC                 int         3
  0040451F: CC                 int         3
  00404520: 1B C0              sbb         eax,eax
  00404522: 83 C8 01           or          eax,1
  00404525: 5E                 pop         esi
  00404526: 5B                 pop         ebx
  00404527: C3                 ret
  00404528: 8B FF              mov         edi,edi
  0040452A: 55                 push        ebp
  0040452B: 8B EC              mov         ebp,esp
  0040452D: 8B 45 10           mov         eax,dword ptr [ebp+10h]
  00404530: 85 C0              test        eax,eax
  00404532: 75 02              jne         00404536
  00404534: 5D                 pop         ebp
  00404535: C3                 ret
  00404536: 8B 4D 0C           mov         ecx,dword ptr [ebp+0Ch]
  00404539: 8B 55 08           mov         edx,dword ptr [ebp+8]
  0040453C: 56                 push        esi
  0040453D: 83 E8 01           sub         eax,1
  00404540: 74 15              je          00404557
  00404542: 0F B7 32           movzx       esi,word ptr [edx]
  00404545: 66 85 F6           test        si,si
  00404548: 74 0D              je          00404557
  0040454A: 66 3B 31           cmp         si,word ptr [ecx]
  0040454D: 75 08              jne         00404557
  0040454F: 83 C2 02           add         edx,2
  00404552: 83 C1 02           add         ecx,2
  00404555: EB E6              jmp         0040453D
  00404557: 0F B7 02           movzx       eax,word ptr [edx]
  0040455A: 0F B7 09           movzx       ecx,word ptr [ecx]
  0040455D: 2B C1              sub         eax,ecx
  0040455F: 5E                 pop         esi
  00404560: 5D                 pop         ebp
  00404561: C3                 ret
  00404562: 6A 08              push        8
  00404564: 68 78 20 41 00     push        412078h
  00404569: E8 82 D2 FF FF     call        004017F0
  0040456E: 8B 45 08           mov         eax,dword ptr [ebp+8]
  00404571: FF 30              push        dword ptr [eax]
  00404573: E8 4B 20 00 00     call        004065C3
  00404578: 59                 pop         ecx
  00404579: 83 65 FC 00        and         dword ptr [ebp-4],0
  0040457D: 8B 45 0C           mov         eax,dword ptr [ebp+0Ch]
  00404580: 8B 00              mov         eax,dword ptr [eax]
  00404582: 8B 00              mov         eax,dword ptr [eax]
  00404584: 8B 40 48           mov         eax,dword ptr [eax+48h]
  00404587: F0 FF 00           lock inc    dword ptr [eax]
  0040458A: C7 45 FC FE FF FF  mov         dword ptr [ebp-4],0FFFFFFFEh
            FF
  00404591: E8 12 00 00 00     call        004045A8
  00404596: 8B 4D F0           mov         ecx,dword ptr [ebp-10h]
  00404599: 64 89 0D 00 00 00  mov         dword ptr fs:[00000000h],ecx
            00
  004045A0: 59                 pop         ecx
  004045A1: 5F                 pop         edi
  004045A2: 5E                 pop         esi
  004045A3: 5B                 pop         ebx
  004045A4: C9                 leave
  004045A5: C2 0C 00           ret         0Ch
  004045A8: 8B 45 10           mov         eax,dword ptr [ebp+10h]
  004045AB: FF 30              push        dword ptr [eax]
  004045AD: E8 59 20 00 00     call        0040660B
  004045B2: 59                 pop         ecx
  004045B3: C3                 ret
  004045B4: 6A 08              push        8
  004045B6: 68 B8 20 41 00     push        4120B8h
  004045BB: E8 30 D2 FF FF     call        004017F0
  004045C0: 8B 45 08           mov         eax,dword ptr [ebp+8]
  004045C3: FF 30              push        dword ptr [eax]
  004045C5: E8 F9 1F 00 00     call        004065C3
  004045CA: 59                 pop         ecx
  004045CB: 83 65 FC 00        and         dword ptr [ebp-4],0
  004045CF: 8B 45 0C           mov         eax,dword ptr [ebp+0Ch]
  004045D2: 8B 00              mov         eax,dword ptr [eax]
  004045D4: 8B 00              mov         eax,dword ptr [eax]
  004045D6: 8B 48 48           mov         ecx,dword ptr [eax+48h]
  004045D9: 85 C9              test        ecx,ecx
  004045DB: 74 18              je          004045F5
  004045DD: 83 C8 FF           or          eax,0FFFFFFFFh
  004045E0: F0 0F C1 01        lock xadd   dword ptr [ecx],eax
  004045E4: 75 0F              jne         004045F5
  004045E6: 81 F9 60 30 41 00  cmp         ecx,413060h
  004045EC: 74 07              je          004045F5
  004045EE: 51                 push        ecx
  004045EF: E8 D7 07 00 00     call        00404DCB
  004045F4: 59                 pop         ecx
  004045F5: C7 45 FC FE FF FF  mov         dword ptr [ebp-4],0FFFFFFFEh
            FF
  004045FC: E8 12 00 00 00     call        00404613
  00404601: 8B 4D F0           mov         ecx,dword ptr [ebp-10h]
  00404604: 64 89 0D 00 00 00  mov         dword ptr fs:[00000000h],ecx
            00
  0040460B: 59                 pop         ecx
  0040460C: 5F                 pop         edi
  0040460D: 5E                 pop         esi
  0040460E: 5B                 pop         ebx
  0040460F: C9                 leave
  00404610: C2 0C 00           ret         0Ch
  00404613: 8B 45 10           mov         eax,dword ptr [ebp+10h]
  00404616: FF 30              push        dword ptr [eax]
  00404618: E8 EE 1F 00 00     call        0040660B
  0040461D: 59                 pop         ecx
  0040461E: C3                 ret
  0040461F: 6A 08              push        8
  00404621: 68 D8 20 41 00     push        4120D8h
  00404626: E8 C5 D1 FF FF     call        004017F0
  0040462B: 8B 45 08           mov         eax,dword ptr [ebp+8]
  0040462E: FF 30              push        dword ptr [eax]
  00404630: E8 8E 1F 00 00     call        004065C3
  00404635: 59                 pop         ecx
  00404636: 83 65 FC 00        and         dword ptr [ebp-4],0
  0040463A: 6A 00              push        0
  0040463C: 8B 45 0C           mov         eax,dword ptr [ebp+0Ch]
  0040463F: 8B 00              mov         eax,dword ptr [eax]
  00404641: FF 30              push        dword ptr [eax]
  00404643: E8 0D 02 00 00     call        00404855
  00404648: 59                 pop         ecx
  00404649: 59                 pop         ecx
  0040464A: C7 45 FC FE FF FF  mov         dword ptr [ebp-4],0FFFFFFFEh
            FF
  00404651: E8 12 00 00 00     call        00404668
  00404656: 8B 4D F0           mov         ecx,dword ptr [ebp-10h]
  00404659: 64 89 0D 00 00 00  mov         dword ptr fs:[00000000h],ecx
            00
  00404660: 59                 pop         ecx
  00404661: 5F                 pop         edi
  00404662: 5E                 pop         esi
  00404663: 5B                 pop         ebx
  00404664: C9                 leave
  00404665: C2 0C 00           ret         0Ch
  00404668: 8B 45 10           mov         eax,dword ptr [ebp+10h]
  0040466B: FF 30              push        dword ptr [eax]
  0040466D: E8 99 1F 00 00     call        0040660B
  00404672: 59                 pop         ecx
  00404673: C3                 ret
  00404674: 6A 08              push        8
  00404676: 68 98 20 41 00     push        412098h
  0040467B: E8 70 D1 FF FF     call        004017F0
  00404680: 8B 45 08           mov         eax,dword ptr [ebp+8]
  00404683: FF 30              push        dword ptr [eax]
  00404685: E8 39 1F 00 00     call        004065C3
  0040468A: 59                 pop         ecx
  0040468B: 83 65 FC 00        and         dword ptr [ebp-4],0
  0040468F: 8B 4D 0C           mov         ecx,dword ptr [ebp+0Ch]
  00404692: 8B 41 04           mov         eax,dword ptr [ecx+4]
  00404695: 8B 00              mov         eax,dword ptr [eax]
  00404697: FF 30              push        dword ptr [eax]
  00404699: 8B 01              mov         eax,dword ptr [ecx]
  0040469B: FF 30              push        dword ptr [eax]
  0040469D: E8 B3 01 00 00     call        00404855
  004046A2: 59                 pop         ecx
  004046A3: 59                 pop         ecx
  004046A4: C7 45 FC FE FF FF  mov         dword ptr [ebp-4],0FFFFFFFEh
            FF
  004046AB: E8 12 00 00 00     call        004046C2
  004046B0: 8B 4D F0           mov         ecx,dword ptr [ebp-10h]
  004046B3: 64 89 0D 00 00 00  mov         dword ptr fs:[00000000h],ecx
            00
  004046BA: 59                 pop         ecx
  004046BB: 5F                 pop         edi
  004046BC: 5E                 pop         esi
  004046BD: 5B                 pop         ebx
  004046BE: C9                 leave
  004046BF: C2 0C 00           ret         0Ch
  004046C2: 8B 45 10           mov         eax,dword ptr [ebp+10h]
  004046C5: FF 30              push        dword ptr [eax]
  004046C7: E8 3F 1F 00 00     call        0040660B
  004046CC: 59                 pop         ecx
  004046CD: C3                 ret
  004046CE: 8B FF              mov         edi,edi
  004046D0: 55                 push        ebp
  004046D1: 8B EC              mov         ebp,esp
  004046D3: 83 EC 14           sub         esp,14h
  004046D6: 8B 45 08           mov         eax,dword ptr [ebp+8]
  004046D9: 33 C9              xor         ecx,ecx
  004046DB: 41                 inc         ecx
  004046DC: 6A 43              push        43h
  004046DE: 89 48 18           mov         dword ptr [eax+18h],ecx
  004046E1: 8B 45 08           mov         eax,dword ptr [ebp+8]
  004046E4: C7 00 18 DC 40 00  mov         dword ptr [eax],40DC18h
  004046EA: 8B 45 08           mov         eax,dword ptr [ebp+8]
  004046ED: 89 88 50 03 00 00  mov         dword ptr [eax+00000350h],ecx
  004046F3: 8B 45 08           mov         eax,dword ptr [ebp+8]
  004046F6: 59                 pop         ecx
  004046F7: 6A 05              push        5
  004046F9: C7 40 48 60 30 41  mov         dword ptr [eax+48h],413060h
            00
  00404700: 8B 45 08           mov         eax,dword ptr [ebp+8]
  00404703: 66 89 48 6C        mov         word ptr [eax+6Ch],cx
  00404707: 8B 45 08           mov         eax,dword ptr [ebp+8]
  0040470A: 66 89 88 72 01 00  mov         word ptr [eax+00000172h],cx
            00
  00404711: 8D 4D FF           lea         ecx,[ebp-1]
  00404714: 8B 45 08           mov         eax,dword ptr [ebp+8]
  00404717: 83 A0 4C 03 00 00  and         dword ptr [eax+0000034Ch],0
            00
  0040471E: 8D 45 08           lea         eax,[ebp+8]
  00404721: 89 45 F0           mov         dword ptr [ebp-10h],eax
  00404724: 58                 pop         eax
  00404725: 89 45 F8           mov         dword ptr [ebp-8],eax
  00404728: 89 45 EC           mov         dword ptr [ebp-14h],eax
  0040472B: 8D 45 F8           lea         eax,[ebp-8]
  0040472E: 50                 push        eax
  0040472F: 8D 45 F0           lea         eax,[ebp-10h]
  00404732: 50                 push        eax
  00404733: 8D 45 EC           lea         eax,[ebp-14h]
  00404736: 50                 push        eax
  00404737: E8 26 FE FF FF     call        00404562
  0040473C: 8D 45 08           lea         eax,[ebp+8]
  0040473F: 89 45 F4           mov         dword ptr [ebp-0Ch],eax
  00404742: 8D 4D FF           lea         ecx,[ebp-1]
  00404745: 6A 04              push        4
  00404747: 8D 45 0C           lea         eax,[ebp+0Ch]
  0040474A: 89 45 F8           mov         dword ptr [ebp-8],eax
  0040474D: 58                 pop         eax
  0040474E: 89 45 EC           mov         dword ptr [ebp-14h],eax
  00404751: 89 45 F0           mov         dword ptr [ebp-10h],eax
  00404754: 8D 45 EC           lea         eax,[ebp-14h]
  00404757: 50                 push        eax
  00404758: 8D 45 F4           lea         eax,[ebp-0Ch]
  0040475B: 50                 push        eax
  0040475C: 8D 45 F0           lea         eax,[ebp-10h]
  0040475F: 50                 push        eax
  00404760: E8 0F FF FF FF     call        00404674
  00404765: C9                 leave
  00404766: C3                 ret
  00404767: 8B FF              mov         edi,edi
  00404769: 55                 push        ebp
  0040476A: 8B EC              mov         ebp,esp
  0040476C: 83 7D 08 00        cmp         dword ptr [ebp+8],0
  00404770: 74 12              je          00404784
  00404772: FF 75 08           push        dword ptr [ebp+8]
  00404775: E8 0E 00 00 00     call        00404788
  0040477A: FF 75 08           push        dword ptr [ebp+8]
  0040477D: E8 49 06 00 00     call        00404DCB
  00404782: 59                 pop         ecx
  00404783: 59                 pop         ecx
  00404784: 5D                 pop         ebp
  00404785: C2 04 00           ret         4
  00404788: 8B FF              mov         edi,edi
  0040478A: 55                 push        ebp
  0040478B: 8B EC              mov         ebp,esp
  0040478D: 8B 45 08           mov         eax,dword ptr [ebp+8]
  00404790: 83 EC 10           sub         esp,10h
  00404793: 8B 08              mov         ecx,dword ptr [eax]
  00404795: 81 F9 18 DC 40 00  cmp         ecx,40DC18h
  0040479B: 74 0A              je          004047A7
  0040479D: 51                 push        ecx
  0040479E: E8 28 06 00 00     call        00404DCB
  004047A3: 8B 45 08           mov         eax,dword ptr [ebp+8]
  004047A6: 59                 pop         ecx
  004047A7: FF 70 3C           push        dword ptr [eax+3Ch]
  004047AA: E8 1C 06 00 00     call        00404DCB
  004047AF: 8B 45 08           mov         eax,dword ptr [ebp+8]
  004047B2: FF 70 30           push        dword ptr [eax+30h]
  004047B5: E8 11 06 00 00     call        00404DCB
  004047BA: 8B 45 08           mov         eax,dword ptr [ebp+8]
  004047BD: FF 70 34           push        dword ptr [eax+34h]
  004047C0: E8 06 06 00 00     call        00404DCB
  004047C5: 8B 45 08           mov         eax,dword ptr [ebp+8]
  004047C8: FF 70 38           push        dword ptr [eax+38h]
  004047CB: E8 FB 05 00 00     call        00404DCB
  004047D0: 8B 45 08           mov         eax,dword ptr [ebp+8]
  004047D3: FF 70 28           push        dword ptr [eax+28h]
  004047D6: E8 F0 05 00 00     call        00404DCB
  004047DB: 8B 45 08           mov         eax,dword ptr [ebp+8]
  004047DE: FF 70 2C           push        dword ptr [eax+2Ch]
  004047E1: E8 E5 05 00 00     call        00404DCB
  004047E6: 8B 45 08           mov         eax,dword ptr [ebp+8]
  004047E9: FF 70 40           push        dword ptr [eax+40h]
  004047EC: E8 DA 05 00 00     call        00404DCB
  004047F1: 8B 45 08           mov         eax,dword ptr [ebp+8]
  004047F4: FF 70 44           push        dword ptr [eax+44h]
  004047F7: E8 CF 05 00 00     call        00404DCB
  004047FC: 8B 45 08           mov         eax,dword ptr [ebp+8]
  004047FF: FF B0 60 03 00 00  push        dword ptr [eax+00000360h]
  00404805: E8 C1 05 00 00     call        00404DCB
  0040480A: 83 C4 24           add         esp,24h
  0040480D: 8D 45 08           lea         eax,[ebp+8]
  00404810: 89 45 F4           mov         dword ptr [ebp-0Ch],eax
  00404813: 8D 4D FF           lea         ecx,[ebp-1]
  00404816: 6A 05              push        5
  00404818: 58                 pop         eax
  00404819: 89 45 F8           mov         dword ptr [ebp-8],eax
  0040481C: 89 45 F0           mov         dword ptr [ebp-10h],eax
  0040481F: 8D 45 F8           lea         eax,[ebp-8]
  00404822: 50                 push        eax
  00404823: 8D 45 F4           lea         eax,[ebp-0Ch]
  00404826: 50                 push        eax
  00404827: 8D 45 F0           lea         eax,[ebp-10h]
  0040482A: 50                 push        eax
  0040482B: E8 84 FD FF FF     call        004045B4
  00404830: 6A 04              push        4
  00404832: 8D 45 08           lea         eax,[ebp+8]
  00404835: 89 45 F4           mov         dword ptr [ebp-0Ch],eax
  00404838: 8D 4D FF           lea         ecx,[ebp-1]
  0040483B: 58                 pop         eax
  0040483C: 89 45 F0           mov         dword ptr [ebp-10h],eax
  0040483F: 89 45 F8           mov         dword ptr [ebp-8],eax
  00404842: 8D 45 F0           lea         eax,[ebp-10h]
  00404845: 50                 push        eax
  00404846: 8D 45 F4           lea         eax,[ebp-0Ch]
  00404849: 50                 push        eax
  0040484A: 8D 45 F8           lea         eax,[ebp-8]
  0040484D: 50                 push        eax
  0040484E: E8 CC FD FF FF     call        0040461F
  00404853: C9                 leave
  00404854: C3                 ret
  00404855: 8B FF              mov         edi,edi
  00404857: 55                 push        ebp
  00404858: 8B EC              mov         ebp,esp
  0040485A: 56                 push        esi
  0040485B: 8B 75 08           mov         esi,dword ptr [ebp+8]
  0040485E: 83 7E 4C 00        cmp         dword ptr [esi+4Ch],0
  00404862: 74 28              je          0040488C
  00404864: FF 76 4C           push        dword ptr [esi+4Ch]
  00404867: E8 CC 28 00 00     call        00407138
  0040486C: 8B 46 4C           mov         eax,dword ptr [esi+4Ch]
  0040486F: 59                 pop         ecx
  00404870: 3B 05 74 41 41 00  cmp         eax,dword ptr ds:[00414174h]
  00404876: 74 14              je          0040488C
  00404878: 3D 80 35 41 00     cmp         eax,413580h
  0040487D: 74 0D              je          0040488C
  0040487F: 83 78 0C 00        cmp         dword ptr [eax+0Ch],0
  00404883: 75 07              jne         0040488C
  00404885: 50                 push        eax
  00404886: E8 E2 26 00 00     call        00406F6D
  0040488B: 59                 pop         ecx
  0040488C: 8B 45 0C           mov         eax,dword ptr [ebp+0Ch]
  0040488F: 89 46 4C           mov         dword ptr [esi+4Ch],eax
  00404892: 5E                 pop         esi
  00404893: 85 C0              test        eax,eax
  00404895: 74 07              je          0040489E
  00404897: 50                 push        eax
  00404898: E8 53 26 00 00     call        00406EF0
  0040489D: 59                 pop         ecx
  0040489E: 5D                 pop         ebp
  0040489F: C3                 ret
  004048A0: 8B FF              mov         edi,edi
  004048A2: 53                 push        ebx
  004048A3: 56                 push        esi
  004048A4: 57                 push        edi
  004048A5: FF 15 3C D0 40 00  call        dword ptr ds:[0040D03Ch]
  004048AB: 8B F0              mov         esi,eax
  004048AD: A1 50 30 41 00     mov         eax,dword ptr ds:[00413050h]
  004048B2: 83 F8 FF           cmp         eax,0FFFFFFFFh
  004048B5: 74 1C              je          004048D3
  004048B7: 50                 push        eax
  004048B8: E8 B9 2C 00 00     call        00407576
  004048BD: 8B F8              mov         edi,eax
  004048BF: 85 FF              test        edi,edi
  004048C1: 74 0B              je          004048CE
  004048C3: 83 FF FF           cmp         edi,0FFFFFFFFh
  004048C6: 75 78              jne         00404940
  004048C8: 33 DB              xor         ebx,ebx
  004048CA: 8B FB              mov         edi,ebx
  004048CC: EB 74              jmp         00404942
  004048CE: A1 50 30 41 00     mov         eax,dword ptr ds:[00413050h]
  004048D3: 6A FF              push        0FFFFFFFFh
  004048D5: 50                 push        eax
  004048D6: E8 DA 2C 00 00     call        004075B5
  004048DB: 85 C0              test        eax,eax
  004048DD: 74 E9              je          004048C8
  004048DF: 68 64 03 00 00     push        364h
  004048E4: 6A 01              push        1
  004048E6: E8 83 04 00 00     call        00404D6E
  004048EB: 8B F8              mov         edi,eax
  004048ED: 59                 pop         ecx
  004048EE: 59                 pop         ecx
  004048EF: 85 FF              test        edi,edi
  004048F1: 75 17              jne         0040490A
  004048F3: 33 DB              xor         ebx,ebx
  004048F5: 53                 push        ebx
  004048F6: FF 35 50 30 41 00  push        dword ptr ds:[00413050h]
  004048FC: E8 B4 2C 00 00     call        004075B5
  00404901: 53                 push        ebx
  00404902: E8 C4 04 00 00     call        00404DCB
  00404907: 59                 pop         ecx
  00404908: EB C0              jmp         004048CA
  0040490A: 57                 push        edi
  0040490B: FF 35 50 30 41 00  push        dword ptr ds:[00413050h]
  00404911: E8 9F 2C 00 00     call        004075B5
  00404916: 85 C0              test        eax,eax
  00404918: 75 11              jne         0040492B
  0040491A: 33 DB              xor         ebx,ebx
  0040491C: 53                 push        ebx
  0040491D: FF 35 50 30 41 00  push        dword ptr ds:[00413050h]
  00404923: E8 8D 2C 00 00     call        004075B5
  00404928: 57                 push        edi
  00404929: EB D7              jmp         00404902
  0040492B: 68 74 41 41 00     push        414174h
  00404930: 57                 push        edi
  00404931: E8 98 FD FF FF     call        004046CE
  00404936: 6A 00              push        0
  00404938: E8 8E 04 00 00     call        00404DCB
  0040493D: 83 C4 0C           add         esp,0Ch
  00404940: 8B DF              mov         ebx,edi
  00404942: 56                 push        esi
  00404943: FF 15 40 D0 40 00  call        dword ptr ds:[0040D040h]
  00404949: F7 DF              neg         edi
  0040494B: 1B FF              sbb         edi,edi
  0040494D: 23 FB              and         edi,ebx
  0040494F: 74 06              je          00404957
  00404951: 8B C7              mov         eax,edi
  00404953: 5F                 pop         edi
  00404954: 5E                 pop         esi
  00404955: 5B                 pop         ebx
  00404956: C3                 ret
  00404957: E8 7A FA FF FF     call        004043D6
  0040495C: CC                 int         3
  0040495D: A1 50 30 41 00     mov         eax,dword ptr ds:[00413050h]
  00404962: 56                 push        esi
  00404963: 83 F8 FF           cmp         eax,0FFFFFFFFh
  00404966: 74 18              je          00404980
  00404968: 50                 push        eax
  00404969: E8 08 2C 00 00     call        00407576
  0040496E: 8B F0              mov         esi,eax
  00404970: 85 F6              test        esi,esi
  00404972: 74 07              je          0040497B
  00404974: 83 FE FF           cmp         esi,0FFFFFFFFh
  00404977: 74 78              je          004049F1
  00404979: EB 6E              jmp         004049E9
  0040497B: A1 50 30 41 00     mov         eax,dword ptr ds:[00413050h]
  00404980: 6A FF              push        0FFFFFFFFh
  00404982: 50                 push        eax
  00404983: E8 2D 2C 00 00     call        004075B5
  00404988: 85 C0              test        eax,eax
  0040498A: 74 65              je          004049F1
  0040498C: 68 64 03 00 00     push        364h
  00404991: 6A 01              push        1
  00404993: E8 D6 03 00 00     call        00404D6E
  00404998: 8B F0              mov         esi,eax
  0040499A: 59                 pop         ecx
  0040499B: 59                 pop         ecx
  0040499C: 85 F6              test        esi,esi
  0040499E: 75 15              jne         004049B5
  004049A0: 50                 push        eax
  004049A1: FF 35 50 30 41 00  push        dword ptr ds:[00413050h]
  004049A7: E8 09 2C 00 00     call        004075B5
  004049AC: 56                 push        esi
  004049AD: E8 19 04 00 00     call        00404DCB
  004049B2: 59                 pop         ecx
  004049B3: EB 3C              jmp         004049F1
  004049B5: 56                 push        esi
  004049B6: FF 35 50 30 41 00  push        dword ptr ds:[00413050h]
  004049BC: E8 F4 2B 00 00     call        004075B5
  004049C1: 85 C0              test        eax,eax
  004049C3: 75 0F              jne         004049D4
  004049C5: 50                 push        eax
  004049C6: FF 35 50 30 41 00  push        dword ptr ds:[00413050h]
  004049CC: E8 E4 2B 00 00     call        004075B5
  004049D1: 56                 push        esi
  004049D2: EB D9              jmp         004049AD
  004049D4: 68 74 41 41 00     push        414174h
  004049D9: 56                 push        esi
  004049DA: E8 EF FC FF FF     call        004046CE
  004049DF: 6A 00              push        0
  004049E1: E8 E5 03 00 00     call        00404DCB
  004049E6: 83 C4 0C           add         esp,0Ch
  004049E9: 85 F6              test        esi,esi
  004049EB: 74 04              je          004049F1
  004049ED: 8B C6              mov         eax,esi
  004049EF: 5E                 pop         esi
  004049F0: C3                 ret
  004049F1: E8 E0 F9 FF FF     call        004043D6
  004049F6: CC                 int         3
  004049F7: 8B FF              mov         edi,edi
  004049F9: 53                 push        ebx
  004049FA: 56                 push        esi
  004049FB: 57                 push        edi
  004049FC: FF 15 3C D0 40 00  call        dword ptr ds:[0040D03Ch]
  00404A02: 8B F0              mov         esi,eax
  00404A04: A1 50 30 41 00     mov         eax,dword ptr ds:[00413050h]
  00404A09: 83 F8 FF           cmp         eax,0FFFFFFFFh
  00404A0C: 74 1C              je          00404A2A
  00404A0E: 50                 push        eax
  00404A0F: E8 62 2B 00 00     call        00407576
  00404A14: 8B F8              mov         edi,eax
  00404A16: 85 FF              test        edi,edi
  00404A18: 74 0B              je          00404A25
  00404A1A: 83 FF FF           cmp         edi,0FFFFFFFFh
  00404A1D: 75 78              jne         00404A97
  00404A1F: 33 DB              xor         ebx,ebx
  00404A21: 8B FB              mov         edi,ebx
  00404A23: EB 74              jmp         00404A99
  00404A25: A1 50 30 41 00     mov         eax,dword ptr ds:[00413050h]
  00404A2A: 6A FF              push        0FFFFFFFFh
  00404A2C: 50                 push        eax
  00404A2D: E8 83 2B 00 00     call        004075B5
  00404A32: 85 C0              test        eax,eax
  00404A34: 74 E9              je          00404A1F
  00404A36: 68 64 03 00 00     push        364h
  00404A3B: 6A 01              push        1
  00404A3D: E8 2C 03 00 00     call        00404D6E
  00404A42: 8B F8              mov         edi,eax
  00404A44: 59                 pop         ecx
  00404A45: 59                 pop         ecx
  00404A46: 85 FF              test        edi,edi
  00404A48: 75 17              jne         00404A61
  00404A4A: 33 DB              xor         ebx,ebx
  00404A4C: 53                 push        ebx
  00404A4D: FF 35 50 30 41 00  push        dword ptr ds:[00413050h]
  00404A53: E8 5D 2B 00 00     call        004075B5
  00404A58: 53                 push        ebx
  00404A59: E8 6D 03 00 00     call        00404DCB
  00404A5E: 59                 pop         ecx
  00404A5F: EB C0              jmp         00404A21
  00404A61: 57                 push        edi
  00404A62: FF 35 50 30 41 00  push        dword ptr ds:[00413050h]
  00404A68: E8 48 2B 00 00     call        004075B5
  00404A6D: 85 C0              test        eax,eax
  00404A6F: 75 11              jne         00404A82
  00404A71: 33 DB              xor         ebx,ebx
  00404A73: 53                 push        ebx
  00404A74: FF 35 50 30 41 00  push        dword ptr ds:[00413050h]
  00404A7A: E8 36 2B 00 00     call        004075B5
  00404A7F: 57                 push        edi
  00404A80: EB D7              jmp         00404A59
  00404A82: 68 74 41 41 00     push        414174h
  00404A87: 57                 push        edi
  00404A88: E8 41 FC FF FF     call        004046CE
  00404A8D: 6A 00              push        0
  00404A8F: E8 37 03 00 00     call        00404DCB
  00404A94: 83 C4 0C           add         esp,0Ch
  00404A97: 8B DF              mov         ebx,edi
  00404A99: 56                 push        esi
  00404A9A: FF 15 40 D0 40 00  call        dword ptr ds:[0040D040h]
  00404AA0: F7 DF              neg         edi
  00404AA2: 1B FF              sbb         edi,edi
  00404AA4: 23 FB              and         edi,ebx
  00404AA6: 8B C7              mov         eax,edi
  00404AA8: 5F                 pop         edi
  00404AA9: 5E                 pop         esi
  00404AAA: 5B                 pop         ebx
  00404AAB: C3                 ret
  00404AAC: 68 67 47 40 00     push        404767h
  00404AB1: E8 42 2A 00 00     call        004074F8
  00404AB6: A3 50 30 41 00     mov         dword ptr ds:[00413050h],eax
  00404ABB: 83 F8 FF           cmp         eax,0FFFFFFFFh
  00404ABE: 75 03              jne         00404AC3
  00404AC0: 32 C0              xor         al,al
  00404AC2: C3                 ret
  00404AC3: E8 2F FF FF FF     call        004049F7
  00404AC8: 85 C0              test        eax,eax
  00404ACA: 75 09              jne         00404AD5
  00404ACC: 50                 push        eax
  00404ACD: E8 06 00 00 00     call        00404AD8
  00404AD2: 59                 pop         ecx
  00404AD3: EB EB              jmp         00404AC0
  00404AD5: B0 01              mov         al,1
  00404AD7: C3                 ret
  00404AD8: A1 50 30 41 00     mov         eax,dword ptr ds:[00413050h]
  00404ADD: 83 F8 FF           cmp         eax,0FFFFFFFFh
  00404AE0: 74 0D              je          00404AEF
  00404AE2: 50                 push        eax
  00404AE3: E8 4F 2A 00 00     call        00407537
  00404AE8: 83 0D 50 30 41 00  or          dword ptr ds:[00413050h],0FFFFFFFFh
            FF
  00404AEF: B0 01              mov         al,1
  00404AF1: C3                 ret
  00404AF2: 8B FF              mov         edi,edi
  00404AF4: 55                 push        ebp
  00404AF5: 8B EC              mov         ebp,esp
  00404AF7: 81 EC 28 03 00 00  sub         esp,328h
  00404AFD: A1 18 30 41 00     mov         eax,dword ptr ds:[00413018h]
  00404B02: 33 C5              xor         eax,ebp
  00404B04: 89 45 FC           mov         dword ptr [ebp-4],eax
  00404B07: 83 7D 08 FF        cmp         dword ptr [ebp+8],0FFFFFFFFh
  00404B0B: 57                 push        edi
  00404B0C: 74 09              je          00404B17
  00404B0E: FF 75 08           push        dword ptr [ebp+8]
  00404B11: E8 78 CC FF FF     call        0040178E
  00404B16: 59                 pop         ecx
  00404B17: 6A 50              push        50h
  00404B19: 8D 85 E0 FC FF FF  lea         eax,[ebp+FFFFFCE0h]
  00404B1F: 6A 00              push        0
  00404B21: 50                 push        eax
  00404B22: E8 29 D3 FF FF     call        00401E50
  00404B27: 68 CC 02 00 00     push        2CCh
  00404B2C: 8D 85 30 FD FF FF  lea         eax,[ebp+FFFFFD30h]
  00404B32: 6A 00              push        0
  00404B34: 50                 push        eax
  00404B35: E8 16 D3 FF FF     call        00401E50
  00404B3A: 8D 85 E0 FC FF FF  lea         eax,[ebp+FFFFFCE0h]
  00404B40: 83 C4 18           add         esp,18h
  00404B43: 89 85 D8 FC FF FF  mov         dword ptr [ebp+FFFFFCD8h],eax
  00404B49: 8D 85 30 FD FF FF  lea         eax,[ebp+FFFFFD30h]
  00404B4F: 89 85 DC FC FF FF  mov         dword ptr [ebp+FFFFFCDCh],eax
  00404B55: 89 85 E0 FD FF FF  mov         dword ptr [ebp+FFFFFDE0h],eax
  00404B5B: 89 8D DC FD FF FF  mov         dword ptr [ebp+FFFFFDDCh],ecx
  00404B61: 89 95 D8 FD FF FF  mov         dword ptr [ebp+FFFFFDD8h],edx
  00404B67: 89 9D D4 FD FF FF  mov         dword ptr [ebp+FFFFFDD4h],ebx
  00404B6D: 89 B5 D0 FD FF FF  mov         dword ptr [ebp+FFFFFDD0h],esi
  00404B73: 89 BD CC FD FF FF  mov         dword ptr [ebp+FFFFFDCCh],edi
  00404B79: 66 8C 95 F8 FD FF  mov         word ptr [ebp+FFFFFDF8h],ss
            FF
  00404B80: 66 8C 8D EC FD FF  mov         word ptr [ebp+FFFFFDECh],cs
            FF
  00404B87: 66 8C 9D C8 FD FF  mov         word ptr [ebp+FFFFFDC8h],ds
            FF
  00404B8E: 66 8C 85 C4 FD FF  mov         word ptr [ebp+FFFFFDC4h],es
            FF
  00404B95: 66 8C A5 C0 FD FF  mov         word ptr [ebp+FFFFFDC0h],fs
            FF
  00404B9C: 66 8C AD BC FD FF  mov         word ptr [ebp+FFFFFDBCh],gs
            FF
  00404BA3: 9C                 pushfd
  00404BA4: 8F 85 F0 FD FF FF  pop         dword ptr [ebp+FFFFFDF0h]
  00404BAA: 8B 45 04           mov         eax,dword ptr [ebp+4]
  00404BAD: 89 85 E8 FD FF FF  mov         dword ptr [ebp+FFFFFDE8h],eax
  00404BB3: 8D 45 04           lea         eax,[ebp+4]
  00404BB6: 89 85 F4 FD FF FF  mov         dword ptr [ebp+FFFFFDF4h],eax
  00404BBC: C7 85 30 FD FF FF  mov         dword ptr [ebp+FFFFFD30h],10001h
            01 00 01 00
  00404BC6: 8B 40 FC           mov         eax,dword ptr [eax-4]
  00404BC9: 89 85 E4 FD FF FF  mov         dword ptr [ebp+FFFFFDE4h],eax
  00404BCF: 8B 45 0C           mov         eax,dword ptr [ebp+0Ch]
  00404BD2: 89 85 E0 FC FF FF  mov         dword ptr [ebp+FFFFFCE0h],eax
  00404BD8: 8B 45 10           mov         eax,dword ptr [ebp+10h]
  00404BDB: 89 85 E4 FC FF FF  mov         dword ptr [ebp+FFFFFCE4h],eax
  00404BE1: 8B 45 04           mov         eax,dword ptr [ebp+4]
  00404BE4: 89 85 EC FC FF FF  mov         dword ptr [ebp+FFFFFCECh],eax
  00404BEA: FF 15 14 D0 40 00  call        dword ptr ds:[0040D014h]
  00404BF0: 6A 00              push        0
  00404BF2: 8B F8              mov         edi,eax
  00404BF4: FF 15 1C D0 40 00  call        dword ptr ds:[0040D01Ch]
  00404BFA: 8D 85 D8 FC FF FF  lea         eax,[ebp+FFFFFCD8h]
  00404C00: 50                 push        eax
  00404C01: FF 15 18 D0 40 00  call        dword ptr ds:[0040D018h]
  00404C07: 85 C0              test        eax,eax
  00404C09: 75 13              jne         00404C1E
  00404C0B: 85 FF              test        edi,edi
  00404C0D: 75 0F              jne         00404C1E
  00404C0F: 83 7D 08 FF        cmp         dword ptr [ebp+8],0FFFFFFFFh
  00404C13: 74 09              je          00404C1E
  00404C15: FF 75 08           push        dword ptr [ebp+8]
  00404C18: E8 71 CB FF FF     call        0040178E
  00404C1D: 59                 pop         ecx
  00404C1E: 8B 4D FC           mov         ecx,dword ptr [ebp-4]
  00404C21: 33 CD              xor         ecx,ebp
  00404C23: 5F                 pop         edi
  00404C24: E8 FE CD FF FF     call        00401A27
  00404C29: C9                 leave
  00404C2A: C3                 ret
  00404C2B: 8B FF              mov         edi,edi
  00404C2D: 55                 push        ebp
  00404C2E: 8B EC              mov         ebp,esp
  00404C30: 8B 45 08           mov         eax,dword ptr [ebp+8]
  00404C33: A3 00 3E 41 00     mov         dword ptr ds:[00413E00h],eax
  00404C38: 5D                 pop         ebp
  00404C39: C3                 ret
  00404C3A: 8B FF              mov         edi,edi
  00404C3C: 55                 push        ebp
  00404C3D: 8B EC              mov         ebp,esp
  00404C3F: 56                 push        esi
  00404C40: E8 B2 FD FF FF     call        004049F7
  00404C45: 85 C0              test        eax,eax
  00404C47: 74 29              je          00404C72
  00404C49: 8B B0 5C 03 00 00  mov         esi,dword ptr [eax+0000035Ch]
  00404C4F: 85 F6              test        esi,esi
  00404C51: 74 1F              je          00404C72
  00404C53: FF 75 18           push        dword ptr [ebp+18h]
  00404C56: FF 75 14           push        dword ptr [ebp+14h]
  00404C59: FF 75 10           push        dword ptr [ebp+10h]
  00404C5C: FF 75 0C           push        dword ptr [ebp+0Ch]
  00404C5F: FF 75 08           push        dword ptr [ebp+8]
  00404C62: 8B CE              mov         ecx,esi
  00404C64: FF 15 08 D1 40 00  call        dword ptr ds:[0040D108h]
  00404C6A: FF D6              call        esi
  00404C6C: 83 C4 14           add         esp,14h
  00404C6F: 5E                 pop         esi
  00404C70: 5D                 pop         ebp
  00404C71: C3                 ret
  00404C72: FF 75 18           push        dword ptr [ebp+18h]
  00404C75: 8B 35 18 30 41 00  mov         esi,dword ptr ds:[00413018h]
  00404C7B: 8B CE              mov         ecx,esi
  00404C7D: FF 75 14           push        dword ptr [ebp+14h]
  00404C80: 33 35 00 3E 41 00  xor         esi,dword ptr ds:[00413E00h]
  00404C86: 83 E1 1F           and         ecx,1Fh
  00404C89: FF 75 10           push        dword ptr [ebp+10h]
  00404C8C: D3 CE              ror         esi,cl
  00404C8E: FF 75 0C           push        dword ptr [ebp+0Ch]
  00404C91: FF 75 08           push        dword ptr [ebp+8]
  00404C94: 85 F6              test        esi,esi
  00404C96: 75 CA              jne         00404C62
  00404C98: E8 11 00 00 00     call        00404CAE
  00404C9D: CC                 int         3
  00404C9E: 33 C0              xor         eax,eax
  00404CA0: 50                 push        eax
  00404CA1: 50                 push        eax
  00404CA2: 50                 push        eax
  00404CA3: 50                 push        eax
  00404CA4: 50                 push        eax
  00404CA5: E8 90 FF FF FF     call        00404C3A
  00404CAA: 83 C4 14           add         esp,14h
  00404CAD: C3                 ret
  00404CAE: 6A 17              push        17h
  00404CB0: FF 15 24 D0 40 00  call        dword ptr ds:[0040D024h]
  00404CB6: 85 C0              test        eax,eax
  00404CB8: 74 05              je          00404CBF
  00404CBA: 6A 05              push        5
  00404CBC: 59                 pop         ecx
  00404CBD: CD 29              int         29h
  00404CBF: 56                 push        esi
  00404CC0: 6A 01              push        1
  00404CC2: BE 17 04 00 C0     mov         esi,0C0000417h
  00404CC7: 56                 push        esi
  00404CC8: 6A 02              push        2
  00404CCA: E8 23 FE FF FF     call        00404AF2
  00404CCF: 83 C4 0C           add         esp,0Ch
  00404CD2: 56                 push        esi
  00404CD3: FF 15 2C D0 40 00  call        dword ptr ds:[0040D02Ch]
  00404CD9: 50                 push        eax
  00404CDA: FF 15 30 D0 40 00  call        dword ptr ds:[0040D030h]
  00404CE0: 5E                 pop         esi
  00404CE1: C3                 ret
  00404CE2: 8B FF              mov         edi,edi
  00404CE4: 55                 push        ebp
  00404CE5: 8B EC              mov         ebp,esp
  00404CE7: 8B 4D 08           mov         ecx,dword ptr [ebp+8]
  00404CEA: 33 C0              xor         eax,eax
  00404CEC: 3B 0C C5 60 DD 40  cmp         ecx,dword ptr [eax*8+0040DD60h]
            00
  00404CF3: 74 27              je          00404D1C
  00404CF5: 40                 inc         eax
  00404CF6: 83 F8 2D           cmp         eax,2Dh
  00404CF9: 72 F1              jb          00404CEC
  00404CFB: 8D 41 ED           lea         eax,[ecx-13h]
  00404CFE: 83 F8 11           cmp         eax,11h
  00404D01: 77 05              ja          00404D08
  00404D03: 6A 0D              push        0Dh
  00404D05: 58                 pop         eax
  00404D06: 5D                 pop         ebp
  00404D07: C3                 ret
  00404D08: 8D 81 44 FF FF FF  lea         eax,[ecx+FFFFFF44h]
  00404D0E: 6A 0E              push        0Eh
  00404D10: 59                 pop         ecx
  00404D11: 3B C8              cmp         ecx,eax
  00404D13: 1B C0              sbb         eax,eax
  00404D15: 23 C1              and         eax,ecx
  00404D17: 83 C0 08           add         eax,8
  00404D1A: 5D                 pop         ebp
  00404D1B: C3                 ret
  00404D1C: 8B 04 C5 64 DD 40  mov         eax,dword ptr [eax*8+0040DD64h]
            00
  00404D23: 5D                 pop         ebp
  00404D24: C3                 ret
  00404D25: 8B FF              mov         edi,edi
  00404D27: 55                 push        ebp
  00404D28: 8B EC              mov         ebp,esp
  00404D2A: 56                 push        esi
  00404D2B: E8 18 00 00 00     call        00404D48
  00404D30: 8B 4D 08           mov         ecx,dword ptr [ebp+8]
  00404D33: 51                 push        ecx
  00404D34: 89 08              mov         dword ptr [eax],ecx
  00404D36: E8 A7 FF FF FF     call        00404CE2
  00404D3B: 59                 pop         ecx
  00404D3C: 8B F0              mov         esi,eax
  00404D3E: E8 18 00 00 00     call        00404D5B
  00404D43: 89 30              mov         dword ptr [eax],esi
  00404D45: 5E                 pop         esi
  00404D46: 5D                 pop         ebp
  00404D47: C3                 ret
  00404D48: E8 AA FC FF FF     call        004049F7
  00404D4D: 85 C0              test        eax,eax
  00404D4F: 75 06              jne         00404D57
  00404D51: B8 58 30 41 00     mov         eax,413058h
  00404D56: C3                 ret
  00404D57: 83 C0 14           add         eax,14h
  00404D5A: C3                 ret
  00404D5B: E8 97 FC FF FF     call        004049F7
  00404D60: 85 C0              test        eax,eax
  00404D62: 75 06              jne         00404D6A
  00404D64: B8 54 30 41 00     mov         eax,413054h
  00404D69: C3                 ret
  00404D6A: 83 C0 10           add         eax,10h
  00404D6D: C3                 ret
  00404D6E: 8B FF              mov         edi,edi
  00404D70: 55                 push        ebp
  00404D71: 8B EC              mov         ebp,esp
  00404D73: 56                 push        esi
  00404D74: 8B 75 08           mov         esi,dword ptr [ebp+8]
  00404D77: 85 F6              test        esi,esi
  00404D79: 74 0C              je          00404D87
  00404D7B: 6A E0              push        0FFFFFFE0h
  00404D7D: 33 D2              xor         edx,edx
  00404D7F: 58                 pop         eax
  00404D80: F7 F6              div         eax,esi
  00404D82: 3B 45 0C           cmp         eax,dword ptr [ebp+0Ch]
  00404D85: 72 34              jb          00404DBB
  00404D87: 0F AF 75 0C        imul        esi,dword ptr [ebp+0Ch]
  00404D8B: 85 F6              test        esi,esi
  00404D8D: 75 17              jne         00404DA6
  00404D8F: 46                 inc         esi
  00404D90: EB 14              jmp         00404DA6
  00404D92: E8 5E F0 FF FF     call        00403DF5
  00404D97: 85 C0              test        eax,eax
  00404D99: 74 20              je          00404DBB
  00404D9B: 56                 push        esi
  00404D9C: E8 C0 2A 00 00     call        00407861
  00404DA1: 59                 pop         ecx
  00404DA2: 85 C0              test        eax,eax
  00404DA4: 74 15              je          00404DBB
  00404DA6: 56                 push        esi
  00404DA7: 6A 08              push        8
  00404DA9: FF 35 58 42 41 00  push        dword ptr ds:[00414258h]
  00404DAF: FF 15 90 D0 40 00  call        dword ptr ds:[0040D090h]
  00404DB5: 85 C0              test        eax,eax
  00404DB7: 74 D9              je          00404D92
  00404DB9: EB 0D              jmp         00404DC8
  00404DBB: E8 9B FF FF FF     call        00404D5B
  00404DC0: C7 00 0C 00 00 00  mov         dword ptr [eax],0Ch
  00404DC6: 33 C0              xor         eax,eax
  00404DC8: 5E                 pop         esi
  00404DC9: 5D                 pop         ebp
  00404DCA: C3                 ret
  00404DCB: 8B FF              mov         edi,edi
  00404DCD: 55                 push        ebp
  00404DCE: 8B EC              mov         ebp,esp
  00404DD0: 83 7D 08 00        cmp         dword ptr [ebp+8],0
  00404DD4: 74 2D              je          00404E03
  00404DD6: FF 75 08           push        dword ptr [ebp+8]
  00404DD9: 6A 00              push        0
  00404DDB: FF 35 58 42 41 00  push        dword ptr ds:[00414258h]
  00404DE1: FF 15 94 D0 40 00  call        dword ptr ds:[0040D094h]
  00404DE7: 85 C0              test        eax,eax
  00404DE9: 75 18              jne         00404E03
  00404DEB: 56                 push        esi
  00404DEC: E8 6A FF FF FF     call        00404D5B
  00404DF1: 8B F0              mov         esi,eax
  00404DF3: FF 15 3C D0 40 00  call        dword ptr ds:[0040D03Ch]
  00404DF9: 50                 push        eax
  00404DFA: E8 E3 FE FF FF     call        00404CE2
  00404DFF: 59                 pop         ecx
  00404E00: 89 06              mov         dword ptr [esi],eax
  00404E02: 5E                 pop         esi
  00404E03: 5D                 pop         ebp
  00404E04: C3                 ret
  00404E05: 8B FF              mov         edi,edi
  00404E07: 55                 push        ebp
  00404E08: 8B EC              mov         ebp,esp
  00404E0A: 8B 45 0C           mov         eax,dword ptr [ebp+0Ch]
  00404E0D: 3B 45 08           cmp         eax,dword ptr [ebp+8]
  00404E10: 76 05              jbe         00404E17
  00404E12: 83 C8 FF           or          eax,0FFFFFFFFh
  00404E15: 5D                 pop         ebp
  00404E16: C3                 ret
  00404E17: 1B C0              sbb         eax,eax
  00404E19: F7 D8              neg         eax
  00404E1B: 5D                 pop         ebp
  00404E1C: C3                 ret
  00404E1D: 8B FF              mov         edi,edi
  00404E1F: 55                 push        ebp
  00404E20: 8B EC              mov         ebp,esp
  00404E22: 56                 push        esi
  00404E23: 8B 75 08           mov         esi,dword ptr [ebp+8]
  00404E26: 57                 push        edi
  00404E27: 85 F6              test        esi,esi
  00404E29: 75 1A              jne         00404E45
  00404E2B: 8B 75 0C           mov         esi,dword ptr [ebp+0Ch]
  00404E2E: 8B CE              mov         ecx,esi
  00404E30: E8 BC 06 00 00     call        004054F1
  00404E35: 33 FF              xor         edi,edi
  00404E37: 89 7E 08           mov         dword ptr [esi+8],edi
  00404E3A: 89 7E 0C           mov         dword ptr [esi+0Ch],edi
  00404E3D: 89 7E 10           mov         dword ptr [esi+10h],edi
  00404E40: E9 84 00 00 00     jmp         00404EC9
  00404E45: 33 FF              xor         edi,edi
  00404E47: 80 3E 00           cmp         byte ptr [esi],0
  00404E4A: 75 1F              jne         00404E6B
  00404E4C: 8B 75 0C           mov         esi,dword ptr [ebp+0Ch]
  00404E4F: 39 7E 0C           cmp         dword ptr [esi+0Ch],edi
  00404E52: 75 0D              jne         00404E61
  00404E54: 6A 01              push        1
  00404E56: 8B CE              mov         ecx,esi
  00404E58: E8 EA 06 00 00     call        00405547
  00404E5D: 85 C0              test        eax,eax
  00404E5F: 75 6A              jne         00404ECB
  00404E61: 8B 46 08           mov         eax,dword ptr [esi+8]
  00404E64: 33 C9              xor         ecx,ecx
  00404E66: 66 89 08           mov         word ptr [eax],cx
  00404E69: EB D2              jmp         00404E3D
  00404E6B: 57                 push        edi
  00404E6C: 57                 push        edi
  00404E6D: 6A FF              push        0FFFFFFFFh
  00404E6F: 56                 push        esi
  00404E70: 6A 09              push        9
  00404E72: FF 75 14           push        dword ptr [ebp+14h]
  00404E75: E8 BC 11 00 00     call        00406036
  00404E7A: 83 C4 18           add         esp,18h
  00404E7D: 85 C0              test        eax,eax
  00404E7F: 75 16              jne         00404E97
  00404E81: FF 15 3C D0 40 00  call        dword ptr ds:[0040D03Ch]
  00404E87: 50                 push        eax
  00404E88: E8 98 FE FF FF     call        00404D25
  00404E8D: 59                 pop         ecx
  00404E8E: E8 C8 FE FF FF     call        00404D5B
  00404E93: 8B 00              mov         eax,dword ptr [eax]
  00404E95: EB 34              jmp         00404ECB
  00404E97: 8B 7D 0C           mov         edi,dword ptr [ebp+0Ch]
  00404E9A: 3B 47 0C           cmp         eax,dword ptr [edi+0Ch]
  00404E9D: 76 0C              jbe         00404EAB
  00404E9F: 50                 push        eax
  00404EA0: 8B CF              mov         ecx,edi
  00404EA2: E8 A0 06 00 00     call        00405547
  00404EA7: 85 C0              test        eax,eax
  00404EA9: 75 20              jne         00404ECB
  00404EAB: FF 77 0C           push        dword ptr [edi+0Ch]
  00404EAE: FF 77 08           push        dword ptr [edi+8]
  00404EB1: 6A FF              push        0FFFFFFFFh
  00404EB3: 56                 push        esi
  00404EB4: 6A 09              push        9
  00404EB6: FF 75 14           push        dword ptr [ebp+14h]
  00404EB9: E8 78 11 00 00     call        00406036
  00404EBE: 83 C4 18           add         esp,18h
  00404EC1: 85 C0              test        eax,eax
  00404EC3: 74 BC              je          00404E81
  00404EC5: 48                 dec         eax
  00404EC6: 89 47 10           mov         dword ptr [edi+10h],eax
  00404EC9: 33 C0              xor         eax,eax
  00404ECB: 5F                 pop         edi
  00404ECC: 5E                 pop         esi
  00404ECD: 5D                 pop         ebp
  00404ECE: C3                 ret
  00404ECF: 8B FF              mov         edi,edi
  00404ED1: 55                 push        ebp
  00404ED2: 8B EC              mov         ebp,esp
  00404ED4: 53                 push        ebx
  00404ED5: 56                 push        esi
  00404ED6: 8B 75 08           mov         esi,dword ptr [ebp+8]
  00404ED9: 85 F6              test        esi,esi
  00404EDB: 75 1C              jne         00404EF9
  00404EDD: 8B 75 0C           mov         esi,dword ptr [ebp+0Ch]
  00404EE0: 8B CE              mov         ecx,esi
  00404EE2: E8 0A 06 00 00     call        004054F1
  00404EE7: 33 DB              xor         ebx,ebx
  00404EE9: 89 5E 08           mov         dword ptr [esi+8],ebx
  00404EEC: 89 5E 0C           mov         dword ptr [esi+0Ch],ebx
  00404EEF: 89 5E 10           mov         dword ptr [esi+10h],ebx
  00404EF2: 33 C0              xor         eax,eax
  00404EF4: E9 A1 00 00 00     jmp         00404F9A
  00404EF9: 33 DB              xor         ebx,ebx
  00404EFB: 66 39 1E           cmp         word ptr [esi],bx
  00404EFE: 75 20              jne         00404F20
  00404F00: 8B 75 0C           mov         esi,dword ptr [ebp+0Ch]
  00404F03: 39 5E 0C           cmp         dword ptr [esi+0Ch],ebx
  00404F06: 75 11              jne         00404F19
  00404F08: 6A 01              push        1
  00404F0A: 8B CE              mov         ecx,esi
  00404F0C: E8 FA 05 00 00     call        0040550B
  00404F11: 85 C0              test        eax,eax
  00404F13: 0F 85 81 00 00 00  jne         00404F9A
  00404F19: 8B 46 08           mov         eax,dword ptr [esi+8]
  00404F1C: 88 18              mov         byte ptr [eax],bl
  00404F1E: EB CF              jmp         00404EEF
  00404F20: 53                 push        ebx
  00404F21: 53                 push        ebx
  00404F22: 53                 push        ebx
  00404F23: 53                 push        ebx
  00404F24: 6A FF              push        0FFFFFFFFh
  00404F26: 56                 push        esi
  00404F27: 53                 push        ebx
  00404F28: FF 75 14           push        dword ptr [ebp+14h]
  00404F2B: E8 82 11 00 00     call        004060B2
  00404F30: 83 C4 20           add         esp,20h
  00404F33: 85 C0              test        eax,eax
  00404F35: 75 16              jne         00404F4D
  00404F37: FF 15 3C D0 40 00  call        dword ptr ds:[0040D03Ch]
  00404F3D: 50                 push        eax
  00404F3E: E8 E2 FD FF FF     call        00404D25
  00404F43: 59                 pop         ecx
  00404F44: E8 12 FE FF FF     call        00404D5B
  00404F49: 8B 00              mov         eax,dword ptr [eax]
  00404F4B: EB 4D              jmp         00404F9A
  00404F4D: 57                 push        edi
  00404F4E: 8B 7D 0C           mov         edi,dword ptr [ebp+0Ch]
  00404F51: 3B 47 0C           cmp         eax,dword ptr [edi+0Ch]
  00404F54: 76 0C              jbe         00404F62
  00404F56: 50                 push        eax
  00404F57: 8B CF              mov         ecx,edi
  00404F59: E8 AD 05 00 00     call        0040550B
  00404F5E: 85 C0              test        eax,eax
  00404F60: 75 37              jne         00404F99
  00404F62: 53                 push        ebx
  00404F63: 53                 push        ebx
  00404F64: FF 77 0C           push        dword ptr [edi+0Ch]
  00404F67: FF 77 08           push        dword ptr [edi+8]
  00404F6A: 6A FF              push        0FFFFFFFFh
  00404F6C: 56                 push        esi
  00404F6D: 53                 push        ebx
  00404F6E: FF 75 14           push        dword ptr [ebp+14h]
  00404F71: E8 3C 11 00 00     call        004060B2
  00404F76: 83 C4 20           add         esp,20h
  00404F79: 85 C0              test        eax,eax
  00404F7B: 75 16              jne         00404F93
  00404F7D: FF 15 3C D0 40 00  call        dword ptr ds:[0040D03Ch]
  00404F83: 50                 push        eax
  00404F84: E8 9C FD FF FF     call        00404D25
  00404F89: 59                 pop         ecx
  00404F8A: E8 CC FD FF FF     call        00404D5B
  00404F8F: 8B 00              mov         eax,dword ptr [eax]
  00404F91: EB 06              jmp         00404F99
  00404F93: 48                 dec         eax
  00404F94: 89 47 10           mov         dword ptr [edi+10h],eax
  00404F97: 33 C0              xor         eax,eax
  00404F99: 5F                 pop         edi
  00404F9A: 5E                 pop         esi
  00404F9B: 5B                 pop         ebx
  00404F9C: 5D                 pop         ebp
  00404F9D: C3                 ret
  00404F9E: 8B FF              mov         edi,edi
  00404FA0: 55                 push        ebp
  00404FA1: 8B EC              mov         ebp,esp
  00404FA3: 51                 push        ecx
  00404FA4: FF 75 10           push        dword ptr [ebp+10h]
  00404FA7: 8D 45 FF           lea         eax,[ebp-1]
  00404FAA: 50                 push        eax
  00404FAB: FF 75 0C           push        dword ptr [ebp+0Ch]
  00404FAE: FF 75 08           push        dword ptr [ebp+8]
  00404FB1: E8 67 FE FF FF     call        00404E1D
  00404FB6: 83 C4 10           add         esp,10h
  00404FB9: C9                 leave
  00404FBA: C3                 ret
  00404FBB: 8B FF              mov         edi,edi
  00404FBD: 55                 push        ebp
  00404FBE: 8B EC              mov         ebp,esp
  00404FC0: 8B 45 0C           mov         eax,dword ptr [ebp+0Ch]
  00404FC3: 83 EC 28           sub         esp,28h
  00404FC6: 56                 push        esi
  00404FC7: 85 C0              test        eax,eax
  00404FC9: 75 14              jne         00404FDF
  00404FCB: E8 8B FD FF FF     call        00404D5B
  00404FD0: 6A 16              push        16h
  00404FD2: 5E                 pop         esi
  00404FD3: 89 30              mov         dword ptr [eax],esi
  00404FD5: E8 C4 FC FF FF     call        00404C9E
  00404FDA: E9 BB 01 00 00     jmp         0040519A
  00404FDF: 8B 75 08           mov         esi,dword ptr [ebp+8]
  00404FE2: 53                 push        ebx
  00404FE3: 33 DB              xor         ebx,ebx
  00404FE5: 57                 push        edi
  00404FE6: 89 18              mov         dword ptr [eax],ebx
  00404FE8: 8B FB              mov         edi,ebx
  00404FEA: 8B 06              mov         eax,dword ptr [esi]
  00404FEC: 8B CB              mov         ecx,ebx
  00404FEE: 89 7D D8           mov         dword ptr [ebp-28h],edi
  00404FF1: 89 4D DC           mov         dword ptr [ebp-24h],ecx
  00404FF4: 89 5D E0           mov         dword ptr [ebp-20h],ebx
  00404FF7: 85 C0              test        eax,eax
  00404FF9: 74 61              je          0040505C
  00404FFB: 8D 4D FC           lea         ecx,[ebp-4]
  00404FFE: 66 C7 45 FC 2A 3F  mov         word ptr [ebp-4],3F2Ah
  00405004: 51                 push        ecx
  00405005: 50                 push        eax
  00405006: 88 5D FE           mov         byte ptr [ebp-2],bl
  00405009: E8 42 3B 00 00     call        00408B50
  0040500E: 59                 pop         ecx
  0040500F: 59                 pop         ecx
  00405010: 8B 0E              mov         ecx,dword ptr [esi]
  00405012: 85 C0              test        eax,eax
  00405014: 75 16              jne         0040502C
  00405016: 8D 45 D8           lea         eax,[ebp-28h]
  00405019: 50                 push        eax
  0040501A: 53                 push        ebx
  0040501B: 53                 push        ebx
  0040501C: 51                 push        ecx
  0040501D: E8 88 01 00 00     call        004051AA
  00405022: 8B F0              mov         esi,eax
  00405024: 83 C4 10           add         esp,10h
  00405027: 89 75 F8           mov         dword ptr [ebp-8],esi
  0040502A: EB 13              jmp         0040503F
  0040502C: 8D 55 D8           lea         edx,[ebp-28h]
  0040502F: 52                 push        edx
  00405030: 50                 push        eax
  00405031: 51                 push        ecx
  00405032: E8 24 02 00 00     call        0040525B
  00405037: 83 C4 0C           add         esp,0Ch
  0040503A: 89 45 F8           mov         dword ptr [ebp-8],eax
  0040503D: 8B F0              mov         esi,eax
  0040503F: 85 F6              test        esi,esi
  00405041: 0F 85 88 00 00 00  jne         004050CF
  00405047: 8B 75 08           mov         esi,dword ptr [ebp+8]
  0040504A: 83 C6 04           add         esi,4
  0040504D: 89 75 08           mov         dword ptr [ebp+8],esi
  00405050: 8B 06              mov         eax,dword ptr [esi]
  00405052: 85 C0              test        eax,eax
  00405054: 75 A5              jne         00404FFB
  00405056: 8B 7D D8           mov         edi,dword ptr [ebp-28h]
  00405059: 8B 4D DC           mov         ecx,dword ptr [ebp-24h]
  0040505C: 8B C1              mov         eax,ecx
  0040505E: 89 5D FC           mov         dword ptr [ebp-4],ebx
  00405061: 2B C7              sub         eax,edi
  00405063: 8B F7              mov         esi,edi
  00405065: 8B D0              mov         edx,eax
  00405067: 89 75 F8           mov         dword ptr [ebp-8],esi
  0040506A: C1 FA 02           sar         edx,2
  0040506D: 83 C0 03           add         eax,3
  00405070: 42                 inc         edx
  00405071: C1 E8 02           shr         eax,2
  00405074: 3B CE              cmp         ecx,esi
  00405076: 89 55 F4           mov         dword ptr [ebp-0Ch],edx
  00405079: 1B F6              sbb         esi,esi
  0040507B: F7 D6              not         esi
  0040507D: 23 F0              and         esi,eax
  0040507F: 74 2F              je          004050B0
  00405081: 8B C7              mov         eax,edi
  00405083: 8B D3              mov         edx,ebx
  00405085: 8B 08              mov         ecx,dword ptr [eax]
  00405087: 8D 41 01           lea         eax,[ecx+1]
  0040508A: 89 45 F0           mov         dword ptr [ebp-10h],eax
  0040508D: 8A 01              mov         al,byte ptr [ecx]
  0040508F: 41                 inc         ecx
  00405090: 84 C0              test        al,al
  00405092: 75 F9              jne         0040508D
  00405094: 2B 4D F0           sub         ecx,dword ptr [ebp-10h]
  00405097: 43                 inc         ebx
  00405098: 8B 45 F8           mov         eax,dword ptr [ebp-8]
  0040509B: 03 D9              add         ebx,ecx
  0040509D: 83 C0 04           add         eax,4
  004050A0: 42                 inc         edx
  004050A1: 89 45 F8           mov         dword ptr [ebp-8],eax
  004050A4: 3B D6              cmp         edx,esi
  004050A6: 75 DD              jne         00405085
  004050A8: 8B 55 F4           mov         edx,dword ptr [ebp-0Ch]
  004050AB: 89 5D FC           mov         dword ptr [ebp-4],ebx
  004050AE: 33 DB              xor         ebx,ebx
  004050B0: 6A 01              push        1
  004050B2: FF 75 FC           push        dword ptr [ebp-4]
  004050B5: 52                 push        edx
  004050B6: E8 80 E5 FF FF     call        0040363B
  004050BB: 8B F0              mov         esi,eax
  004050BD: 83 C4 0C           add         esp,0Ch
  004050C0: 85 F6              test        esi,esi
  004050C2: 75 13              jne         004050D7
  004050C4: 83 CE FF           or          esi,0FFFFFFFFh
  004050C7: 89 75 F8           mov         dword ptr [ebp-8],esi
  004050CA: E9 85 00 00 00     jmp         00405154
  004050CF: 8B 7D D8           mov         edi,dword ptr [ebp-28h]
  004050D2: E9 84 00 00 00     jmp         0040515B
  004050D7: 8B 45 F4           mov         eax,dword ptr [ebp-0Ch]
  004050DA: 89 7D F8           mov         dword ptr [ebp-8],edi
  004050DD: 8D 04 86           lea         eax,[esi+eax*4]
  004050E0: 8B C8              mov         ecx,eax
  004050E2: 89 45 E8           mov         dword ptr [ebp-18h],eax
  004050E5: 8B C7              mov         eax,edi
  004050E7: 89 4D F4           mov         dword ptr [ebp-0Ch],ecx
  004050EA: 3B 45 DC           cmp         eax,dword ptr [ebp-24h]
  004050ED: 74 5B              je          0040514A
  004050EF: 8B D6              mov         edx,esi
  004050F1: 2B D7              sub         edx,edi
  004050F3: 89 55 E4           mov         dword ptr [ebp-1Ch],edx
  004050F6: 8B 00              mov         eax,dword ptr [eax]
  004050F8: 8B D0              mov         edx,eax
  004050FA: 89 45 EC           mov         dword ptr [ebp-14h],eax
  004050FD: 8D 42 01           lea         eax,[edx+1]
  00405100: 89 45 F0           mov         dword ptr [ebp-10h],eax
  00405103: 8A 02              mov         al,byte ptr [edx]
  00405105: 42                 inc         edx
  00405106: 84 C0              test        al,al
  00405108: 75 F9              jne         00405103
  0040510A: 2B 55 F0           sub         edx,dword ptr [ebp-10h]
  0040510D: 8D 42 01           lea         eax,[edx+1]
  00405110: 50                 push        eax
  00405111: FF 75 EC           push        dword ptr [ebp-14h]
  00405114: 89 45 F0           mov         dword ptr [ebp-10h],eax
  00405117: 8B 45 E8           mov         eax,dword ptr [ebp-18h]
  0040511A: 2B C1              sub         eax,ecx
  0040511C: 03 45 FC           add         eax,dword ptr [ebp-4]
  0040511F: 50                 push        eax
  00405120: 51                 push        ecx
  00405121: E8 11 3A 00 00     call        00408B37
  00405126: 83 C4 10           add         esp,10h
  00405129: 85 C0              test        eax,eax
  0040512B: 75 72              jne         0040519F
  0040512D: 8B 45 F8           mov         eax,dword ptr [ebp-8]
  00405130: 8B 55 E4           mov         edx,dword ptr [ebp-1Ch]
  00405133: 8B 4D F4           mov         ecx,dword ptr [ebp-0Ch]
  00405136: 89 0C 02           mov         dword ptr [edx+eax],ecx
  00405139: 83 C0 04           add         eax,4
  0040513C: 03 4D F0           add         ecx,dword ptr [ebp-10h]
  0040513F: 89 4D F4           mov         dword ptr [ebp-0Ch],ecx
  00405142: 89 45 F8           mov         dword ptr [ebp-8],eax
  00405145: 3B 45 DC           cmp         eax,dword ptr [ebp-24h]
  00405148: 75 AC              jne         004050F6
  0040514A: 8B 45 0C           mov         eax,dword ptr [ebp+0Ch]
  0040514D: 89 5D F8           mov         dword ptr [ebp-8],ebx
  00405150: 89 30              mov         dword ptr [eax],esi
  00405152: 8B F3              mov         esi,ebx
  00405154: 53                 push        ebx
  00405155: E8 71 FC FF FF     call        00404DCB
  0040515A: 59                 pop         ecx
  0040515B: 8B 45 DC           mov         eax,dword ptr [ebp-24h]
  0040515E: 8B D7              mov         edx,edi
  00405160: 2B C2              sub         eax,edx
  00405162: 89 55 E4           mov         dword ptr [ebp-1Ch],edx
  00405165: 83 C0 03           add         eax,3
  00405168: C1 E8 02           shr         eax,2
  0040516B: 39 55 DC           cmp         dword ptr [ebp-24h],edx
  0040516E: 1B C9              sbb         ecx,ecx
  00405170: F7 D1              not         ecx
  00405172: 23 C8              and         ecx,eax
  00405174: 89 4D E8           mov         dword ptr [ebp-18h],ecx
  00405177: 74 18              je          00405191
  00405179: 8B F1              mov         esi,ecx
  0040517B: FF 37              push        dword ptr [edi]
  0040517D: E8 49 FC FF FF     call        00404DCB
  00405182: 43                 inc         ebx
  00405183: 8D 7F 04           lea         edi,[edi+4]
  00405186: 59                 pop         ecx
  00405187: 3B DE              cmp         ebx,esi
  00405189: 75 F0              jne         0040517B
  0040518B: 8B 7D D8           mov         edi,dword ptr [ebp-28h]
  0040518E: 8B 75 F8           mov         esi,dword ptr [ebp-8]
  00405191: 57                 push        edi
  00405192: E8 34 FC FF FF     call        00404DCB
  00405197: 59                 pop         ecx
  00405198: 5F                 pop         edi
  00405199: 5B                 pop         ebx
  0040519A: 8B C6              mov         eax,esi
  0040519C: 5E                 pop         esi
  0040519D: C9                 leave
  0040519E: C3                 ret
  0040519F: 53                 push        ebx
  004051A0: 53                 push        ebx
  004051A1: 53                 push        ebx
  004051A2: 53                 push        ebx
  004051A3: 53                 push        ebx
  004051A4: E8 05 FB FF FF     call        00404CAE
  004051A9: CC                 int         3
  004051AA: 8B FF              mov         edi,edi
  004051AC: 55                 push        ebp
  004051AD: 8B EC              mov         ebp,esp
  004051AF: 51                 push        ecx
  004051B0: 8B 4D 08           mov         ecx,dword ptr [ebp+8]
  004051B3: 8D 51 01           lea         edx,[ecx+1]
  004051B6: 8A 01              mov         al,byte ptr [ecx]
  004051B8: 41                 inc         ecx
  004051B9: 84 C0              test        al,al
  004051BB: 75 F9              jne         004051B6
  004051BD: 57                 push        edi
  004051BE: 8B 7D 10           mov         edi,dword ptr [ebp+10h]
  004051C1: 2B CA              sub         ecx,edx
  004051C3: 8B C7              mov         eax,edi
  004051C5: 41                 inc         ecx
  004051C6: F7 D0              not         eax
  004051C8: 89 4D FC           mov         dword ptr [ebp-4],ecx
  004051CB: 3B C8              cmp         ecx,eax
  004051CD: 76 06              jbe         004051D5
  004051CF: 6A 0C              push        0Ch
  004051D1: 58                 pop         eax
  004051D2: 5F                 pop         edi
  004051D3: C9                 leave
  004051D4: C3                 ret
  004051D5: 53                 push        ebx
  004051D6: 56                 push        esi
  004051D7: 8D 5F 01           lea         ebx,[edi+1]
  004051DA: 03 D9              add         ebx,ecx
  004051DC: 6A 01              push        1
  004051DE: 53                 push        ebx
  004051DF: E8 8A FB FF FF     call        00404D6E
  004051E4: 8B F0              mov         esi,eax
  004051E6: 59                 pop         ecx
  004051E7: 59                 pop         ecx
  004051E8: 85 FF              test        edi,edi
  004051EA: 74 12              je          004051FE
  004051EC: 57                 push        edi
  004051ED: FF 75 0C           push        dword ptr [ebp+0Ch]
  004051F0: 53                 push        ebx
  004051F1: 56                 push        esi
  004051F2: E8 40 39 00 00     call        00408B37
  004051F7: 83 C4 10           add         esp,10h
  004051FA: 85 C0              test        eax,eax
  004051FC: 75 50              jne         0040524E
  004051FE: FF 75 FC           push        dword ptr [ebp-4]
  00405201: 2B DF              sub         ebx,edi
  00405203: 8D 04 3E           lea         eax,[esi+edi]
  00405206: FF 75 08           push        dword ptr [ebp+8]
  00405209: 53                 push        ebx
  0040520A: 50                 push        eax
  0040520B: E8 27 39 00 00     call        00408B37
  00405210: 83 C4 10           add         esp,10h
  00405213: 85 C0              test        eax,eax
  00405215: 75 37              jne         0040524E
  00405217: 8B 5D 14           mov         ebx,dword ptr [ebp+14h]
  0040521A: 8B CB              mov         ecx,ebx
  0040521C: E8 84 03 00 00     call        004055A5
  00405221: 33 FF              xor         edi,edi
  00405223: 89 45 FC           mov         dword ptr [ebp-4],eax
  00405226: 85 C0              test        eax,eax
  00405228: 74 0C              je          00405236
  0040522A: 56                 push        esi
  0040522B: E8 9B FB FF FF     call        00404DCB
  00405230: 8B 75 FC           mov         esi,dword ptr [ebp-4]
  00405233: 59                 pop         ecx
  00405234: EB 0B              jmp         00405241
  00405236: 8B 43 04           mov         eax,dword ptr [ebx+4]
  00405239: 89 30              mov         dword ptr [eax],esi
  0040523B: 8B F7              mov         esi,edi
  0040523D: 83 43 04 04        add         dword ptr [ebx+4],4
  00405241: 57                 push        edi
  00405242: E8 84 FB FF FF     call        00404DCB
  00405247: 59                 pop         ecx
  00405248: 8B C6              mov         eax,esi
  0040524A: 5E                 pop         esi
  0040524B: 5B                 pop         ebx
  0040524C: EB 84              jmp         004051D2
  0040524E: 33 FF              xor         edi,edi
  00405250: 57                 push        edi
  00405251: 57                 push        edi
  00405252: 57                 push        edi
  00405253: 57                 push        edi
  00405254: 57                 push        edi
  00405255: E8 54 FA FF FF     call        00404CAE
  0040525A: CC                 int         3
  0040525B: 8B FF              mov         edi,edi
  0040525D: 55                 push        ebp
  0040525E: 8B EC              mov         ebp,esp
  00405260: 81 EC 98 02 00 00  sub         esp,298h
  00405266: A1 18 30 41 00     mov         eax,dword ptr ds:[00413018h]
  0040526B: 33 C5              xor         eax,ebp
  0040526D: 89 45 FC           mov         dword ptr [ebp-4],eax
  00405270: 8B 4D 0C           mov         ecx,dword ptr [ebp+0Ch]
  00405273: 8B 55 10           mov         edx,dword ptr [ebp+10h]
  00405276: 53                 push        ebx
  00405277: 57                 push        edi
  00405278: 8B 7D 08           mov         edi,dword ptr [ebp+8]
  0040527B: 89 95 A4 FD FF FF  mov         dword ptr [ebp+FFFFFDA4h],edx
  00405281: 3B CF              cmp         ecx,edi
  00405283: 74 23              je          004052A8
  00405285: 8A 01              mov         al,byte ptr [ecx]
  00405287: 3C 2F              cmp         al,2Fh
  00405289: 74 17              je          004052A2
  0040528B: 3C 5C              cmp         al,5Ch
  0040528D: 74 13              je          004052A2
  0040528F: 3C 3A              cmp         al,3Ah
  00405291: 74 0F              je          004052A2
  00405293: 51                 push        ecx
  00405294: 57                 push        edi
  00405295: E8 F6 38 00 00     call        00408B90
  0040529A: 59                 pop         ecx
  0040529B: 59                 pop         ecx
  0040529C: 8B C8              mov         ecx,eax
  0040529E: 3B CF              cmp         ecx,edi
  004052A0: 75 E3              jne         00405285
  004052A2: 8B 95 A4 FD FF FF  mov         edx,dword ptr [ebp+FFFFFDA4h]
  004052A8: 8A 01              mov         al,byte ptr [ecx]
  004052AA: 88 85 AB FD FF FF  mov         byte ptr [ebp+FFFFFDABh],al
  004052B0: 3C 3A              cmp         al,3Ah
  004052B2: 75 20              jne         004052D4
  004052B4: 8D 47 01           lea         eax,[edi+1]
  004052B7: 3B C8              cmp         ecx,eax
  004052B9: 74 13              je          004052CE
  004052BB: 52                 push        edx
  004052BC: 33 DB              xor         ebx,ebx
  004052BE: 53                 push        ebx
  004052BF: 53                 push        ebx
  004052C0: 57                 push        edi
  004052C1: E8 E4 FE FF FF     call        004051AA
  004052C6: 83 C4 10           add         esp,10h
  004052C9: E9 D6 01 00 00     jmp         004054A4
  004052CE: 8A 85 AB FD FF FF  mov         al,byte ptr [ebp+FFFFFDABh]
  004052D4: 33 DB              xor         ebx,ebx
  004052D6: 3C 2F              cmp         al,2Fh
  004052D8: 74 0A              je          004052E4
  004052DA: 3C 5C              cmp         al,5Ch
  004052DC: 74 06              je          004052E4
  004052DE: 3C 3A              cmp         al,3Ah
  004052E0: 8A C3              mov         al,bl
  004052E2: 75 02              jne         004052E6
  004052E4: B0 01              mov         al,1
  004052E6: 2B CF              sub         ecx,edi
  004052E8: 0F B6 C0           movzx       eax,al
  004052EB: 41                 inc         ecx
  004052EC: 89 9D 68 FD FF FF  mov         dword ptr [ebp+FFFFFD68h],ebx
  004052F2: F7 D8              neg         eax
  004052F4: 89 9D 6C FD FF FF  mov         dword ptr [ebp+FFFFFD6Ch],ebx
  004052FA: 56                 push        esi
  004052FB: 1B C0              sbb         eax,eax
  004052FD: 89 9D 70 FD FF FF  mov         dword ptr [ebp+FFFFFD70h],ebx
  00405303: 23 C1              and         eax,ecx
  00405305: 89 9D 74 FD FF FF  mov         dword ptr [ebp+FFFFFD74h],ebx
  0040530B: 89 85 88 FD FF FF  mov         dword ptr [ebp+FFFFFD88h],eax
  00405311: 89 9D 78 FD FF FF  mov         dword ptr [ebp+FFFFFD78h],ebx
  00405317: 88 9D 7C FD FF FF  mov         byte ptr [ebp+FFFFFD7Ch],bl
  0040531D: E8 90 01 00 00     call        004054B2
  00405322: 50                 push        eax
  00405323: 8D 85 68 FD FF FF  lea         eax,[ebp+FFFFFD68h]
  00405329: 50                 push        eax
  0040532A: 57                 push        edi
  0040532B: E8 6E FC FF FF     call        00404F9E
  00405330: 83 C4 0C           add         esp,0Ch
  00405333: 8D 8D AC FD FF FF  lea         ecx,[ebp+FFFFFDACh]
  00405339: F7 D8              neg         eax
  0040533B: 1B C0              sbb         eax,eax
  0040533D: 53                 push        ebx
  0040533E: 53                 push        ebx
  0040533F: 53                 push        ebx
  00405340: 51                 push        ecx
  00405341: F7 D0              not         eax
  00405343: 23 85 70 FD FF FF  and         eax,dword ptr [ebp+FFFFFD70h]
  00405349: 53                 push        ebx
  0040534A: 50                 push        eax
  0040534B: FF 15 9C D0 40 00  call        dword ptr ds:[0040D09Ch]
  00405351: 8B F0              mov         esi,eax
  00405353: 83 FE FF           cmp         esi,0FFFFFFFFh
  00405356: 75 18              jne         00405370
  00405358: FF B5 A4 FD FF FF  push        dword ptr [ebp+FFFFFDA4h]
  0040535E: 53                 push        ebx
  0040535F: 53                 push        ebx
  00405360: 57                 push        edi
  00405361: E8 44 FE FF FF     call        004051AA
  00405366: 83 C4 10           add         esp,10h
  00405369: 8B D8              mov         ebx,eax
  0040536B: E9 1C 01 00 00     jmp         0040548C
  00405370: 8B 85 A4 FD FF FF  mov         eax,dword ptr [ebp+FFFFFDA4h]
  00405376: 8B 48 04           mov         ecx,dword ptr [eax+4]
  00405379: 2B 08              sub         ecx,dword ptr [eax]
  0040537B: C1 F9 02           sar         ecx,2
  0040537E: 89 8D 84 FD FF FF  mov         dword ptr [ebp+FFFFFD84h],ecx
  00405384: 89 9D 8C FD FF FF  mov         dword ptr [ebp+FFFFFD8Ch],ebx
  0040538A: 89 9D 90 FD FF FF  mov         dword ptr [ebp+FFFFFD90h],ebx
  00405390: 89 9D 94 FD FF FF  mov         dword ptr [ebp+FFFFFD94h],ebx
  00405396: 89 9D 98 FD FF FF  mov         dword ptr [ebp+FFFFFD98h],ebx
  0040539C: 89 9D 9C FD FF FF  mov         dword ptr [ebp+FFFFFD9Ch],ebx
  004053A2: 88 9D A0 FD FF FF  mov         byte ptr [ebp+FFFFFDA0h],bl
  004053A8: E8 05 01 00 00     call        004054B2
  004053AD: 50                 push        eax
  004053AE: 8D 85 AB FD FF FF  lea         eax,[ebp+FFFFFDABh]
  004053B4: 50                 push        eax
  004053B5: 8D 85 8C FD FF FF  lea         eax,[ebp+FFFFFD8Ch]
  004053BB: 50                 push        eax
  004053BC: 8D 85 D8 FD FF FF  lea         eax,[ebp+FFFFFDD8h]
  004053C2: 50                 push        eax
  004053C3: E8 07 FB FF FF     call        00404ECF
  004053C8: 83 C4 10           add         esp,10h
  004053CB: F7 D8              neg         eax
  004053CD: 1B C0              sbb         eax,eax
  004053CF: F7 D0              not         eax
  004053D1: 23 85 94 FD FF FF  and         eax,dword ptr [ebp+FFFFFD94h]
  004053D7: 80 38 2E           cmp         byte ptr [eax],2Eh
  004053DA: 75 11              jne         004053ED
  004053DC: 8A 48 01           mov         cl,byte ptr [eax+1]
  004053DF: 84 C9              test        cl,cl
  004053E1: 74 2A              je          0040540D
  004053E3: 80 F9 2E           cmp         cl,2Eh
  004053E6: 75 05              jne         004053ED
  004053E8: 38 58 02           cmp         byte ptr [eax+2],bl
  004053EB: 74 20              je          0040540D
  004053ED: FF B5 A4 FD FF FF  push        dword ptr [ebp+FFFFFDA4h]
  004053F3: FF B5 88 FD FF FF  push        dword ptr [ebp+FFFFFD88h]
  004053F9: 57                 push        edi
  004053FA: 50                 push        eax
  004053FB: E8 AA FD FF FF     call        004051AA
  00405400: 83 C4 10           add         esp,10h
  00405403: 89 85 80 FD FF FF  mov         dword ptr [ebp+FFFFFD80h],eax
  00405409: 85 C0              test        eax,eax
  0040540B: 75 5C              jne         00405469
  0040540D: 38 9D A0 FD FF FF  cmp         byte ptr [ebp+FFFFFDA0h],bl
  00405413: 74 0C              je          00405421
  00405415: FF B5 94 FD FF FF  push        dword ptr [ebp+FFFFFD94h]
  0040541B: E8 AB F9 FF FF     call        00404DCB
  00405420: 59                 pop         ecx
  00405421: 8D 85 AC FD FF FF  lea         eax,[ebp+FFFFFDACh]
  00405427: 50                 push        eax
  00405428: 56                 push        esi
  00405429: FF 15 A0 D0 40 00  call        dword ptr ds:[0040D0A0h]
  0040542F: 85 C0              test        eax,eax
  00405431: 0F 85 4D FF FF FF  jne         00405384
  00405437: 8B 85 A4 FD FF FF  mov         eax,dword ptr [ebp+FFFFFDA4h]
  0040543D: 8B 8D 84 FD FF FF  mov         ecx,dword ptr [ebp+FFFFFD84h]
  00405443: 8B 10              mov         edx,dword ptr [eax]
  00405445: 8B 40 04           mov         eax,dword ptr [eax+4]
  00405448: 2B C2              sub         eax,edx
  0040544A: C1 F8 02           sar         eax,2
  0040544D: 3B C8              cmp         ecx,eax
  0040544F: 74 34              je          00405485
  00405451: 68 05 4E 40 00     push        404E05h
  00405456: 2B C1              sub         eax,ecx
  00405458: 6A 04              push        4
  0040545A: 50                 push        eax
  0040545B: 8D 04 8A           lea         eax,[edx+ecx*4]
  0040545E: 50                 push        eax
  0040545F: E8 DC 31 00 00     call        00408640
  00405464: 83 C4 10           add         esp,10h
  00405467: EB 1C              jmp         00405485
  00405469: 38 9D A0 FD FF FF  cmp         byte ptr [ebp+FFFFFDA0h],bl
  0040546F: 74 12              je          00405483
  00405471: FF B5 94 FD FF FF  push        dword ptr [ebp+FFFFFD94h]
  00405477: E8 4F F9 FF FF     call        00404DCB
  0040547C: 8B 85 80 FD FF FF  mov         eax,dword ptr [ebp+FFFFFD80h]
  00405482: 59                 pop         ecx
  00405483: 8B D8              mov         ebx,eax
  00405485: 56                 push        esi
  00405486: FF 15 98 D0 40 00  call        dword ptr ds:[0040D098h]
  0040548C: 80 BD 7C FD FF FF  cmp         byte ptr [ebp+FFFFFD7Ch],0
            00
  00405493: 5E                 pop         esi
  00405494: 74 0C              je          004054A2
  00405496: FF B5 70 FD FF FF  push        dword ptr [ebp+FFFFFD70h]
  0040549C: E8 2A F9 FF FF     call        00404DCB
  004054A1: 59                 pop         ecx
  004054A2: 8B C3              mov         eax,ebx
  004054A4: 8B 4D FC           mov         ecx,dword ptr [ebp-4]
  004054A7: 5F                 pop         edi
  004054A8: 33 CD              xor         ecx,ebp
  004054AA: 5B                 pop         ebx
  004054AB: E8 77 C5 FF FF     call        00401A27
  004054B0: C9                 leave
  004054B1: C3                 ret
  004054B2: 8B FF              mov         edi,edi
  004054B4: 55                 push        ebp
  004054B5: 8B EC              mov         ebp,esp
  004054B7: 83 EC 10           sub         esp,10h
  004054BA: 6A 00              push        0
  004054BC: 8D 4D F0           lea         ecx,[ebp-10h]
  004054BF: E8 61 EF FF FF     call        00404425
  004054C4: 8B 45 F4           mov         eax,dword ptr [ebp-0Ch]
  004054C7: BA E9 FD 00 00     mov         edx,0FDE9h
  004054CC: 39 50 08           cmp         dword ptr [eax+8],edx
  004054CF: 74 0C              je          004054DD
  004054D1: E8 A6 1F 00 00     call        0040747C
  004054D6: 33 D2              xor         edx,edx
  004054D8: 85 C0              test        eax,eax
  004054DA: 75 01              jne         004054DD
  004054DC: 42                 inc         edx
  004054DD: 80 7D FC 00        cmp         byte ptr [ebp-4],0
  004054E1: 74 0A              je          004054ED
  004054E3: 8B 4D F0           mov         ecx,dword ptr [ebp-10h]
  004054E6: 83 A1 50 03 00 00  and         dword ptr [ecx+00000350h],0FFFFFFFDh
            FD
  004054ED: 8B C2              mov         eax,edx
  004054EF: C9                 leave
  004054F0: C3                 ret
  004054F1: 8B FF              mov         edi,edi
  004054F3: 56                 push        esi
  004054F4: 8B F1              mov         esi,ecx
  004054F6: 80 7E 14 00        cmp         byte ptr [esi+14h],0
  004054FA: 74 0D              je          00405509
  004054FC: FF 76 08           push        dword ptr [esi+8]
  004054FF: E8 C7 F8 FF FF     call        00404DCB
  00405504: 59                 pop         ecx
  00405505: C6 46 14 00        mov         byte ptr [esi+14h],0
  00405509: 5E                 pop         esi
  0040550A: C3                 ret
  0040550B: 8B FF              mov         edi,edi
  0040550D: 55                 push        ebp
  0040550E: 8B EC              mov         ebp,esp
  00405510: 56                 push        esi
  00405511: 57                 push        edi
  00405512: 8B F1              mov         esi,ecx
  00405514: E8 D8 FF FF FF     call        004054F1
  00405519: 8B 7D 08           mov         edi,dword ptr [ebp+8]
  0040551C: 8D 46 08           lea         eax,[esi+8]
  0040551F: 56                 push        esi
  00405520: 57                 push        edi
  00405521: 50                 push        eax
  00405522: E8 5F 00 00 00     call        00405586
  00405527: 83 C4 0C           add         esp,0Ch
  0040552A: 85 C0              test        eax,eax
  0040552C: 74 0A              je          00405538
  0040552E: 83 66 0C 00        and         dword ptr [esi+0Ch],0
  00405532: C6 46 14 00        mov         byte ptr [esi+14h],0
  00405536: EB 09              jmp         00405541
  00405538: C6 46 14 01        mov         byte ptr [esi+14h],1
  0040553C: 33 C0              xor         eax,eax
  0040553E: 89 7E 0C           mov         dword ptr [esi+0Ch],edi
  00405541: 5F                 pop         edi
  00405542: 5E                 pop         esi
  00405543: 5D                 pop         ebp
  00405544: C2 04 00           ret         4
  00405547: 8B FF              mov         edi,edi
  00405549: 55                 push        ebp
  0040554A: 8B EC              mov         ebp,esp
  0040554C: 56                 push        esi
  0040554D: 57                 push        edi
  0040554E: 8B F1              mov         esi,ecx
  00405550: E8 9C FF FF FF     call        004054F1
  00405555: 8B 7D 08           mov         edi,dword ptr [ebp+8]
  00405558: 56                 push        esi
  00405559: 8D 04 3F           lea         eax,[edi+edi]
  0040555C: 50                 push        eax
  0040555D: 8D 46 08           lea         eax,[esi+8]
  00405560: 50                 push        eax
  00405561: E8 20 00 00 00     call        00405586
  00405566: 83 C4 0C           add         esp,0Ch
  00405569: 85 C0              test        eax,eax
  0040556B: 74 0A              je          00405577
  0040556D: 83 66 0C 00        and         dword ptr [esi+0Ch],0
  00405571: C6 46 14 00        mov         byte ptr [esi+14h],0
  00405575: EB 09              jmp         00405580
  00405577: C6 46 14 01        mov         byte ptr [esi+14h],1
  0040557B: 33 C0              xor         eax,eax
  0040557D: 89 7E 0C           mov         dword ptr [esi+0Ch],edi
  00405580: 5F                 pop         edi
  00405581: 5E                 pop         esi
  00405582: 5D                 pop         ebp
  00405583: C2 04 00           ret         4
  00405586: 8B FF              mov         edi,edi
  00405588: 55                 push        ebp
  00405589: 8B EC              mov         ebp,esp
  0040558B: FF 75 0C           push        dword ptr [ebp+0Ch]
  0040558E: E8 EC 17 00 00     call        00406D7F
  00405593: 59                 pop         ecx
  00405594: 8B 4D 08           mov         ecx,dword ptr [ebp+8]
  00405597: 89 01              mov         dword ptr [ecx],eax
  00405599: F7 D8              neg         eax
  0040559B: 1B C0              sbb         eax,eax
  0040559D: 83 E0 F4           and         eax,0FFFFFFF4h
  004055A0: 83 C0 0C           add         eax,0Ch
  004055A3: 5D                 pop         ebp
  004055A4: C3                 ret
  004055A5: 8B FF              mov         edi,edi
  004055A7: 56                 push        esi
  004055A8: 8B F1              mov         esi,ecx
  004055AA: 57                 push        edi
  004055AB: 8B 7E 08           mov         edi,dword ptr [esi+8]
  004055AE: 39 7E 04           cmp         dword ptr [esi+4],edi
  004055B1: 74 04              je          004055B7
  004055B3: 33 C0              xor         eax,eax
  004055B5: EB 72              jmp         00405629
  004055B7: 83 3E 00           cmp         dword ptr [esi],0
  004055BA: 75 26              jne         004055E2
  004055BC: 6A 04              push        4
  004055BE: 6A 04              push        4
  004055C0: E8 A9 F7 FF FF     call        00404D6E
  004055C5: 6A 00              push        0
  004055C7: 89 06              mov         dword ptr [esi],eax
  004055C9: E8 FD F7 FF FF     call        00404DCB
  004055CE: 8B 06              mov         eax,dword ptr [esi]
  004055D0: 83 C4 0C           add         esp,0Ch
  004055D3: 85 C0              test        eax,eax
  004055D5: 74 18              je          004055EF
  004055D7: 89 46 04           mov         dword ptr [esi+4],eax
  004055DA: 83 C0 10           add         eax,10h
  004055DD: 89 46 08           mov         dword ptr [esi+8],eax
  004055E0: EB D1              jmp         004055B3
  004055E2: 2B 3E              sub         edi,dword ptr [esi]
  004055E4: C1 FF 02           sar         edi,2
  004055E7: 81 FF FF FF FF 7F  cmp         edi,7FFFFFFFh
  004055ED: 76 05              jbe         004055F4
  004055EF: 6A 0C              push        0Ch
  004055F1: 58                 pop         eax
  004055F2: EB 35              jmp         00405629
  004055F4: 53                 push        ebx
  004055F5: 6A 04              push        4
  004055F7: 8D 1C 3F           lea         ebx,[edi+edi]
  004055FA: 53                 push        ebx
  004055FB: FF 36              push        dword ptr [esi]
  004055FD: E8 2F 21 00 00     call        00407731
  00405602: 83 C4 0C           add         esp,0Ch
  00405605: 85 C0              test        eax,eax
  00405607: 75 05              jne         0040560E
  00405609: 6A 0C              push        0Ch
  0040560B: 5E                 pop         esi
  0040560C: EB 10              jmp         0040561E
  0040560E: 89 06              mov         dword ptr [esi],eax
  00405610: 8D 0C B8           lea         ecx,[eax+edi*4]
  00405613: 8D 04 98           lea         eax,[eax+ebx*4]
  00405616: 89 4E 04           mov         dword ptr [esi+4],ecx
  00405619: 89 46 08           mov         dword ptr [esi+8],eax
  0040561C: 33 F6              xor         esi,esi
  0040561E: 6A 00              push        0
  00405620: E8 A6 F7 FF FF     call        00404DCB
  00405625: 59                 pop         ecx
  00405626: 8B C6              mov         eax,esi
  00405628: 5B                 pop         ebx
  00405629: 5F                 pop         edi
  0040562A: 5E                 pop         esi
  0040562B: C3                 ret
  0040562C: 8B FF              mov         edi,edi
  0040562E: 55                 push        ebp
  0040562F: 8B EC              mov         ebp,esp
  00405631: 5D                 pop         ebp
  00405632: E9 84 F9 FF FF     jmp         00404FBB
  00405637: 8B FF              mov         edi,edi
  00405639: 55                 push        ebp
  0040563A: 8B EC              mov         ebp,esp
  0040563C: 56                 push        esi
  0040563D: 8B 75 08           mov         esi,dword ptr [ebp+8]
  00405640: 85 F6              test        esi,esi
  00405642: 75 0F              jne         00405653
  00405644: 8B 4D 0C           mov         ecx,dword ptr [ebp+0Ch]
  00405647: E8 D9 00 00 00     call        00405725
  0040564C: 33 C0              xor         eax,eax
  0040564E: E9 A8 00 00 00     jmp         004056FB
  00405653: 53                 push        ebx
  00405654: 33 DB              xor         ebx,ebx
  00405656: 66 39 1E           cmp         word ptr [esi],bx
  00405659: 75 25              jne         00405680
  0040565B: 8B 75 0C           mov         esi,dword ptr [ebp+0Ch]
  0040565E: 39 5E 0C           cmp         dword ptr [esi+0Ch],ebx
  00405661: 75 11              jne         00405674
  00405663: 6A 01              push        1
  00405665: 8B CE              mov         ecx,esi
  00405667: E8 92 00 00 00     call        004056FE
  0040566C: 85 C0              test        eax,eax
  0040566E: 0F 85 86 00 00 00  jne         004056FA
  00405674: 8B 46 08           mov         eax,dword ptr [esi+8]
  00405677: 88 18              mov         byte ptr [eax],bl
  00405679: 33 C0              xor         eax,eax
  0040567B: 89 5E 10           mov         dword ptr [esi+10h],ebx
  0040567E: EB 7A              jmp         004056FA
  00405680: 53                 push        ebx
  00405681: 53                 push        ebx
  00405682: 53                 push        ebx
  00405683: 53                 push        ebx
  00405684: 6A FF              push        0FFFFFFFFh
  00405686: 56                 push        esi
  00405687: 53                 push        ebx
  00405688: FF 75 14           push        dword ptr [ebp+14h]
  0040568B: E8 22 0A 00 00     call        004060B2
  00405690: 83 C4 20           add         esp,20h
  00405693: 85 C0              test        eax,eax
  00405695: 75 16              jne         004056AD
  00405697: FF 15 3C D0 40 00  call        dword ptr ds:[0040D03Ch]
  0040569D: 50                 push        eax
  0040569E: E8 82 F6 FF FF     call        00404D25
  004056A3: 59                 pop         ecx
  004056A4: E8 B2 F6 FF FF     call        00404D5B
  004056A9: 8B 00              mov         eax,dword ptr [eax]
  004056AB: EB 4D              jmp         004056FA
  004056AD: 57                 push        edi
  004056AE: 8B 7D 0C           mov         edi,dword ptr [ebp+0Ch]
  004056B1: 3B 47 0C           cmp         eax,dword ptr [edi+0Ch]
  004056B4: 76 0C              jbe         004056C2
  004056B6: 50                 push        eax
  004056B7: 8B CF              mov         ecx,edi
  004056B9: E8 40 00 00 00     call        004056FE
  004056BE: 85 C0              test        eax,eax
  004056C0: 75 37              jne         004056F9
  004056C2: 53                 push        ebx
  004056C3: 53                 push        ebx
  004056C4: FF 77 0C           push        dword ptr [edi+0Ch]
  004056C7: FF 77 08           push        dword ptr [edi+8]
  004056CA: 6A FF              push        0FFFFFFFFh
  004056CC: 56                 push        esi
  004056CD: 53                 push        ebx
  004056CE: FF 75 14           push        dword ptr [ebp+14h]
  004056D1: E8 DC 09 00 00     call        004060B2
  004056D6: 83 C4 20           add         esp,20h
  004056D9: 85 C0              test        eax,eax
  004056DB: 75 16              jne         004056F3
  004056DD: FF 15 3C D0 40 00  call        dword ptr ds:[0040D03Ch]
  004056E3: 50                 push        eax
  004056E4: E8 3C F6 FF FF     call        00404D25
  004056E9: 59                 pop         ecx
  004056EA: E8 6C F6 FF FF     call        00404D5B
  004056EF: 8B 00              mov         eax,dword ptr [eax]
  004056F1: EB 06              jmp         004056F9
  004056F3: 48                 dec         eax
  004056F4: 89 47 10           mov         dword ptr [edi+10h],eax
  004056F7: 33 C0              xor         eax,eax
  004056F9: 5F                 pop         edi
  004056FA: 5B                 pop         ebx
  004056FB: 5E                 pop         esi
  004056FC: 5D                 pop         ebp
  004056FD: C3                 ret
  004056FE: 8B FF              mov         edi,edi
  00405700: 56                 push        esi
  00405701: 8B F1              mov         esi,ecx
  00405703: 80 7E 14 00        cmp         byte ptr [esi+14h],0
  00405707: 74 04              je          0040570D
  00405709: C6 46 14 00        mov         byte ptr [esi+14h],0
  0040570D: E8 49 F6 FF FF     call        00404D5B
  00405712: 6A 22              push        22h
  00405714: 59                 pop         ecx
  00405715: 89 08              mov         dword ptr [eax],ecx
  00405717: 8B C1              mov         eax,ecx
  00405719: 83 66 0C 00        and         dword ptr [esi+0Ch],0
  0040571D: C6 46 14 00        mov         byte ptr [esi+14h],0
  00405721: 5E                 pop         esi
  00405722: C2 04 00           ret         4
  00405725: 33 C0              xor         eax,eax
  00405727: 38 41 14           cmp         byte ptr [ecx+14h],al
  0040572A: 74 03              je          0040572F
  0040572C: 88 41 14           mov         byte ptr [ecx+14h],al
  0040572F: 89 41 08           mov         dword ptr [ecx+8],eax
  00405732: 89 41 0C           mov         dword ptr [ecx+0Ch],eax
  00405735: 89 41 10           mov         dword ptr [ecx+10h],eax
  00405738: C3                 ret
  00405739: 8B FF              mov         edi,edi
  0040573B: 55                 push        ebp
  0040573C: 8B EC              mov         ebp,esp
  0040573E: 81 EC 2C 02 00 00  sub         esp,22Ch
  00405744: A1 18 30 41 00     mov         eax,dword ptr ds:[00413018h]
  00405749: 33 C5              xor         eax,ebp
  0040574B: 89 45 FC           mov         dword ptr [ebp-4],eax
  0040574E: 8B 45 08           mov         eax,dword ptr [ebp+8]
  00405751: 8D 8D F0 FD FF FF  lea         ecx,[ebp+FFFFFDF0h]
  00405757: 68 05 01 00 00     push        105h
  0040575C: 51                 push        ecx
  0040575D: 50                 push        eax
  0040575E: FF 15 7C D0 40 00  call        dword ptr ds:[0040D07Ch]
  00405764: 85 C0              test        eax,eax
  00405766: 75 11              jne         00405779
  00405768: FF 15 3C D0 40 00  call        dword ptr ds:[0040D03Ch]
  0040576E: 50                 push        eax
  0040576F: E8 B1 F5 FF FF     call        00404D25
  00405774: 59                 pop         ecx
  00405775: 33 C0              xor         eax,eax
  00405777: EB 55              jmp         004057CE
  00405779: 8B 4D 0C           mov         ecx,dword ptr [ebp+0Ch]
  0040577C: 8B 45 10           mov         eax,dword ptr [ebp+10h]
  0040577F: 83 A5 E4 FD FF FF  and         dword ptr [ebp+FFFFFDE4h],0
            00
  00405786: 89 8D D4 FD FF FF  mov         dword ptr [ebp+FFFFFDD4h],ecx
  0040578C: 89 85 D8 FD FF FF  mov         dword ptr [ebp+FFFFFDD8h],eax
  00405792: 89 8D DC FD FF FF  mov         dword ptr [ebp+FFFFFDDCh],ecx
  00405798: 89 85 E0 FD FF FF  mov         dword ptr [ebp+FFFFFDE0h],eax
  0040579E: C6 85 E8 FD FF FF  mov         byte ptr [ebp+FFFFFDE8h],0
            00
  004057A5: E8 08 FD FF FF     call        004054B2
  004057AA: 50                 push        eax
  004057AB: 8D 85 EF FD FF FF  lea         eax,[ebp+FFFFFDEFh]
  004057B1: 50                 push        eax
  004057B2: 8D 85 D4 FD FF FF  lea         eax,[ebp+FFFFFDD4h]
  004057B8: 50                 push        eax
  004057B9: 8D 85 F0 FD FF FF  lea         eax,[ebp+FFFFFDF0h]
  004057BF: 50                 push        eax
  004057C0: E8 72 FE FF FF     call        00405637
  004057C5: 8B 85 E4 FD FF FF  mov         eax,dword ptr [ebp+FFFFFDE4h]
  004057CB: 83 C4 10           add         esp,10h
  004057CE: 8B 4D FC           mov         ecx,dword ptr [ebp-4]
  004057D1: 33 CD              xor         ecx,ebp
  004057D3: E8 4F C2 FF FF     call        00401A27
  004057D8: C9                 leave
  004057D9: C3                 ret
  004057DA: 6A 08              push        8
  004057DC: 68 18 21 41 00     push        412118h
  004057E1: E8 0A C0 FF FF     call        004017F0
  004057E6: 8B 45 08           mov         eax,dword ptr [ebp+8]
  004057E9: FF 30              push        dword ptr [eax]
  004057EB: E8 D3 0D 00 00     call        004065C3
  004057F0: 59                 pop         ecx
  004057F1: 83 65 FC 00        and         dword ptr [ebp-4],0
  004057F5: 8B 4D 0C           mov         ecx,dword ptr [ebp+0Ch]
  004057F8: E8 2A 00 00 00     call        00405827
  004057FD: C7 45 FC FE FF FF  mov         dword ptr [ebp-4],0FFFFFFFEh
            FF
  00405804: E8 12 00 00 00     call        0040581B
  00405809: 8B 4D F0           mov         ecx,dword ptr [ebp-10h]
  0040580C: 64 89 0D 00 00 00  mov         dword ptr fs:[00000000h],ecx
            00
  00405813: 59                 pop         ecx
  00405814: 5F                 pop         edi
  00405815: 5E                 pop         esi
  00405816: 5B                 pop         ebx
  00405817: C9                 leave
  00405818: C2 0C 00           ret         0Ch
  0040581B: 8B 45 10           mov         eax,dword ptr [ebp+10h]
  0040581E: FF 30              push        dword ptr [eax]
  00405820: E8 E6 0D 00 00     call        0040660B
  00405825: 59                 pop         ecx
  00405826: C3                 ret
  00405827: 8B FF              mov         edi,edi
  00405829: 56                 push        esi
  0040582A: 8B F1              mov         esi,ecx
  0040582C: B9 01 01 00 00     mov         ecx,101h
  00405831: 51                 push        ecx
  00405832: 8B 06              mov         eax,dword ptr [esi]
  00405834: 8B 00              mov         eax,dword ptr [eax]
  00405836: 8B 40 48           mov         eax,dword ptr [eax+48h]
  00405839: 83 C0 18           add         eax,18h
  0040583C: 50                 push        eax
  0040583D: 51                 push        ecx
  0040583E: FF 35 04 3E 41 00  push        dword ptr ds:[00413E04h]
  00405844: E8 FD 06 00 00     call        00405F46
  00405849: 8B 06              mov         eax,dword ptr [esi]
  0040584B: B9 00 01 00 00     mov         ecx,100h
  00405850: 51                 push        ecx
  00405851: 8B 00              mov         eax,dword ptr [eax]
  00405853: 8B 40 48           mov         eax,dword ptr [eax+48h]
  00405856: 05 19 01 00 00     add         eax,119h
  0040585B: 50                 push        eax
  0040585C: 51                 push        ecx
  0040585D: FF 35 08 3E 41 00  push        dword ptr ds:[00413E08h]
  00405863: E8 DE 06 00 00     call        00405F46
  00405868: 8B 46 04           mov         eax,dword ptr [esi+4]
  0040586B: 83 C4 20           add         esp,20h
  0040586E: 83 C9 FF           or          ecx,0FFFFFFFFh
  00405871: 8B 00              mov         eax,dword ptr [eax]
  00405873: 8B 00              mov         eax,dword ptr [eax]
  00405875: F0 0F C1 08        lock xadd   dword ptr [eax],ecx
  00405879: 75 15              jne         00405890
  0040587B: 8B 46 04           mov         eax,dword ptr [esi+4]
  0040587E: 8B 00              mov         eax,dword ptr [eax]
  00405880: 81 38 60 30 41 00  cmp         dword ptr [eax],413060h
  00405886: 74 08              je          00405890
  00405888: FF 30              push        dword ptr [eax]
  0040588A: E8 3C F5 FF FF     call        00404DCB
  0040588F: 59                 pop         ecx
  00405890: 8B 06              mov         eax,dword ptr [esi]
  00405892: 8B 10              mov         edx,dword ptr [eax]
  00405894: 8B 46 04           mov         eax,dword ptr [esi+4]
  00405897: 8B 08              mov         ecx,dword ptr [eax]
  00405899: 8B 42 48           mov         eax,dword ptr [edx+48h]
  0040589C: 89 01              mov         dword ptr [ecx],eax
  0040589E: 8B 06              mov         eax,dword ptr [esi]
  004058A0: 8B 00              mov         eax,dword ptr [eax]
  004058A2: 8B 40 48           mov         eax,dword ptr [eax+48h]
  004058A5: F0 FF 00           lock inc    dword ptr [eax]
  004058A8: 5E                 pop         esi
  004058A9: C3                 ret
  004058AA: 8B FF              mov         edi,edi
  004058AC: 55                 push        ebp
  004058AD: 8B EC              mov         ebp,esp
  004058AF: 8B 45 08           mov         eax,dword ptr [ebp+8]
  004058B2: 2D A4 03 00 00     sub         eax,3A4h
  004058B7: 74 28              je          004058E1
  004058B9: 83 E8 04           sub         eax,4
  004058BC: 74 1C              je          004058DA
  004058BE: 83 E8 0D           sub         eax,0Dh
  004058C1: 74 10              je          004058D3
  004058C3: 83 E8 01           sub         eax,1
  004058C6: 74 04              je          004058CC
  004058C8: 33 C0              xor         eax,eax
  004058CA: 5D                 pop         ebp
  004058CB: C3                 ret
  004058CC: A1 D4 DE 40 00     mov         eax,dword ptr ds:[0040DED4h]
  004058D1: 5D                 pop         ebp
  004058D2: C3                 ret
  004058D3: A1 D0 DE 40 00     mov         eax,dword ptr ds:[0040DED0h]
  004058D8: 5D                 pop         ebp
  004058D9: C3                 ret
  004058DA: A1 CC DE 40 00     mov         eax,dword ptr ds:[0040DECCh]
  004058DF: 5D                 pop         ebp
  004058E0: C3                 ret
  004058E1: A1 C8 DE 40 00     mov         eax,dword ptr ds:[0040DEC8h]
  004058E6: 5D                 pop         ebp
  004058E7: C3                 ret
  004058E8: 8B FF              mov         edi,edi
  004058EA: 55                 push        ebp
  004058EB: 8B EC              mov         ebp,esp
  004058ED: 83 EC 10           sub         esp,10h
  004058F0: 8D 4D F0           lea         ecx,[ebp-10h]
  004058F3: 6A 00              push        0
  004058F5: E8 2B EB FF FF     call        00404425
  004058FA: 83 25 10 3E 41 00  and         dword ptr ds:[00413E10h],0
            00
  00405901: 8B 45 08           mov         eax,dword ptr [ebp+8]
  00405904: 83 F8 FE           cmp         eax,0FFFFFFFEh
  00405907: 75 12              jne         0040591B
  00405909: C7 05 10 3E 41 00  mov         dword ptr ds:[00413E10h],1
            01 00 00 00
  00405913: FF 15 AC D0 40 00  call        dword ptr ds:[0040D0ACh]
  00405919: EB 2C              jmp         00405947
  0040591B: 83 F8 FD           cmp         eax,0FFFFFFFDh
  0040591E: 75 12              jne         00405932
  00405920: C7 05 10 3E 41 00  mov         dword ptr ds:[00413E10h],1
            01 00 00 00
  0040592A: FF 15 A8 D0 40 00  call        dword ptr ds:[0040D0A8h]
  00405930: EB 15              jmp         00405947
  00405932: 83 F8 FC           cmp         eax,0FFFFFFFCh
  00405935: 75 10              jne         00405947
  00405937: 8B 45 F4           mov         eax,dword ptr [ebp-0Ch]
  0040593A: C7 05 10 3E 41 00  mov         dword ptr ds:[00413E10h],1
            01 00 00 00
  00405944: 8B 40 08           mov         eax,dword ptr [eax+8]
  00405947: 80 7D FC 00        cmp         byte ptr [ebp-4],0
  0040594B: 74 0A              je          00405957
  0040594D: 8B 4D F0           mov         ecx,dword ptr [ebp-10h]
  00405950: 83 A1 50 03 00 00  and         dword ptr [ecx+00000350h],0FFFFFFFDh
            FD
  00405957: C9                 leave
  00405958: C3                 ret
  00405959: 8B FF              mov         edi,edi
  0040595B: 55                 push        ebp
  0040595C: 8B EC              mov         ebp,esp
  0040595E: 53                 push        ebx
  0040595F: 8B 5D 08           mov         ebx,dword ptr [ebp+8]
  00405962: 56                 push        esi
  00405963: 57                 push        edi
  00405964: 68 01 01 00 00     push        101h
  00405969: 33 FF              xor         edi,edi
  0040596B: 8D 73 18           lea         esi,[ebx+18h]
  0040596E: 57                 push        edi
  0040596F: 56                 push        esi
  00405970: E8 DB C4 FF FF     call        00401E50
  00405975: 89 7B 04           mov         dword ptr [ebx+4],edi
  00405978: 33 C0              xor         eax,eax
  0040597A: 89 7B 08           mov         dword ptr [ebx+8],edi
  0040597D: 83 C4 0C           add         esp,0Ch
  00405980: 89 BB 1C 02 00 00  mov         dword ptr [ebx+0000021Ch],edi
  00405986: B9 01 01 00 00     mov         ecx,101h
  0040598B: 8D 7B 0C           lea         edi,[ebx+0Ch]
  0040598E: AB                 stos        dword ptr es:[edi]
  0040598F: AB                 stos        dword ptr es:[edi]
  00405990: AB                 stos        dword ptr es:[edi]
  00405991: BF 60 30 41 00     mov         edi,413060h
  00405996: 2B FB              sub         edi,ebx
  00405998: 8A 04 37           mov         al,byte ptr [edi+esi]
  0040599B: 88 06              mov         byte ptr [esi],al
  0040599D: 46                 inc         esi
  0040599E: 83 E9 01           sub         ecx,1
  004059A1: 75 F5              jne         00405998
  004059A3: 8D 8B 19 01 00 00  lea         ecx,[ebx+00000119h]
  004059A9: BA 00 01 00 00     mov         edx,100h
  004059AE: 8A 04 39           mov         al,byte ptr [ecx+edi]
  004059B1: 88 01              mov         byte ptr [ecx],al
  004059B3: 41                 inc         ecx
  004059B4: 83 EA 01           sub         edx,1
  004059B7: 75 F5              jne         004059AE
  004059B9: 5F                 pop         edi
  004059BA: 5E                 pop         esi
  004059BB: 5B                 pop         ebx
  004059BC: 5D                 pop         ebp
  004059BD: C3                 ret
  004059BE: 8B FF              mov         edi,edi
  004059C0: 55                 push        ebp
  004059C1: 8B EC              mov         ebp,esp
  004059C3: 81 EC 18 07 00 00  sub         esp,718h
  004059C9: A1 18 30 41 00     mov         eax,dword ptr ds:[00413018h]
  004059CE: 33 C5              xor         eax,ebp
  004059D0: 89 45 FC           mov         dword ptr [ebp-4],eax
  004059D3: 53                 push        ebx
  004059D4: 56                 push        esi
  004059D5: 8B 75 08           mov         esi,dword ptr [ebp+8]
  004059D8: 57                 push        edi
  004059D9: 81 7E 04 E9 FD 00  cmp         dword ptr [esi+4],0FDE9h
            00
  004059E0: 0F 84 0C 01 00 00  je          00405AF2
  004059E6: 8D 85 E8 F8 FF FF  lea         eax,[ebp+FFFFF8E8h]
  004059EC: 50                 push        eax
  004059ED: FF 76 04           push        dword ptr [esi+4]
  004059F0: FF 15 B0 D0 40 00  call        dword ptr ds:[0040D0B0h]
  004059F6: 85 C0              test        eax,eax
  004059F8: 0F 84 F4 00 00 00  je          00405AF2
  004059FE: 33 DB              xor         ebx,ebx
  00405A00: BF 00 01 00 00     mov         edi,100h
  00405A05: 8B C3              mov         eax,ebx
  00405A07: 88 84 05 FC FE FF  mov         byte ptr [ebp+eax+FFFFFEFCh],al
            FF
  00405A0E: 40                 inc         eax
  00405A0F: 3B C7              cmp         eax,edi
  00405A11: 72 F4              jb          00405A07
  00405A13: 8A 85 EE F8 FF FF  mov         al,byte ptr [ebp+FFFFF8EEh]
  00405A19: 8D 8D EE F8 FF FF  lea         ecx,[ebp+FFFFF8EEh]
  00405A1F: C6 85 FC FE FF FF  mov         byte ptr [ebp+FFFFFEFCh],20h
            20
  00405A26: EB 1F              jmp         00405A47
  00405A28: 0F B6 51 01        movzx       edx,byte ptr [ecx+1]
  00405A2C: 0F B6 C0           movzx       eax,al
  00405A2F: EB 0D              jmp         00405A3E
  00405A31: 3B C7              cmp         eax,edi
  00405A33: 73 0D              jae         00405A42
  00405A35: C6 84 05 FC FE FF  mov         byte ptr [ebp+eax+FFFFFEFCh],20h
            FF 20
  00405A3D: 40                 inc         eax
  00405A3E: 3B C2              cmp         eax,edx
  00405A40: 76 EF              jbe         00405A31
  00405A42: 83 C1 02           add         ecx,2
  00405A45: 8A 01              mov         al,byte ptr [ecx]
  00405A47: 84 C0              test        al,al
  00405A49: 75 DD              jne         00405A28
  00405A4B: 53                 push        ebx
  00405A4C: FF 76 04           push        dword ptr [esi+4]
  00405A4F: 8D 85 FC F8 FF FF  lea         eax,[ebp+FFFFF8FCh]
  00405A55: 50                 push        eax
  00405A56: 57                 push        edi
  00405A57: 8D 85 FC FE FF FF  lea         eax,[ebp+FFFFFEFCh]
  00405A5D: 50                 push        eax
  00405A5E: 6A 01              push        1
  00405A60: 53                 push        ebx
  00405A61: E8 67 13 00 00     call        00406DCD
  00405A66: 53                 push        ebx
  00405A67: FF 76 04           push        dword ptr [esi+4]
  00405A6A: 8D 85 FC FD FF FF  lea         eax,[ebp+FFFFFDFCh]
  00405A70: 57                 push        edi
  00405A71: 50                 push        eax
  00405A72: 57                 push        edi
  00405A73: 8D 85 FC FE FF FF  lea         eax,[ebp+FFFFFEFCh]
  00405A79: 50                 push        eax
  00405A7A: 57                 push        edi
  00405A7B: FF B6 1C 02 00 00  push        dword ptr [esi+0000021Ch]
  00405A81: 53                 push        ebx
  00405A82: E8 97 33 00 00     call        00408E1E
  00405A87: 83 C4 40           add         esp,40h
  00405A8A: 8D 85 FC FC FF FF  lea         eax,[ebp+FFFFFCFCh]
  00405A90: 53                 push        ebx
  00405A91: FF 76 04           push        dword ptr [esi+4]
  00405A94: 57                 push        edi
  00405A95: 50                 push        eax
  00405A96: 57                 push        edi
  00405A97: 8D 85 FC FE FF FF  lea         eax,[ebp+FFFFFEFCh]
  00405A9D: 50                 push        eax
  00405A9E: 68 00 02 00 00     push        200h
  00405AA3: FF B6 1C 02 00 00  push        dword ptr [esi+0000021Ch]
  00405AA9: 53                 push        ebx
  00405AAA: E8 6F 33 00 00     call        00408E1E
  00405AAF: 83 C4 24           add         esp,24h
  00405AB2: 8B C3              mov         eax,ebx
  00405AB4: 0F B7 8C 45 FC F8  movzx       ecx,word ptr [ebp+eax*2+FFFFF8FCh]
            FF FF
  00405ABC: F6 C1 01           test        cl,1
  00405ABF: 74 0E              je          00405ACF
  00405AC1: 80 4C 06 19 10     or          byte ptr [esi+eax+19h],10h
  00405AC6: 8A 8C 05 FC FD FF  mov         cl,byte ptr [ebp+eax+FFFFFDFCh]
            FF
  00405ACD: EB 15              jmp         00405AE4
  00405ACF: F6 C1 02           test        cl,2
  00405AD2: 74 0E              je          00405AE2
  00405AD4: 80 4C 06 19 20     or          byte ptr [esi+eax+19h],20h
  00405AD9: 8A 8C 05 FC FC FF  mov         cl,byte ptr [ebp+eax+FFFFFCFCh]
            FF
  00405AE0: EB 02              jmp         00405AE4
  00405AE2: 8A CB              mov         cl,bl
  00405AE4: 88 8C 06 19 01 00  mov         byte ptr [esi+eax+00000119h],cl
            00
  00405AEB: 40                 inc         eax
  00405AEC: 3B C7              cmp         eax,edi
  00405AEE: 72 C4              jb          00405AB4
  00405AF0: EB 3E              jmp         00405B30
  00405AF2: 33 DB              xor         ebx,ebx
  00405AF4: BF 00 01 00 00     mov         edi,100h
  00405AF9: 8B CB              mov         ecx,ebx
  00405AFB: 8D 51 9F           lea         edx,[ecx-61h]
  00405AFE: 8D 42 20           lea         eax,[edx+20h]
  00405B01: 83 F8 19           cmp         eax,19h
  00405B04: 77 0A              ja          00405B10
  00405B06: 80 4C 0E 19 10     or          byte ptr [esi+ecx+19h],10h
  00405B0B: 8D 41 20           lea         eax,[ecx+20h]
  00405B0E: EB 14              jmp         00405B24
  00405B10: 83 FA 19           cmp         edx,19h
  00405B13: 77 0D              ja          00405B22
  00405B15: 8D 46 19           lea         eax,[esi+19h]
  00405B18: 03 C1              add         eax,ecx
  00405B1A: 80 08 20           or          byte ptr [eax],20h
  00405B1D: 8D 41 E0           lea         eax,[ecx-20h]
  00405B20: EB 02              jmp         00405B24
  00405B22: 8A C3              mov         al,bl
  00405B24: 88 84 0E 19 01 00  mov         byte ptr [esi+ecx+00000119h],al
            00
  00405B2B: 41                 inc         ecx
  00405B2C: 3B CF              cmp         ecx,edi
  00405B2E: 72 CB              jb          00405AFB
  00405B30: 8B 4D FC           mov         ecx,dword ptr [ebp-4]
  00405B33: 5F                 pop         edi
  00405B34: 5E                 pop         esi
  00405B35: 33 CD              xor         ecx,ebp
  00405B37: 5B                 pop         ebx
  00405B38: E8 EA BE FF FF     call        00401A27
  00405B3D: C9                 leave
  00405B3E: C3                 ret
  00405B3F: 8B FF              mov         edi,edi
  00405B41: 55                 push        ebp
  00405B42: 8B EC              mov         ebp,esp
  00405B44: 83 EC 14           sub         esp,14h
  00405B47: FF 75 14           push        dword ptr [ebp+14h]
  00405B4A: FF 75 10           push        dword ptr [ebp+10h]
  00405B4D: E8 06 01 00 00     call        00405C58
  00405B52: FF 75 08           push        dword ptr [ebp+8]
  00405B55: E8 8E FD FF FF     call        004058E8
  00405B5A: 8B 4D 10           mov         ecx,dword ptr [ebp+10h]
  00405B5D: 83 C4 0C           add         esp,0Ch
  00405B60: 89 45 F4           mov         dword ptr [ebp-0Ch],eax
  00405B63: 8B 49 48           mov         ecx,dword ptr [ecx+48h]
  00405B66: 3B 41 04           cmp         eax,dword ptr [ecx+4]
  00405B69: 75 04              jne         00405B6F
  00405B6B: 33 C0              xor         eax,eax
  00405B6D: C9                 leave
  00405B6E: C3                 ret
  00405B6F: 53                 push        ebx
  00405B70: 56                 push        esi
  00405B71: 57                 push        edi
  00405B72: 68 20 02 00 00     push        220h
  00405B77: E8 03 12 00 00     call        00406D7F
  00405B7C: 8B F8              mov         edi,eax
  00405B7E: 83 CB FF           or          ebx,0FFFFFFFFh
  00405B81: 59                 pop         ecx
  00405B82: 85 FF              test        edi,edi
  00405B84: 74 2E              je          00405BB4
  00405B86: 8B 75 10           mov         esi,dword ptr [ebp+10h]
  00405B89: B9 88 00 00 00     mov         ecx,88h
  00405B8E: 8B 76 48           mov         esi,dword ptr [esi+48h]
  00405B91: F3 A5              rep movs    dword ptr es:[edi],dword ptr [esi]
  00405B93: 8B F8              mov         edi,eax
  00405B95: 57                 push        edi
  00405B96: FF 75 F4           push        dword ptr [ebp-0Ch]
  00405B99: 83 27 00           and         dword ptr [edi],0
  00405B9C: E8 B2 01 00 00     call        00405D53
  00405BA1: 8B F0              mov         esi,eax
  00405BA3: 59                 pop         ecx
  00405BA4: 59                 pop         ecx
  00405BA5: 3B F3              cmp         esi,ebx
  00405BA7: 75 1B              jne         00405BC4
  00405BA9: E8 AD F1 FF FF     call        00404D5B
  00405BAE: C7 00 16 00 00 00  mov         dword ptr [eax],16h
  00405BB4: 8B F3              mov         esi,ebx
  00405BB6: 57                 push        edi
  00405BB7: E8 0F F2 FF FF     call        00404DCB
  00405BBC: 59                 pop         ecx
  00405BBD: 5F                 pop         edi
  00405BBE: 8B C6              mov         eax,esi
  00405BC0: 5E                 pop         esi
  00405BC1: 5B                 pop         ebx
  00405BC2: C9                 leave
  00405BC3: C3                 ret
  00405BC4: 80 7D 0C 00        cmp         byte ptr [ebp+0Ch],0
  00405BC8: 75 05              jne         00405BCF
  00405BCA: E8 92 E1 FF FF     call        00403D61
  00405BCF: 8B 45 10           mov         eax,dword ptr [ebp+10h]
  00405BD2: 8B 40 48           mov         eax,dword ptr [eax+48h]
  00405BD5: F0 0F C1 18        lock xadd   dword ptr [eax],ebx
  00405BD9: 4B                 dec         ebx
  00405BDA: 75 15              jne         00405BF1
  00405BDC: 8B 45 10           mov         eax,dword ptr [ebp+10h]
  00405BDF: 81 78 48 60 30 41  cmp         dword ptr [eax+48h],413060h
            00
  00405BE6: 74 09              je          00405BF1
  00405BE8: FF 70 48           push        dword ptr [eax+48h]
  00405BEB: E8 DB F1 FF FF     call        00404DCB
  00405BF0: 59                 pop         ecx
  00405BF1: C7 07 01 00 00 00  mov         dword ptr [edi],1
  00405BF7: 8B CF              mov         ecx,edi
  00405BF9: 8B 45 10           mov         eax,dword ptr [ebp+10h]
  00405BFC: 33 FF              xor         edi,edi
  00405BFE: 89 48 48           mov         dword ptr [eax+48h],ecx
  00405C01: 8B 45 10           mov         eax,dword ptr [ebp+10h]
  00405C04: F6 80 50 03 00 00  test        byte ptr [eax+00000350h],2
            02
  00405C0B: 75 A9              jne         00405BB6
  00405C0D: F6 05 A0 36 41 00  test        byte ptr ds:[004136A0h],1
            01
  00405C14: 75 A0              jne         00405BB6
  00405C16: 8D 45 10           lea         eax,[ebp+10h]
  00405C19: 89 45 EC           mov         dword ptr [ebp-14h],eax
  00405C1C: 8D 4D FF           lea         ecx,[ebp-1]
  00405C1F: 6A 05              push        5
  00405C21: 8D 45 14           lea         eax,[ebp+14h]
  00405C24: 89 45 F0           mov         dword ptr [ebp-10h],eax
  00405C27: 58                 pop         eax
  00405C28: 89 45 F4           mov         dword ptr [ebp-0Ch],eax
  00405C2B: 89 45 F8           mov         dword ptr [ebp-8],eax
  00405C2E: 8D 45 F4           lea         eax,[ebp-0Ch]
  00405C31: 50                 push        eax
  00405C32: 8D 45 EC           lea         eax,[ebp-14h]
  00405C35: 50                 push        eax
  00405C36: 8D 45 F8           lea         eax,[ebp-8]
  00405C39: 50                 push        eax
  00405C3A: E8 9B FB FF FF     call        004057DA
  00405C3F: 80 7D 0C 00        cmp         byte ptr [ebp+0Ch],0
  00405C43: 0F 84 6D FF FF FF  je          00405BB6
  00405C49: 8B 45 14           mov         eax,dword ptr [ebp+14h]
  00405C4C: 8B 00              mov         eax,dword ptr [eax]
  00405C4E: A3 3C 36 41 00     mov         dword ptr ds:[0041363Ch],eax
  00405C53: E9 5E FF FF FF     jmp         00405BB6
  00405C58: 6A 0C              push        0Ch
  00405C5A: 68 F8 20 41 00     push        4120F8h
  00405C5F: E8 8C BB FF FF     call        004017F0
  00405C64: 33 F6              xor         esi,esi
  00405C66: 89 75 E4           mov         dword ptr [ebp-1Ch],esi
  00405C69: 8B 7D 08           mov         edi,dword ptr [ebp+8]
  00405C6C: A1 A0 36 41 00     mov         eax,dword ptr ds:[004136A0h]
  00405C71: 85 87 50 03 00 00  test        dword ptr [edi+00000350h],eax
  00405C77: 74 0E              je          00405C87
  00405C79: 39 77 4C           cmp         dword ptr [edi+4Ch],esi
  00405C7C: 74 09              je          00405C87
  00405C7E: 8B 77 48           mov         esi,dword ptr [edi+48h]
  00405C81: 85 F6              test        esi,esi
  00405C83: 74 6D              je          00405CF2
  00405C85: EB 59              jmp         00405CE0
  00405C87: 6A 05              push        5
  00405C89: E8 35 09 00 00     call        004065C3
  00405C8E: 59                 pop         ecx
  00405C8F: 89 75 FC           mov         dword ptr [ebp-4],esi
  00405C92: 8B 77 48           mov         esi,dword ptr [edi+48h]
  00405C95: 89 75 E4           mov         dword ptr [ebp-1Ch],esi
  00405C98: 8B 5D 0C           mov         ebx,dword ptr [ebp+0Ch]
  00405C9B: 3B 33              cmp         esi,dword ptr [ebx]
  00405C9D: 74 27              je          00405CC6
  00405C9F: 85 F6              test        esi,esi
  00405CA1: 74 18              je          00405CBB
  00405CA3: 83 C8 FF           or          eax,0FFFFFFFFh
  00405CA6: F0 0F C1 06        lock xadd   dword ptr [esi],eax
  00405CAA: 75 0F              jne         00405CBB
  00405CAC: 81 FE 60 30 41 00  cmp         esi,413060h
  00405CB2: 74 07              je          00405CBB
  00405CB4: 56                 push        esi
  00405CB5: E8 11 F1 FF FF     call        00404DCB
  00405CBA: 59                 pop         ecx
  00405CBB: 8B 33              mov         esi,dword ptr [ebx]
  00405CBD: 89 77 48           mov         dword ptr [edi+48h],esi
  00405CC0: 89 75 E4           mov         dword ptr [ebp-1Ch],esi
  00405CC3: F0 FF 06           lock inc    dword ptr [esi]
  00405CC6: C7 45 FC FE FF FF  mov         dword ptr [ebp-4],0FFFFFFFEh
            FF
  00405CCD: E8 05 00 00 00     call        00405CD7
  00405CD2: EB AD              jmp         00405C81
  00405CD4: 8B 75 E4           mov         esi,dword ptr [ebp-1Ch]
  00405CD7: 6A 05              push        5
  00405CD9: E8 2D 09 00 00     call        0040660B
  00405CDE: 59                 pop         ecx
  00405CDF: C3                 ret
  00405CE0: 8B C6              mov         eax,esi
  00405CE2: 8B 4D F0           mov         ecx,dword ptr [ebp-10h]
  00405CE5: 64 89 0D 00 00 00  mov         dword ptr fs:[00000000h],ecx
            00
  00405CEC: 59                 pop         ecx
  00405CED: 5F                 pop         edi
  00405CEE: 5E                 pop         esi
  00405CEF: 5B                 pop         ebx
  00405CF0: C9                 leave
  00405CF1: C3                 ret
  00405CF2: E8 DF E6 FF FF     call        004043D6
  00405CF7: CC                 int         3
  00405CF8: 80 3D 14 3E 41 00  cmp         byte ptr ds:[00413E14h],0
            00
  00405CFF: 75 3C              jne         00405D3D
  00405D01: C7 05 0C 3E 41 00  mov         dword ptr ds:[00413E0Ch],413060h
            60 30 41 00
  00405D0B: C7 05 08 3E 41 00  mov         dword ptr ds:[00413E08h],413388h
            88 33 41 00
  00405D15: C7 05 04 3E 41 00  mov         dword ptr ds:[00413E04h],413280h
            80 32 41 00
  00405D1F: E8 39 EC FF FF     call        0040495D
  00405D24: 68 0C 3E 41 00     push        413E0Ch
  00405D29: 50                 push        eax
  00405D2A: 6A 01              push        1
  00405D2C: 6A FD              push        0FFFFFFFDh
  00405D2E: E8 0C FE FF FF     call        00405B3F
  00405D33: 83 C4 10           add         esp,10h
  00405D36: C6 05 14 3E 41 00  mov         byte ptr ds:[00413E14h],1
            01
  00405D3D: B0 01              mov         al,1
  00405D3F: C3                 ret
  00405D40: 68 0C 3E 41 00     push        413E0Ch
  00405D45: E8 56 EB FF FF     call        004048A0
  00405D4A: 50                 push        eax
  00405D4B: E8 08 FF FF FF     call        00405C58
  00405D50: 59                 pop         ecx
  00405D51: 59                 pop         ecx
  00405D52: C3                 ret
  00405D53: 8B FF              mov         edi,edi
  00405D55: 55                 push        ebp
  00405D56: 8B EC              mov         ebp,esp
  00405D58: 83 EC 20           sub         esp,20h
  00405D5B: A1 18 30 41 00     mov         eax,dword ptr ds:[00413018h]
  00405D60: 33 C5              xor         eax,ebp
  00405D62: 89 45 FC           mov         dword ptr [ebp-4],eax
  00405D65: 53                 push        ebx
  00405D66: 56                 push        esi
  00405D67: 8B 75 0C           mov         esi,dword ptr [ebp+0Ch]
  00405D6A: 57                 push        edi
  00405D6B: FF 75 08           push        dword ptr [ebp+8]
  00405D6E: E8 75 FB FF FF     call        004058E8
  00405D73: 8B D8              mov         ebx,eax
  00405D75: 59                 pop         ecx
  00405D76: 85 DB              test        ebx,ebx
  00405D78: 0F 84 B0 01 00 00  je          00405F2E
  00405D7E: 33 FF              xor         edi,edi
  00405D80: 8B CF              mov         ecx,edi
  00405D82: 8B C7              mov         eax,edi
  00405D84: 89 4D E4           mov         dword ptr [ebp-1Ch],ecx
  00405D87: 39 98 90 34 41 00  cmp         dword ptr [eax+00413490h],ebx
  00405D8D: 0F 84 F3 00 00 00  je          00405E86
  00405D93: 41                 inc         ecx
  00405D94: 83 C0 30           add         eax,30h
  00405D97: 89 4D E4           mov         dword ptr [ebp-1Ch],ecx
  00405D9A: 3D F0 00 00 00     cmp         eax,0F0h
  00405D9F: 72 E6              jb          00405D87
  00405DA1: 81 FB E8 FD 00 00  cmp         ebx,0FDE8h
  00405DA7: 0F 84 D1 00 00 00  je          00405E7E
  00405DAD: 0F B7 C3           movzx       eax,bx
  00405DB0: 50                 push        eax
  00405DB1: FF 15 A4 D0 40 00  call        dword ptr ds:[0040D0A4h]
  00405DB7: 85 C0              test        eax,eax
  00405DB9: 0F 84 BF 00 00 00  je          00405E7E
  00405DBF: B8 E9 FD 00 00     mov         eax,0FDE9h
  00405DC4: 3B D8              cmp         ebx,eax
  00405DC6: 75 26              jne         00405DEE
  00405DC8: 89 46 04           mov         dword ptr [esi+4],eax
  00405DCB: 89 BE 1C 02 00 00  mov         dword ptr [esi+0000021Ch],edi
  00405DD1: 89 7E 18           mov         dword ptr [esi+18h],edi
  00405DD4: 66 89 7E 1C        mov         word ptr [esi+1Ch],di
  00405DD8: 89 7E 08           mov         dword ptr [esi+8],edi
  00405DDB: 33 C0              xor         eax,eax
  00405DDD: 8D 7E 0C           lea         edi,[esi+0Ch]
  00405DE0: AB                 stos        dword ptr es:[edi]
  00405DE1: AB                 stos        dword ptr es:[edi]
  00405DE2: AB                 stos        dword ptr es:[edi]
  00405DE3: 56                 push        esi
  00405DE4: E8 D5 FB FF FF     call        004059BE
  00405DE9: E9 46 01 00 00     jmp         00405F34
  00405DEE: 8D 45 E8           lea         eax,[ebp-18h]
  00405DF1: 50                 push        eax
  00405DF2: 53                 push        ebx
  00405DF3: FF 15 B0 D0 40 00  call        dword ptr ds:[0040D0B0h]
  00405DF9: 85 C0              test        eax,eax
  00405DFB: 74 75              je          00405E72
  00405DFD: 68 01 01 00 00     push        101h
  00405E02: 8D 46 18           lea         eax,[esi+18h]
  00405E05: 57                 push        edi
  00405E06: 50                 push        eax
  00405E07: E8 44 C0 FF FF     call        00401E50
  00405E0C: 83 C4 0C           add         esp,0Ch
  00405E0F: 89 5E 04           mov         dword ptr [esi+4],ebx
  00405E12: 83 7D E8 02        cmp         dword ptr [ebp-18h],2
  00405E16: 89 BE 1C 02 00 00  mov         dword ptr [esi+0000021Ch],edi
  00405E1C: 75 BA              jne         00405DD8
  00405E1E: 80 7D EE 00        cmp         byte ptr [ebp-12h],0
  00405E22: 8D 45 EE           lea         eax,[ebp-12h]
  00405E25: 74 21              je          00405E48
  00405E27: 8A 48 01           mov         cl,byte ptr [eax+1]
  00405E2A: 84 C9              test        cl,cl
  00405E2C: 74 1A              je          00405E48
  00405E2E: 0F B6 D1           movzx       edx,cl
  00405E31: 0F B6 08           movzx       ecx,byte ptr [eax]
  00405E34: EB 06              jmp         00405E3C
  00405E36: 80 4C 0E 19 04     or          byte ptr [esi+ecx+19h],4
  00405E3B: 41                 inc         ecx
  00405E3C: 3B CA              cmp         ecx,edx
  00405E3E: 76 F6              jbe         00405E36
  00405E40: 83 C0 02           add         eax,2
  00405E43: 80 38 00           cmp         byte ptr [eax],0
  00405E46: 75 DF              jne         00405E27
  00405E48: 8D 46 1A           lea         eax,[esi+1Ah]
  00405E4B: B9 FE 00 00 00     mov         ecx,0FEh
  00405E50: 80 08 08           or          byte ptr [eax],8
  00405E53: 40                 inc         eax
  00405E54: 83 E9 01           sub         ecx,1
  00405E57: 75 F7              jne         00405E50
  00405E59: FF 76 04           push        dword ptr [esi+4]
  00405E5C: E8 49 FA FF FF     call        004058AA
  00405E61: 33 FF              xor         edi,edi
  00405E63: 89 86 1C 02 00 00  mov         dword ptr [esi+0000021Ch],eax
  00405E69: 83 C4 04           add         esp,4
  00405E6C: 47                 inc         edi
  00405E6D: E9 66 FF FF FF     jmp         00405DD8
  00405E72: 39 3D 10 3E 41 00  cmp         dword ptr ds:[00413E10h],edi
  00405E78: 0F 85 B0 00 00 00  jne         00405F2E
  00405E7E: 83 C8 FF           or          eax,0FFFFFFFFh
  00405E81: E9 B1 00 00 00     jmp         00405F37
  00405E86: 68 01 01 00 00     push        101h
  00405E8B: 8D 46 18           lea         eax,[esi+18h]
  00405E8E: 57                 push        edi
  00405E8F: 50                 push        eax
  00405E90: E8 BB BF FF FF     call        00401E50
  00405E95: 83 C4 0C           add         esp,0Ch
  00405E98: 6B 45 E4 30        imul        eax,dword ptr [ebp-1Ch],30h
  00405E9C: 89 45 E0           mov         dword ptr [ebp-20h],eax
  00405E9F: 8D 80 A0 34 41 00  lea         eax,[eax+004134A0h]
  00405EA5: 89 45 E4           mov         dword ptr [ebp-1Ch],eax
  00405EA8: 80 38 00           cmp         byte ptr [eax],0
  00405EAB: 8B C8              mov         ecx,eax
  00405EAD: 74 35              je          00405EE4
  00405EAF: 8A 41 01           mov         al,byte ptr [ecx+1]
  00405EB2: 84 C0              test        al,al
  00405EB4: 74 2B              je          00405EE1
  00405EB6: 0F B6 11           movzx       edx,byte ptr [ecx]
  00405EB9: 0F B6 C0           movzx       eax,al
  00405EBC: EB 17              jmp         00405ED5
  00405EBE: 81 FA 00 01 00 00  cmp         edx,100h
  00405EC4: 73 13              jae         00405ED9
  00405EC6: 8A 87 88 34 41 00  mov         al,byte ptr [edi+00413488h]
  00405ECC: 08 44 16 19        or          byte ptr [esi+edx+19h],al
  00405ED0: 42                 inc         edx
  00405ED1: 0F B6 41 01        movzx       eax,byte ptr [ecx+1]
  00405ED5: 3B D0              cmp         edx,eax
  00405ED7: 76 E5              jbe         00405EBE
  00405ED9: 83 C1 02           add         ecx,2
  00405EDC: 80 39 00           cmp         byte ptr [ecx],0
  00405EDF: 75 CE              jne         00405EAF
  00405EE1: 8B 45 E4           mov         eax,dword ptr [ebp-1Ch]
  00405EE4: 47                 inc         edi
  00405EE5: 83 C0 08           add         eax,8
  00405EE8: 89 45 E4           mov         dword ptr [ebp-1Ch],eax
  00405EEB: 83 FF 04           cmp         edi,4
  00405EEE: 72 B8              jb          00405EA8
  00405EF0: 53                 push        ebx
  00405EF1: 89 5E 04           mov         dword ptr [esi+4],ebx
  00405EF4: C7 46 08 01 00 00  mov         dword ptr [esi+8],1
            00
  00405EFB: E8 AA F9 FF FF     call        004058AA
  00405F00: 83 C4 04           add         esp,4
  00405F03: 89 86 1C 02 00 00  mov         dword ptr [esi+0000021Ch],eax
  00405F09: 8B 45 E0           mov         eax,dword ptr [ebp-20h]
  00405F0C: 8D 4E 0C           lea         ecx,[esi+0Ch]
  00405F0F: 6A 06              push        6
  00405F11: 8D 90 94 34 41 00  lea         edx,[eax+00413494h]
  00405F17: 5F                 pop         edi
  00405F18: 66 8B 02           mov         ax,word ptr [edx]
  00405F1B: 8D 52 02           lea         edx,[edx+2]
  00405F1E: 66 89 01           mov         word ptr [ecx],ax
  00405F21: 8D 49 02           lea         ecx,[ecx+2]
  00405F24: 83 EF 01           sub         edi,1
  00405F27: 75 EF              jne         00405F18
  00405F29: E9 B5 FE FF FF     jmp         00405DE3
  00405F2E: 56                 push        esi
  00405F2F: E8 25 FA FF FF     call        00405959
  00405F34: 33 C0              xor         eax,eax
  00405F36: 59                 pop         ecx
  00405F37: 8B 4D FC           mov         ecx,dword ptr [ebp-4]
  00405F3A: 5F                 pop         edi
  00405F3B: 5E                 pop         esi
  00405F3C: 33 CD              xor         ecx,ebp
  00405F3E: 5B                 pop         ebx
  00405F3F: E8 E3 BA FF FF     call        00401A27
  00405F44: C9                 leave
  00405F45: C3                 ret
  00405F46: 8B FF              mov         edi,edi
  00405F48: 55                 push        ebp
  00405F49: 8B EC              mov         ebp,esp
  00405F4B: 56                 push        esi
  00405F4C: 8B 75 14           mov         esi,dword ptr [ebp+14h]
  00405F4F: 85 F6              test        esi,esi
  00405F51: 75 04              jne         00405F57
  00405F53: 33 C0              xor         eax,eax
  00405F55: EB 6D              jmp         00405FC4
  00405F57: 8B 45 08           mov         eax,dword ptr [ebp+8]
  00405F5A: 85 C0              test        eax,eax
  00405F5C: 75 13              jne         00405F71
  00405F5E: E8 F8 ED FF FF     call        00404D5B
  00405F63: 6A 16              push        16h
  00405F65: 5E                 pop         esi
  00405F66: 89 30              mov         dword ptr [eax],esi
  00405F68: E8 31 ED FF FF     call        00404C9E
  00405F6D: 8B C6              mov         eax,esi
  00405F6F: EB 53              jmp         00405FC4
  00405F71: 57                 push        edi
  00405F72: 8B 7D 10           mov         edi,dword ptr [ebp+10h]
  00405F75: 85 FF              test        edi,edi
  00405F77: 74 14              je          00405F8D
  00405F79: 39 75 0C           cmp         dword ptr [ebp+0Ch],esi
  00405F7C: 72 0F              jb          00405F8D
  00405F7E: 56                 push        esi
  00405F7F: 57                 push        edi
  00405F80: 50                 push        eax
  00405F81: E8 CA C6 FF FF     call        00402650
  00405F86: 83 C4 0C           add         esp,0Ch
  00405F89: 33 C0              xor         eax,eax
  00405F8B: EB 36              jmp         00405FC3
  00405F8D: FF 75 0C           push        dword ptr [ebp+0Ch]
  00405F90: 6A 00              push        0
  00405F92: 50                 push        eax
  00405F93: E8 B8 BE FF FF     call        00401E50
  00405F98: 83 C4 0C           add         esp,0Ch
  00405F9B: 85 FF              test        edi,edi
  00405F9D: 75 09              jne         00405FA8
  00405F9F: E8 B7 ED FF FF     call        00404D5B
  00405FA4: 6A 16              push        16h
  00405FA6: EB 0C              jmp         00405FB4
  00405FA8: 39 75 0C           cmp         dword ptr [ebp+0Ch],esi
  00405FAB: 73 13              jae         00405FC0
  00405FAD: E8 A9 ED FF FF     call        00404D5B
  00405FB2: 6A 22              push        22h
  00405FB4: 5E                 pop         esi
  00405FB5: 89 30              mov         dword ptr [eax],esi
  00405FB7: E8 E2 EC FF FF     call        00404C9E
  00405FBC: 8B C6              mov         eax,esi
  00405FBE: EB 03              jmp         00405FC3
  00405FC0: 6A 16              push        16h
  00405FC2: 58                 pop         eax
  00405FC3: 5F                 pop         edi
  00405FC4: 5E                 pop         esi
  00405FC5: 5D                 pop         ebp
  00405FC6: C3                 ret
  00405FC7: 8B FF              mov         edi,edi
  00405FC9: 55                 push        ebp
  00405FCA: 8B EC              mov         ebp,esp
  00405FCC: 83 EC 10           sub         esp,10h
  00405FCF: 56                 push        esi
  00405FD0: FF 75 08           push        dword ptr [ebp+8]
  00405FD3: 8D 4D F0           lea         ecx,[ebp-10h]
  00405FD6: E8 4A E4 FF FF     call        00404425
  00405FDB: 0F B6 75 0C        movzx       esi,byte ptr [ebp+0Ch]
  00405FDF: 8B 45 F8           mov         eax,dword ptr [ebp-8]
  00405FE2: 8A 4D 14           mov         cl,byte ptr [ebp+14h]
  00405FE5: 84 4C 30 19        test        byte ptr [eax+esi+19h],cl
  00405FE9: 75 1B              jne         00406006
  00405FEB: 33 D2              xor         edx,edx
  00405FED: 39 55 10           cmp         dword ptr [ebp+10h],edx
  00405FF0: 74 0E              je          00406000
  00405FF2: 8B 45 F4           mov         eax,dword ptr [ebp-0Ch]
  00405FF5: 8B 00              mov         eax,dword ptr [eax]
  00405FF7: 0F B7 04 70        movzx       eax,word ptr [eax+esi*2]
  00405FFB: 23 45 10           and         eax,dword ptr [ebp+10h]
  00405FFE: EB 02              jmp         00406002
  00406000: 8B C2              mov         eax,edx
  00406002: 85 C0              test        eax,eax
  00406004: 74 03              je          00406009
  00406006: 33 D2              xor         edx,edx
  00406008: 42                 inc         edx
  00406009: 80 7D FC 00        cmp         byte ptr [ebp-4],0
  0040600D: 5E                 pop         esi
  0040600E: 74 0A              je          0040601A
  00406010: 8B 4D F0           mov         ecx,dword ptr [ebp-10h]
  00406013: 83 A1 50 03 00 00  and         dword ptr [ecx+00000350h],0FFFFFFFDh
            FD
  0040601A: 8B C2              mov         eax,edx
  0040601C: C9                 leave
  0040601D: C3                 ret
  0040601E: 8B FF              mov         edi,edi
  00406020: 55                 push        ebp
  00406021: 8B EC              mov         ebp,esp
  00406023: 6A 04              push        4
  00406025: 6A 00              push        0
  00406027: FF 75 08           push        dword ptr [ebp+8]
  0040602A: 6A 00              push        0
  0040602C: E8 96 FF FF FF     call        00405FC7
  00406031: 83 C4 10           add         esp,10h
  00406034: 5D                 pop         ebp
  00406035: C3                 ret
  00406036: 8B FF              mov         edi,edi
  00406038: 55                 push        ebp
  00406039: 8B EC              mov         ebp,esp
  0040603B: 8B 45 08           mov         eax,dword ptr [ebp+8]
  0040603E: B9 35 C4 00 00     mov         ecx,0C435h
  00406043: 3B C1              cmp         eax,ecx
  00406045: 77 28              ja          0040606F
  00406047: 74 65              je          004060AE
  00406049: 83 F8 2A           cmp         eax,2Ah
  0040604C: 74 60              je          004060AE
  0040604E: 3D 2B C4 00 00     cmp         eax,0C42Bh
  00406053: 76 15              jbe         0040606A
  00406055: 3D 2E C4 00 00     cmp         eax,0C42Eh
  0040605A: 76 52              jbe         004060AE
  0040605C: 3D 31 C4 00 00     cmp         eax,0C431h
  00406061: 74 4B              je          004060AE
  00406063: 3D 33 C4 00 00     cmp         eax,0C433h
  00406068: 74 44              je          004060AE
  0040606A: 8B 4D 0C           mov         ecx,dword ptr [ebp+0Ch]
  0040606D: EB 29              jmp         00406098
  0040606F: 3D 98 D6 00 00     cmp         eax,0D698h
  00406074: 74 1C              je          00406092
  00406076: 3D A9 DE 00 00     cmp         eax,0DEA9h
  0040607B: 76 ED              jbe         0040606A
  0040607D: 3D B3 DE 00 00     cmp         eax,0DEB3h
  00406082: 76 2A              jbe         004060AE
  00406084: 3D E8 FD 00 00     cmp         eax,0FDE8h
  00406089: 74 23              je          004060AE
  0040608B: 3D E9 FD 00 00     cmp         eax,0FDE9h
  00406090: 75 D8              jne         0040606A
  00406092: 8B 4D 0C           mov         ecx,dword ptr [ebp+0Ch]
  00406095: 83 E1 08           and         ecx,8
  00406098: FF 75 1C           push        dword ptr [ebp+1Ch]
  0040609B: FF 75 18           push        dword ptr [ebp+18h]
  0040609E: FF 75 14           push        dword ptr [ebp+14h]
  004060A1: FF 75 10           push        dword ptr [ebp+10h]
  004060A4: 51                 push        ecx
  004060A5: 50                 push        eax
  004060A6: FF 15 B4 D0 40 00  call        dword ptr ds:[0040D0B4h]
  004060AC: 5D                 pop         ebp
  004060AD: C3                 ret
  004060AE: 33 C9              xor         ecx,ecx
  004060B0: EB E6              jmp         00406098
  004060B2: 8B FF              mov         edi,edi
  004060B4: 55                 push        ebp
  004060B5: 8B EC              mov         ebp,esp
  004060B7: 8B 4D 08           mov         ecx,dword ptr [ebp+8]
  004060BA: 33 D2              xor         edx,edx
  004060BC: 53                 push        ebx
  004060BD: 56                 push        esi
  004060BE: BE E9 FD 00 00     mov         esi,0FDE9h
  004060C3: 57                 push        edi
  004060C4: 8D 7E FF           lea         edi,[esi-1]
  004060C7: 3B CF              cmp         ecx,edi
  004060C9: 74 06              je          004060D1
  004060CB: 8A DA              mov         bl,dl
  004060CD: 3B CE              cmp         ecx,esi
  004060CF: 75 02              jne         004060D3
  004060D1: B3 01              mov         bl,1
  004060D3: B8 35 C4 00 00     mov         eax,0C435h
  004060D8: 3B C8              cmp         ecx,eax
  004060DA: 77 27              ja          00406103
  004060DC: 74 4E              je          0040612C
  004060DE: 83 F9 2A           cmp         ecx,2Ah
  004060E1: 74 49              je          0040612C
  004060E3: 81 F9 2B C4 00 00  cmp         ecx,0C42Bh
  004060E9: 76 38              jbe         00406123
  004060EB: 81 F9 2E C4 00 00  cmp         ecx,0C42Eh
  004060F1: 76 39              jbe         0040612C
  004060F3: 81 F9 31 C4 00 00  cmp         ecx,0C431h
  004060F9: 74 31              je          0040612C
  004060FB: 81 F9 33 C4 00 00  cmp         ecx,0C433h
  00406101: EB 1E              jmp         00406121
  00406103: 81 F9 98 D6 00 00  cmp         ecx,0D698h
  00406109: 74 21              je          0040612C
  0040610B: 81 F9 A9 DE 00 00  cmp         ecx,0DEA9h
  00406111: 76 10              jbe         00406123
  00406113: 81 F9 B3 DE 00 00  cmp         ecx,0DEB3h
  00406119: 76 11              jbe         0040612C
  0040611B: 3B CF              cmp         ecx,edi
  0040611D: 74 0D              je          0040612C
  0040611F: 3B CE              cmp         ecx,esi
  00406121: 74 09              je          0040612C
  00406123: 8B 55 0C           mov         edx,dword ptr [ebp+0Ch]
  00406126: 81 E2 7F FF FF FF  and         edx,0FFFFFF7Fh
  0040612C: 0F B6 C3           movzx       eax,bl
  0040612F: F7 D8              neg         eax
  00406131: 1B C0              sbb         eax,eax
  00406133: F7 D0              not         eax
  00406135: 23 45 24           and         eax,dword ptr [ebp+24h]
  00406138: 50                 push        eax
  00406139: 0F B6 C3           movzx       eax,bl
  0040613C: F7 D8              neg         eax
  0040613E: 1B C0              sbb         eax,eax
  00406140: F7 D0              not         eax
  00406142: 23 45 20           and         eax,dword ptr [ebp+20h]
  00406145: 50                 push        eax
  00406146: FF 75 1C           push        dword ptr [ebp+1Ch]
  00406149: FF 75 18           push        dword ptr [ebp+18h]
  0040614C: FF 75 14           push        dword ptr [ebp+14h]
  0040614F: FF 75 10           push        dword ptr [ebp+10h]
  00406152: 52                 push        edx
  00406153: 51                 push        ecx
  00406154: FF 15 B8 D0 40 00  call        dword ptr ds:[0040D0B8h]
  0040615A: 5F                 pop         edi
  0040615B: 5E                 pop         esi
  0040615C: 5B                 pop         ebx
  0040615D: 5D                 pop         ebp
  0040615E: C3                 ret
  0040615F: 8B FF              mov         edi,edi
  00406161: 55                 push        ebp
  00406162: 8B EC              mov         ebp,esp
  00406164: 8B 55 08           mov         edx,dword ptr [ebp+8]
  00406167: 57                 push        edi
  00406168: 33 FF              xor         edi,edi
  0040616A: 66 39 3A           cmp         word ptr [edx],di
  0040616D: 74 21              je          00406190
  0040616F: 56                 push        esi
  00406170: 8B CA              mov         ecx,edx
  00406172: 8D 71 02           lea         esi,[ecx+2]
  00406175: 66 8B 01           mov         ax,word ptr [ecx]
  00406178: 83 C1 02           add         ecx,2
  0040617B: 66 3B C7           cmp         ax,di
  0040617E: 75 F5              jne         00406175
  00406180: 2B CE              sub         ecx,esi
  00406182: D1 F9              sar         ecx,1
  00406184: 8D 14 4A           lea         edx,[edx+ecx*2]
  00406187: 83 C2 02           add         edx,2
  0040618A: 66 39 3A           cmp         word ptr [edx],di
  0040618D: 75 E1              jne         00406170
  0040618F: 5E                 pop         esi
  00406190: 8D 42 02           lea         eax,[edx+2]
  00406193: 5F                 pop         edi
  00406194: 5D                 pop         ebp
  00406195: C3                 ret
  00406196: 8B FF              mov         edi,edi
  00406198: 55                 push        ebp
  00406199: 8B EC              mov         ebp,esp
  0040619B: 51                 push        ecx
  0040619C: 53                 push        ebx
  0040619D: 56                 push        esi
  0040619E: 57                 push        edi
  0040619F: FF 15 BC D0 40 00  call        dword ptr ds:[0040D0BCh]
  004061A5: 8B F0              mov         esi,eax
  004061A7: 33 FF              xor         edi,edi
  004061A9: 85 F6              test        esi,esi
  004061AB: 74 59              je          00406206
  004061AD: 56                 push        esi
  004061AE: E8 AC FF FF FF     call        0040615F
  004061B3: 57                 push        edi
  004061B4: 57                 push        edi
  004061B5: 57                 push        edi
  004061B6: 8B D8              mov         ebx,eax
  004061B8: 57                 push        edi
  004061B9: 2B DE              sub         ebx,esi
  004061BB: D1 FB              sar         ebx,1
  004061BD: 53                 push        ebx
  004061BE: 56                 push        esi
  004061BF: 57                 push        edi
  004061C0: 57                 push        edi
  004061C1: E8 EC FE FF FF     call        004060B2
  004061C6: 83 C4 24           add         esp,24h
  004061C9: 89 45 FC           mov         dword ptr [ebp-4],eax
  004061CC: 85 C0              test        eax,eax
  004061CE: 74 36              je          00406206
  004061D0: 50                 push        eax
  004061D1: E8 A9 0B 00 00     call        00406D7F
  004061D6: 8B F8              mov         edi,eax
  004061D8: 59                 pop         ecx
  004061D9: 85 FF              test        edi,edi
  004061DB: 74 1E              je          004061FB
  004061DD: 33 C0              xor         eax,eax
  004061DF: 50                 push        eax
  004061E0: 50                 push        eax
  004061E1: FF 75 FC           push        dword ptr [ebp-4]
  004061E4: 57                 push        edi
  004061E5: 53                 push        ebx
  004061E6: 56                 push        esi
  004061E7: 50                 push        eax
  004061E8: 50                 push        eax
  004061E9: E8 C4 FE FF FF     call        004060B2
  004061EE: 83 C4 20           add         esp,20h
  004061F1: 85 C0              test        eax,eax
  004061F3: 74 06              je          004061FB
  004061F5: 8B DF              mov         ebx,edi
  004061F7: 33 FF              xor         edi,edi
  004061F9: EB 02              jmp         004061FD
  004061FB: 33 DB              xor         ebx,ebx
  004061FD: 57                 push        edi
  004061FE: E8 C8 EB FF FF     call        00404DCB
  00406203: 59                 pop         ecx
  00406204: EB 02              jmp         00406208
  00406206: 8B DF              mov         ebx,edi
  00406208: 85 F6              test        esi,esi
  0040620A: 74 07              je          00406213
  0040620C: 56                 push        esi
  0040620D: FF 15 C0 D0 40 00  call        dword ptr ds:[0040D0C0h]
  00406213: 5F                 pop         edi
  00406214: 5E                 pop         esi
  00406215: 8B C3              mov         eax,ebx
  00406217: 5B                 pop         ebx
  00406218: C9                 leave
  00406219: C3                 ret
  0040621A: 8B FF              mov         edi,edi
  0040621C: 55                 push        ebp
  0040621D: 8B EC              mov         ebp,esp
  0040621F: 83 EC 10           sub         esp,10h
  00406222: 56                 push        esi
  00406223: 8B 75 08           mov         esi,dword ptr [ebp+8]
  00406226: 85 F6              test        esi,esi
  00406228: 75 13              jne         0040623D
  0040622A: E8 2C EB FF FF     call        00404D5B
  0040622F: C7 00 16 00 00 00  mov         dword ptr [eax],16h
  00406235: 83 C8 FF           or          eax,0FFFFFFFFh
  00406238: E9 0D 02 00 00     jmp         0040644A
  0040623D: 53                 push        ebx
  0040623E: 57                 push        edi
  0040623F: 6A 3D              push        3Dh
  00406241: 56                 push        esi
  00406242: 8B FE              mov         edi,esi
  00406244: E8 F7 68 00 00     call        0040CB40
  00406249: 89 45 F0           mov         dword ptr [ebp-10h],eax
  0040624C: 59                 pop         ecx
  0040624D: 59                 pop         ecx
  0040624E: 85 C0              test        eax,eax
  00406250: 0F 84 DB 01 00 00  je          00406431
  00406256: 3B C6              cmp         eax,esi
  00406258: 0F 84 D3 01 00 00  je          00406431
  0040625E: 8A 40 01           mov         al,byte ptr [eax+1]
  00406261: 88 45 FF           mov         byte ptr [ebp-1],al
  00406264: E8 9F 02 00 00     call        00406508
  00406269: 33 DB              xor         ebx,ebx
  0040626B: 39 1D A8 3D 41 00  cmp         dword ptr ds:[00413DA8h],ebx
  00406271: 75 7B              jne         004062EE
  00406273: 39 5D 0C           cmp         dword ptr [ebp+0Ch],ebx
  00406276: 74 1C              je          00406294
  00406278: 39 1D AC 3D 41 00  cmp         dword ptr ds:[00413DACh],ebx
  0040627E: 74 14              je          00406294
  00406280: E8 70 D6 FF FF     call        004038F5
  00406285: 85 C0              test        eax,eax
  00406287: 0F 84 A4 01 00 00  je          00406431
  0040628D: E8 76 02 00 00     call        00406508
  00406292: EB 5A              jmp         004062EE
  00406294: 38 5D FF           cmp         byte ptr [ebp-1],bl
  00406297: 75 07              jne         004062A0
  00406299: 33 DB              xor         ebx,ebx
  0040629B: E9 9F 01 00 00     jmp         0040643F
  004062A0: 6A 04              push        4
  004062A2: 6A 01              push        1
  004062A4: E8 C5 EA FF FF     call        00404D6E
  004062A9: 53                 push        ebx
  004062AA: A3 A8 3D 41 00     mov         dword ptr ds:[00413DA8h],eax
  004062AF: E8 17 EB FF FF     call        00404DCB
  004062B4: 83 C4 0C           add         esp,0Ch
  004062B7: 39 1D A8 3D 41 00  cmp         dword ptr ds:[00413DA8h],ebx
  004062BD: 0F 84 79 01 00 00  je          0040643C
  004062C3: 39 1D AC 3D 41 00  cmp         dword ptr ds:[00413DACh],ebx
  004062C9: 75 23              jne         004062EE
  004062CB: 6A 04              push        4
  004062CD: 6A 01              push        1
  004062CF: E8 9A EA FF FF     call        00404D6E
  004062D4: 53                 push        ebx
  004062D5: A3 AC 3D 41 00     mov         dword ptr ds:[00413DACh],eax
  004062DA: E8 EC EA FF FF     call        00404DCB
  004062DF: 83 C4 0C           add         esp,0Ch
  004062E2: 39 1D AC 3D 41 00  cmp         dword ptr ds:[00413DACh],ebx
  004062E8: 0F 84 4E 01 00 00  je          0040643C
  004062EE: A1 A8 3D 41 00     mov         eax,dword ptr ds:[00413DA8h]
  004062F3: 89 45 F8           mov         dword ptr [ebp-8],eax
  004062F6: 85 C0              test        eax,eax
  004062F8: 0F 84 3E 01 00 00  je          0040643C
  004062FE: 8B 45 F0           mov         eax,dword ptr [ebp-10h]
  00406301: 2B C6              sub         eax,esi
  00406303: 50                 push        eax
  00406304: 56                 push        esi
  00406305: E8 18 02 00 00     call        00406522
  0040630A: 89 45 F4           mov         dword ptr [ebp-0Ch],eax
  0040630D: 59                 pop         ecx
  0040630E: 59                 pop         ecx
  0040630F: 8B 4D F8           mov         ecx,dword ptr [ebp-8]
  00406312: 85 C0              test        eax,eax
  00406314: 78 4F              js          00406365
  00406316: 39 19              cmp         dword ptr [ecx],ebx
  00406318: 74 4B              je          00406365
  0040631A: FF 34 81           push        dword ptr [ecx+eax*4]
  0040631D: E8 A9 EA FF FF     call        00404DCB
  00406322: 59                 pop         ecx
  00406323: 8B 4D F4           mov         ecx,dword ptr [ebp-0Ch]
  00406326: 38 5D FF           cmp         byte ptr [ebp-1],bl
  00406329: 75 30              jne         0040635B
  0040632B: 8B 55 F8           mov         edx,dword ptr [ebp-8]
  0040632E: EB 08              jmp         00406338
  00406330: 8B 44 8A 04        mov         eax,dword ptr [edx+ecx*4+4]
  00406334: 89 04 8A           mov         dword ptr [edx+ecx*4],eax
  00406337: 41                 inc         ecx
  00406338: 39 1C 8A           cmp         dword ptr [edx+ecx*4],ebx
  0040633B: 75 F3              jne         00406330
  0040633D: 6A 04              push        4
  0040633F: 51                 push        ecx
  00406340: 52                 push        edx
  00406341: E8 EB 13 00 00     call        00407731
  00406346: 53                 push        ebx
  00406347: 89 45 F4           mov         dword ptr [ebp-0Ch],eax
  0040634A: E8 7C EA FF FF     call        00404DCB
  0040634F: 8B 45 F4           mov         eax,dword ptr [ebp-0Ch]
  00406352: 83 C4 10           add         esp,10h
  00406355: 85 C0              test        eax,eax
  00406357: 74 62              je          004063BB
  00406359: EB 5B              jmp         004063B6
  0040635B: 8B 45 F8           mov         eax,dword ptr [ebp-8]
  0040635E: 8B FB              mov         edi,ebx
  00406360: 89 34 88           mov         dword ptr [eax+ecx*4],esi
  00406363: EB 56              jmp         004063BB
  00406365: 38 5D FF           cmp         byte ptr [ebp-1],bl
  00406368: 0F 84 D1 00 00 00  je          0040643F
  0040636E: F7 D8              neg         eax
  00406370: 89 45 F4           mov         dword ptr [ebp-0Ch],eax
  00406373: 8D 50 02           lea         edx,[eax+2]
  00406376: 3B D0              cmp         edx,eax
  00406378: 0F 82 BE 00 00 00  jb          0040643C
  0040637E: 81 FA FF FF FF 3F  cmp         edx,3FFFFFFFh
  00406384: 0F 83 B2 00 00 00  jae         0040643C
  0040638A: 6A 04              push        4
  0040638C: 52                 push        edx
  0040638D: 51                 push        ecx
  0040638E: E8 9E 13 00 00     call        00407731
  00406393: 53                 push        ebx
  00406394: 89 45 F8           mov         dword ptr [ebp-8],eax
  00406397: E8 2F EA FF FF     call        00404DCB
  0040639C: 8B 45 F8           mov         eax,dword ptr [ebp-8]
  0040639F: 83 C4 10           add         esp,10h
  004063A2: 85 C0              test        eax,eax
  004063A4: 0F 84 92 00 00 00  je          0040643C
  004063AA: 8B 4D F4           mov         ecx,dword ptr [ebp-0Ch]
  004063AD: 8B FB              mov         edi,ebx
  004063AF: 89 34 88           mov         dword ptr [eax+ecx*4],esi
  004063B2: 89 5C 88 04        mov         dword ptr [eax+ecx*4+4],ebx
  004063B6: A3 A8 3D 41 00     mov         dword ptr ds:[00413DA8h],eax
  004063BB: 39 5D 0C           cmp         dword ptr [ebp+0Ch],ebx
  004063BE: 74 7F              je          0040643F
  004063C0: 8D 4E 01           lea         ecx,[esi+1]
  004063C3: 8A 06              mov         al,byte ptr [esi]
  004063C5: 46                 inc         esi
  004063C6: 84 C0              test        al,al
  004063C8: 75 F9              jne         004063C3
  004063CA: 2B F1              sub         esi,ecx
  004063CC: 6A 01              push        1
  004063CE: 8D 46 02           lea         eax,[esi+2]
  004063D1: 50                 push        eax
  004063D2: 89 45 F4           mov         dword ptr [ebp-0Ch],eax
  004063D5: E8 94 E9 FF FF     call        00404D6E
  004063DA: 8B F0              mov         esi,eax
  004063DC: 59                 pop         ecx
  004063DD: 59                 pop         ecx
  004063DE: 85 F6              test        esi,esi
  004063E0: 74 46              je          00406428
  004063E2: FF 75 08           push        dword ptr [ebp+8]
  004063E5: FF 75 F4           push        dword ptr [ebp-0Ch]
  004063E8: 56                 push        esi
  004063E9: E8 8E DF FF FF     call        0040437C
  004063EE: 83 C4 0C           add         esp,0Ch
  004063F1: 85 C0              test        eax,eax
  004063F3: 75 58              jne         0040644D
  004063F5: 8B 4D F0           mov         ecx,dword ptr [ebp-10h]
  004063F8: 8B C6              mov         eax,esi
  004063FA: 2B 45 08           sub         eax,dword ptr [ebp+8]
  004063FD: 41                 inc         ecx
  004063FE: 03 C8              add         ecx,eax
  00406400: 0F BE 45 FF        movsx       eax,byte ptr [ebp-1]
  00406404: F7 D8              neg         eax
  00406406: 1B C0              sbb         eax,eax
  00406408: 23 C1              and         eax,ecx
  0040640A: 88 59 FF           mov         byte ptr [ecx-1],bl
  0040640D: 50                 push        eax
  0040640E: 56                 push        esi
  0040640F: E8 53 2B 00 00     call        00408F67
  00406414: 59                 pop         ecx
  00406415: 59                 pop         ecx
  00406416: 85 C0              test        eax,eax
  00406418: 75 0E              jne         00406428
  0040641A: E8 3C E9 FF FF     call        00404D5B
  0040641F: 83 CB FF           or          ebx,0FFFFFFFFh
  00406422: C7 00 2A 00 00 00  mov         dword ptr [eax],2Ah
  00406428: 56                 push        esi
  00406429: E8 9D E9 FF FF     call        00404DCB
  0040642E: 59                 pop         ecx
  0040642F: EB 0E              jmp         0040643F
  00406431: E8 25 E9 FF FF     call        00404D5B
  00406436: C7 00 16 00 00 00  mov         dword ptr [eax],16h
  0040643C: 83 CB FF           or          ebx,0FFFFFFFFh
  0040643F: 57                 push        edi
  00406440: E8 86 E9 FF FF     call        00404DCB
  00406445: 59                 pop         ecx
  00406446: 5F                 pop         edi
  00406447: 8B C3              mov         eax,ebx
  00406449: 5B                 pop         ebx
  0040644A: 5E                 pop         esi
  0040644B: C9                 leave
  0040644C: C3                 ret
  0040644D: 53                 push        ebx
  0040644E: 53                 push        ebx
  0040644F: 53                 push        ebx
  00406450: 53                 push        ebx
  00406451: 53                 push        ebx
  00406452: E8 57 E8 FF FF     call        00404CAE
  00406457: CC                 int         3
  00406458: 8B FF              mov         edi,edi
  0040645A: 55                 push        ebp
  0040645B: 8B EC              mov         ebp,esp
  0040645D: 51                 push        ecx
  0040645E: 57                 push        edi
  0040645F: 8B 7D 08           mov         edi,dword ptr [ebp+8]
  00406462: 85 FF              test        edi,edi
  00406464: 75 05              jne         0040646B
  00406466: 33 C0              xor         eax,eax
  00406468: 5F                 pop         edi
  00406469: C9                 leave
  0040646A: C3                 ret
  0040646B: 33 C9              xor         ecx,ecx
  0040646D: 8B C7              mov         eax,edi
  0040646F: 39 0F              cmp         dword ptr [edi],ecx
  00406471: 74 09              je          0040647C
  00406473: 8D 40 04           lea         eax,[eax+4]
  00406476: 41                 inc         ecx
  00406477: 83 38 00           cmp         dword ptr [eax],0
  0040647A: 75 F7              jne         00406473
  0040647C: 56                 push        esi
  0040647D: 8D 41 01           lea         eax,[ecx+1]
  00406480: 6A 04              push        4
  00406482: 50                 push        eax
  00406483: E8 E6 E8 FF FF     call        00404D6E
  00406488: 8B F0              mov         esi,eax
  0040648A: 59                 pop         ecx
  0040648B: 59                 pop         ecx
  0040648C: 85 F6              test        esi,esi
  0040648E: 74 66              je          004064F6
  00406490: 8B 0F              mov         ecx,dword ptr [edi]
  00406492: 85 C9              test        ecx,ecx
  00406494: 74 50              je          004064E6
  00406496: 53                 push        ebx
  00406497: 8B DE              mov         ebx,esi
  00406499: 2B DF              sub         ebx,edi
  0040649B: 8D 51 01           lea         edx,[ecx+1]
  0040649E: 8A 01              mov         al,byte ptr [ecx]
  004064A0: 41                 inc         ecx
  004064A1: 84 C0              test        al,al
  004064A3: 75 F9              jne         0040649E
  004064A5: 2B CA              sub         ecx,edx
  004064A7: 6A 01              push        1
  004064A9: 8D 41 01           lea         eax,[ecx+1]
  004064AC: 50                 push        eax
  004064AD: 89 45 FC           mov         dword ptr [ebp-4],eax
  004064B0: E8 B9 E8 FF FF     call        00404D6E
  004064B5: 6A 00              push        0
  004064B7: 89 04 3B           mov         dword ptr [ebx+edi],eax
  004064BA: E8 0C E9 FF FF     call        00404DCB
  004064BF: 83 C4 0C           add         esp,0Ch
  004064C2: 83 3C 3B 00        cmp         dword ptr [ebx+edi],0
  004064C6: 74 2E              je          004064F6
  004064C8: FF 37              push        dword ptr [edi]
  004064CA: FF 75 FC           push        dword ptr [ebp-4]
  004064CD: FF 34 3B           push        dword ptr [ebx+edi]
  004064D0: E8 A7 DE FF FF     call        0040437C
  004064D5: 83 C4 0C           add         esp,0Ch
  004064D8: 85 C0              test        eax,eax
  004064DA: 75 1F              jne         004064FB
  004064DC: 83 C7 04           add         edi,4
  004064DF: 8B 0F              mov         ecx,dword ptr [edi]
  004064E1: 85 C9              test        ecx,ecx
  004064E3: 75 B6              jne         0040649B
  004064E5: 5B                 pop         ebx
  004064E6: 6A 00              push        0
  004064E8: E8 DE E8 FF FF     call        00404DCB
  004064ED: 59                 pop         ecx
  004064EE: 8B C6              mov         eax,esi
  004064F0: 5E                 pop         esi
  004064F1: E9 72 FF FF FF     jmp         00406468
  004064F6: E8 DB DE FF FF     call        004043D6
  004064FB: 33 C0              xor         eax,eax
  004064FD: 50                 push        eax
  004064FE: 50                 push        eax
  004064FF: 50                 push        eax
  00406500: 50                 push        eax
  00406501: 50                 push        eax
  00406502: E8 A7 E7 FF FF     call        00404CAE
  00406507: CC                 int         3
  00406508: A1 A8 3D 41 00     mov         eax,dword ptr ds:[00413DA8h]
  0040650D: 3B 05 B4 3D 41 00  cmp         eax,dword ptr ds:[00413DB4h]
  00406513: 75 0C              jne         00406521
  00406515: 50                 push        eax
  00406516: E8 3D FF FF FF     call        00406458
  0040651B: 59                 pop         ecx
  0040651C: A3 A8 3D 41 00     mov         dword ptr ds:[00413DA8h],eax
  00406521: C3                 ret
  00406522: 8B FF              mov         edi,edi
  00406524: 55                 push        ebp
  00406525: 8B EC              mov         ebp,esp
  00406527: 53                 push        ebx
  00406528: 56                 push        esi
  00406529: 57                 push        edi
  0040652A: 8B 3D A8 3D 41 00  mov         edi,dword ptr ds:[00413DA8h]
  00406530: 8B F7              mov         esi,edi
  00406532: 8B 07              mov         eax,dword ptr [edi]
  00406534: 85 C0              test        eax,eax
  00406536: 74 2A              je          00406562
  00406538: 8B 5D 0C           mov         ebx,dword ptr [ebp+0Ch]
  0040653B: 53                 push        ebx
  0040653C: 50                 push        eax
  0040653D: FF 75 08           push        dword ptr [ebp+8]
  00406540: E8 31 29 00 00     call        00408E76
  00406545: 83 C4 0C           add         esp,0Ch
  00406548: 85 C0              test        eax,eax
  0040654A: 75 0D              jne         00406559
  0040654C: 8B 06              mov         eax,dword ptr [esi]
  0040654E: 8A 04 03           mov         al,byte ptr [ebx+eax]
  00406551: 3C 3D              cmp         al,3Dh
  00406553: 74 1B              je          00406570
  00406555: 84 C0              test        al,al
  00406557: 74 17              je          00406570
  00406559: 83 C6 04           add         esi,4
  0040655C: 8B 06              mov         eax,dword ptr [esi]
  0040655E: 85 C0              test        eax,eax
  00406560: 75 D9              jne         0040653B
  00406562: 2B F7              sub         esi,edi
  00406564: C1 FE 02           sar         esi,2
  00406567: F7 DE              neg         esi
  00406569: 5F                 pop         edi
  0040656A: 8B C6              mov         eax,esi
  0040656C: 5E                 pop         esi
  0040656D: 5B                 pop         ebx
  0040656E: 5D                 pop         ebp
  0040656F: C3                 ret
  00406570: 2B F7              sub         esi,edi
  00406572: C1 FE 02           sar         esi,2
  00406575: EB F2              jmp         00406569
  00406577: 8B FF              mov         edi,edi
  00406579: 55                 push        ebp
  0040657A: 8B EC              mov         ebp,esp
  0040657C: 5D                 pop         ebp
  0040657D: E9 98 FC FF FF     jmp         0040621A
  00406582: 8B FF              mov         edi,edi
  00406584: 56                 push        esi
  00406585: 57                 push        edi
  00406586: BF 18 3E 41 00     mov         edi,413E18h
  0040658B: 33 F6              xor         esi,esi
  0040658D: 6A 00              push        0
  0040658F: 68 A0 0F 00 00     push        0FA0h
  00406594: 57                 push        edi
  00406595: E8 5D 10 00 00     call        004075F7
  0040659A: 85 C0              test        eax,eax
  0040659C: 74 18              je          004065B6
  0040659E: FF 05 68 3F 41 00  inc         dword ptr ds:[00413F68h]
  004065A4: 83 C6 18           add         esi,18h
  004065A7: 83 C7 18           add         edi,18h
  004065AA: 81 FE 50 01 00 00  cmp         esi,150h
  004065B0: 72 DB              jb          0040658D
  004065B2: B0 01              mov         al,1
  004065B4: EB 0A              jmp         004065C0
  004065B6: 6A 00              push        0
  004065B8: E8 1D 00 00 00     call        004065DA
  004065BD: 59                 pop         ecx
  004065BE: 32 C0              xor         al,al
  004065C0: 5F                 pop         edi
  004065C1: 5E                 pop         esi
  004065C2: C3                 ret
  004065C3: 8B FF              mov         edi,edi
  004065C5: 55                 push        ebp
  004065C6: 8B EC              mov         ebp,esp
  004065C8: 6B 45 08 18        imul        eax,dword ptr [ebp+8],18h
  004065CC: 05 18 3E 41 00     add         eax,413E18h
  004065D1: 50                 push        eax
  004065D2: FF 15 44 D0 40 00  call        dword ptr ds:[0040D044h]
  004065D8: 5D                 pop         ebp
  004065D9: C3                 ret
  004065DA: 8B FF              mov         edi,edi
  004065DC: 56                 push        esi
  004065DD: 8B 35 68 3F 41 00  mov         esi,dword ptr ds:[00413F68h]
  004065E3: 85 F6              test        esi,esi
  004065E5: 74 20              je          00406607
  004065E7: 6B C6 18           imul        eax,esi,18h
  004065EA: 57                 push        edi
  004065EB: 8D B8 00 3E 41 00  lea         edi,[eax+00413E00h]
  004065F1: 57                 push        edi
  004065F2: FF 15 4C D0 40 00  call        dword ptr ds:[0040D04Ch]
  004065F8: FF 0D 68 3F 41 00  dec         dword ptr ds:[00413F68h]
  004065FE: 83 EF 18           sub         edi,18h
  00406601: 83 EE 01           sub         esi,1
  00406604: 75 EB              jne         004065F1
  00406606: 5F                 pop         edi
  00406607: B0 01              mov         al,1
  00406609: 5E                 pop         esi
  0040660A: C3                 ret
  0040660B: 8B FF              mov         edi,edi
  0040660D: 55                 push        ebp
  0040660E: 8B EC              mov         ebp,esp
  00406610: 6B 45 08 18        imul        eax,dword ptr [ebp+8],18h
  00406614: 05 18 3E 41 00     add         eax,413E18h
  00406619: 50                 push        eax
  0040661A: FF 15 48 D0 40 00  call        dword ptr ds:[0040D048h]
  00406620: 5D                 pop         ebp
  00406621: C3                 ret
  00406622: 8B FF              mov         edi,edi
  00406624: 55                 push        ebp
  00406625: 8B EC              mov         ebp,esp
  00406627: 51                 push        ecx
  00406628: 64 A1 30 00 00 00  mov         eax,dword ptr fs:[00000030h]
  0040662E: 56                 push        esi
  0040662F: 33 F6              xor         esi,esi
  00406631: 89 75 FC           mov         dword ptr [ebp-4],esi
  00406634: 8B 40 10           mov         eax,dword ptr [eax+10h]
  00406637: 39 70 08           cmp         dword ptr [eax+8],esi
  0040663A: 7C 0F              jl          0040664B
  0040663C: 8D 45 FC           lea         eax,[ebp-4]
  0040663F: 50                 push        eax
  00406640: E8 F7 0D 00 00     call        0040743C
  00406645: 83 7D FC 01        cmp         dword ptr [ebp-4],1
  00406649: 74 03              je          0040664E
  0040664B: 33 F6              xor         esi,esi
  0040664D: 46                 inc         esi
  0040664E: 8B C6              mov         eax,esi
  00406650: 5E                 pop         esi
  00406651: C9                 leave
  00406652: C3                 ret
  00406653: 8B FF              mov         edi,edi
  00406655: 55                 push        ebp
  00406656: 8B EC              mov         ebp,esp
  00406658: 51                 push        ecx
  00406659: 51                 push        ecx
  0040665A: 53                 push        ebx
  0040665B: 56                 push        esi
  0040665C: 6A 38              push        38h
  0040665E: 6A 40              push        40h
  00406660: E8 09 E7 FF FF     call        00404D6E
  00406665: 8B F0              mov         esi,eax
  00406667: 33 DB              xor         ebx,ebx
  00406669: 89 75 F8           mov         dword ptr [ebp-8],esi
  0040666C: 59                 pop         ecx
  0040666D: 59                 pop         ecx
  0040666E: 85 F6              test        esi,esi
  00406670: 75 04              jne         00406676
  00406672: 8B F3              mov         esi,ebx
  00406674: EB 4B              jmp         004066C1
  00406676: 8D 86 00 0E 00 00  lea         eax,[esi+00000E00h]
  0040667C: 3B F0              cmp         esi,eax
  0040667E: 74 41              je          004066C1
  00406680: 57                 push        edi
  00406681: 8D 7E 20           lea         edi,[esi+20h]
  00406684: 8B F0              mov         esi,eax
  00406686: 53                 push        ebx
  00406687: 68 A0 0F 00 00     push        0FA0h
  0040668C: 8D 47 E0           lea         eax,[edi-20h]
  0040668F: 50                 push        eax
  00406690: E8 62 0F 00 00     call        004075F7
  00406695: 83 4F F8 FF        or          dword ptr [edi-8],0FFFFFFFFh
  00406699: 89 1F              mov         dword ptr [edi],ebx
  0040669B: 8D 7F 38           lea         edi,[edi+38h]
  0040669E: 89 5F CC           mov         dword ptr [edi-34h],ebx
  004066A1: 8D 47 E0           lea         eax,[edi-20h]
  004066A4: C7 47 D0 00 00 0A  mov         dword ptr [edi-30h],0A0A0000h
            0A
  004066AB: C6 47 D4 0A        mov         byte ptr [edi-2Ch],0Ah
  004066AF: 80 67 D5 F8        and         byte ptr [edi-2Bh],0F8h
  004066B3: 89 5F D6           mov         dword ptr [edi-2Ah],ebx
  004066B6: 88 5F DA           mov         byte ptr [edi-26h],bl
  004066B9: 3B C6              cmp         eax,esi
  004066BB: 75 C9              jne         00406686
  004066BD: 8B 75 F8           mov         esi,dword ptr [ebp-8]
  004066C0: 5F                 pop         edi
  004066C1: 53                 push        ebx
  004066C2: E8 04 E7 FF FF     call        00404DCB
  004066C7: 59                 pop         ecx
  004066C8: 8B C6              mov         eax,esi
  004066CA: 5E                 pop         esi
  004066CB: 5B                 pop         ebx
  004066CC: C9                 leave
  004066CD: C3                 ret
  004066CE: 8B FF              mov         edi,edi
  004066D0: 55                 push        ebp
  004066D1: 8B EC              mov         ebp,esp
  004066D3: 56                 push        esi
  004066D4: 8B 75 08           mov         esi,dword ptr [ebp+8]
  004066D7: 85 F6              test        esi,esi
  004066D9: 74 25              je          00406700
  004066DB: 53                 push        ebx
  004066DC: 8D 9E 00 0E 00 00  lea         ebx,[esi+00000E00h]
  004066E2: 57                 push        edi
  004066E3: 8B FE              mov         edi,esi
  004066E5: 3B F3              cmp         esi,ebx
  004066E7: 74 0E              je          004066F7
  004066E9: 57                 push        edi
  004066EA: FF 15 4C D0 40 00  call        dword ptr ds:[0040D04Ch]
  004066F0: 83 C7 38           add         edi,38h
  004066F3: 3B FB              cmp         edi,ebx
  004066F5: 75 F2              jne         004066E9
  004066F7: 56                 push        esi
  004066F8: E8 CE E6 FF FF     call        00404DCB
  004066FD: 59                 pop         ecx
  004066FE: 5F                 pop         edi
  004066FF: 5B                 pop         ebx
  00406700: 5E                 pop         esi
  00406701: 5D                 pop         ebp
  00406702: C3                 ret
  00406703: 6A 10              push        10h
  00406705: 68 38 21 41 00     push        412138h
  0040670A: E8 E1 B0 FF FF     call        004017F0
  0040670F: 81 7D 08 00 20 00  cmp         dword ptr [ebp+8],2000h
            00
  00406716: 72 21              jb          00406739
  00406718: E8 3E E6 FF FF     call        00404D5B
  0040671D: 6A 09              push        9
  0040671F: 5E                 pop         esi
  00406720: 89 30              mov         dword ptr [eax],esi
  00406722: E8 77 E5 FF FF     call        00404C9E
  00406727: 8B C6              mov         eax,esi
  00406729: 8B 4D F0           mov         ecx,dword ptr [ebp-10h]
  0040672C: 64 89 0D 00 00 00  mov         dword ptr fs:[00000000h],ecx
            00
  00406733: 59                 pop         ecx
  00406734: 5F                 pop         edi
  00406735: 5E                 pop         esi
  00406736: 5B                 pop         ebx
  00406737: C9                 leave
  00406738: C3                 ret
  00406739: 33 F6              xor         esi,esi
  0040673B: 89 75 E4           mov         dword ptr [ebp-1Ch],esi
  0040673E: 6A 07              push        7
  00406740: E8 7E FE FF FF     call        004065C3
  00406745: 59                 pop         ecx
  00406746: 89 75 FC           mov         dword ptr [ebp-4],esi
  00406749: 8B FE              mov         edi,esi
  0040674B: A1 70 41 41 00     mov         eax,dword ptr ds:[00414170h]
  00406750: 89 7D E0           mov         dword ptr [ebp-20h],edi
  00406753: 39 45 08           cmp         dword ptr [ebp+8],eax
  00406756: 7C 1F              jl          00406777
  00406758: 39 34 BD 70 3F 41  cmp         dword ptr [edi*4+00413F70h],esi
            00
  0040675F: 75 31              jne         00406792
  00406761: E8 ED FE FF FF     call        00406653
  00406766: 89 04 BD 70 3F 41  mov         dword ptr [edi*4+00413F70h],eax
            00
  0040676D: 85 C0              test        eax,eax
  0040676F: 75 14              jne         00406785
  00406771: 6A 0C              push        0Ch
  00406773: 5E                 pop         esi
  00406774: 89 75 E4           mov         dword ptr [ebp-1Ch],esi
  00406777: C7 45 FC FE FF FF  mov         dword ptr [ebp-4],0FFFFFFFEh
            FF
  0040677E: E8 15 00 00 00     call        00406798
  00406783: EB A2              jmp         00406727
  00406785: A1 70 41 41 00     mov         eax,dword ptr ds:[00414170h]
  0040678A: 83 C0 40           add         eax,40h
  0040678D: A3 70 41 41 00     mov         dword ptr ds:[00414170h],eax
  00406792: 47                 inc         edi
  00406793: EB BB              jmp         00406750
  00406795: 8B 75 E4           mov         esi,dword ptr [ebp-1Ch]
  00406798: 6A 07              push        7
  0040679A: E8 6C FE FF FF     call        0040660B
  0040679F: 59                 pop         ecx
  004067A0: C3                 ret
  004067A1: 8B FF              mov         edi,edi
  004067A3: 55                 push        ebp
  004067A4: 8B EC              mov         ebp,esp
  004067A6: 8B 45 08           mov         eax,dword ptr [ebp+8]
  004067A9: 8B C8              mov         ecx,eax
  004067AB: 83 E0 3F           and         eax,3Fh
  004067AE: C1 F9 06           sar         ecx,6
  004067B1: 6B C0 38           imul        eax,eax,38h
  004067B4: 03 04 8D 70 3F 41  add         eax,dword ptr [ecx*4+00413F70h]
            00
  004067BB: 50                 push        eax
  004067BC: FF 15 44 D0 40 00  call        dword ptr ds:[0040D044h]
  004067C2: 5D                 pop         ebp
  004067C3: C3                 ret
  004067C4: 8B FF              mov         edi,edi
  004067C6: 55                 push        ebp
  004067C7: 8B EC              mov         ebp,esp
  004067C9: 8B 45 08           mov         eax,dword ptr [ebp+8]
  004067CC: 8B C8              mov         ecx,eax
  004067CE: 83 E0 3F           and         eax,3Fh
  004067D1: C1 F9 06           sar         ecx,6
  004067D4: 6B C0 38           imul        eax,eax,38h
  004067D7: 03 04 8D 70 3F 41  add         eax,dword ptr [ecx*4+00413F70h]
            00
  004067DE: 50                 push        eax
  004067DF: FF 15 48 D0 40 00  call        dword ptr ds:[0040D048h]
  004067E5: 5D                 pop         ebp
  004067E6: C3                 ret
  004067E7: 8B FF              mov         edi,edi
  004067E9: 55                 push        ebp
  004067EA: 8B EC              mov         ebp,esp
  004067EC: 53                 push        ebx
  004067ED: 56                 push        esi
  004067EE: 8B 75 08           mov         esi,dword ptr [ebp+8]
  004067F1: 57                 push        edi
  004067F2: 85 F6              test        esi,esi
  004067F4: 78 67              js          0040685D
  004067F6: 3B 35 70 41 41 00  cmp         esi,dword ptr ds:[00414170h]
  004067FC: 73 5F              jae         0040685D
  004067FE: 8B C6              mov         eax,esi
  00406800: 8B FE              mov         edi,esi
  00406802: 83 E0 3F           and         eax,3Fh
  00406805: C1 FF 06           sar         edi,6
  00406808: 6B D8 38           imul        ebx,eax,38h
  0040680B: 8B 04 BD 70 3F 41  mov         eax,dword ptr [edi*4+00413F70h]
            00
  00406812: F6 44 03 28 01     test        byte ptr [ebx+eax+28h],1
  00406817: 74 44              je          0040685D
  00406819: 83 7C 03 18 FF     cmp         dword ptr [ebx+eax+18h],0FFFFFFFFh
  0040681E: 74 3D              je          0040685D
  00406820: E8 C7 CA FF FF     call        004032EC
  00406825: 83 F8 01           cmp         eax,1
  00406828: 75 23              jne         0040684D
  0040682A: 33 C0              xor         eax,eax
  0040682C: 2B F0              sub         esi,eax
  0040682E: 74 14              je          00406844
  00406830: 83 EE 01           sub         esi,1
  00406833: 74 0A              je          0040683F
  00406835: 83 EE 01           sub         esi,1
  00406838: 75 13              jne         0040684D
  0040683A: 50                 push        eax
  0040683B: 6A F4              push        0FFFFFFF4h
  0040683D: EB 08              jmp         00406847
  0040683F: 50                 push        eax
  00406840: 6A F5              push        0FFFFFFF5h
  00406842: EB 03              jmp         00406847
  00406844: 50                 push        eax
  00406845: 6A F6              push        0FFFFFFF6h
  00406847: FF 15 C8 D0 40 00  call        dword ptr ds:[0040D0C8h]
  0040684D: 8B 04 BD 70 3F 41  mov         eax,dword ptr [edi*4+00413F70h]
            00
  00406854: 83 4C 03 18 FF     or          dword ptr [ebx+eax+18h],0FFFFFFFFh
  00406859: 33 C0              xor         eax,eax
  0040685B: EB 16              jmp         00406873
  0040685D: E8 F9 E4 FF FF     call        00404D5B
  00406862: C7 00 09 00 00 00  mov         dword ptr [eax],9
  00406868: E8 DB E4 FF FF     call        00404D48
  0040686D: 83 20 00           and         dword ptr [eax],0
  00406870: 83 C8 FF           or          eax,0FFFFFFFFh
  00406873: 5F                 pop         edi
  00406874: 5E                 pop         esi
  00406875: 5B                 pop         ebx
  00406876: 5D                 pop         ebp
  00406877: C3                 ret
  00406878: 8B FF              mov         edi,edi
  0040687A: 55                 push        ebp
  0040687B: 8B EC              mov         ebp,esp
  0040687D: 8B 4D 08           mov         ecx,dword ptr [ebp+8]
  00406880: 83 F9 FE           cmp         ecx,0FFFFFFFEh
  00406883: 75 15              jne         0040689A
  00406885: E8 BE E4 FF FF     call        00404D48
  0040688A: 83 20 00           and         dword ptr [eax],0
  0040688D: E8 C9 E4 FF FF     call        00404D5B
  00406892: C7 00 09 00 00 00  mov         dword ptr [eax],9
  00406898: EB 43              jmp         004068DD
  0040689A: 85 C9              test        ecx,ecx
  0040689C: 78 27              js          004068C5
  0040689E: 3B 0D 70 41 41 00  cmp         ecx,dword ptr ds:[00414170h]
  004068A4: 73 1F              jae         004068C5
  004068A6: 8B C1              mov         eax,ecx
  004068A8: 83 E1 3F           and         ecx,3Fh
  004068AB: C1 F8 06           sar         eax,6
  004068AE: 6B C9 38           imul        ecx,ecx,38h
  004068B1: 8B 04 85 70 3F 41  mov         eax,dword ptr [eax*4+00413F70h]
            00
  004068B8: F6 44 08 28 01     test        byte ptr [eax+ecx+28h],1
  004068BD: 74 06              je          004068C5
  004068BF: 8B 44 08 18        mov         eax,dword ptr [eax+ecx+18h]
  004068C3: 5D                 pop         ebp
  004068C4: C3                 ret
  004068C5: E8 7E E4 FF FF     call        00404D48
  004068CA: 83 20 00           and         dword ptr [eax],0
  004068CD: E8 89 E4 FF FF     call        00404D5B
  004068D2: C7 00 09 00 00 00  mov         dword ptr [eax],9
  004068D8: E8 C1 E3 FF FF     call        00404C9E
  004068DD: 83 C8 FF           or          eax,0FFFFFFFFh
  004068E0: 5D                 pop         ebp
  004068E1: C3                 ret
  004068E2: 8B FF              mov         edi,edi
  004068E4: 55                 push        ebp
  004068E5: 8B EC              mov         ebp,esp
  004068E7: 83 EC 48           sub         esp,48h
  004068EA: 8D 45 B8           lea         eax,[ebp-48h]
  004068ED: 50                 push        eax
  004068EE: FF 15 20 D0 40 00  call        dword ptr ds:[0040D020h]
  004068F4: 66 83 7D EA 00     cmp         word ptr [ebp-16h],0
  004068F9: 0F 84 97 00 00 00  je          00406996
  004068FF: 53                 push        ebx
  00406900: 8B 5D EC           mov         ebx,dword ptr [ebp-14h]
  00406903: 85 DB              test        ebx,ebx
  00406905: 0F 84 8A 00 00 00  je          00406995
  0040690B: 56                 push        esi
  0040690C: 8B 33              mov         esi,dword ptr [ebx]
  0040690E: 8D 43 04           lea         eax,[ebx+4]
  00406911: 03 C6              add         eax,esi
  00406913: 89 45 FC           mov         dword ptr [ebp-4],eax
  00406916: B8 00 20 00 00     mov         eax,2000h
  0040691B: 3B F0              cmp         esi,eax
  0040691D: 7C 02              jl          00406921
  0040691F: 8B F0              mov         esi,eax
  00406921: 56                 push        esi
  00406922: E8 DC FD FF FF     call        00406703
  00406927: A1 70 41 41 00     mov         eax,dword ptr ds:[00414170h]
  0040692C: 59                 pop         ecx
  0040692D: 3B F0              cmp         esi,eax
  0040692F: 7E 02              jle         00406933
  00406931: 8B F0              mov         esi,eax
  00406933: 57                 push        edi
  00406934: 33 FF              xor         edi,edi
  00406936: 85 F6              test        esi,esi
  00406938: 74 59              je          00406993
  0040693A: 8B 45 FC           mov         eax,dword ptr [ebp-4]
  0040693D: 8B 08              mov         ecx,dword ptr [eax]
  0040693F: 83 F9 FF           cmp         ecx,0FFFFFFFFh
  00406942: 74 44              je          00406988
  00406944: 83 F9 FE           cmp         ecx,0FFFFFFFEh
  00406947: 74 3F              je          00406988
  00406949: 8A 54 1F 04        mov         dl,byte ptr [edi+ebx+4]
  0040694D: F6 C2 01           test        dl,1
  00406950: 74 36              je          00406988
  00406952: F6 C2 08           test        dl,8
  00406955: 75 0B              jne         00406962
  00406957: 51                 push        ecx
  00406958: FF 15 CC D0 40 00  call        dword ptr ds:[0040D0CCh]
  0040695E: 85 C0              test        eax,eax
  00406960: 74 23              je          00406985
  00406962: 8B C7              mov         eax,edi
  00406964: 8B CF              mov         ecx,edi
  00406966: 83 E0 3F           and         eax,3Fh
  00406969: C1 F9 06           sar         ecx,6
  0040696C: 6B D0 38           imul        edx,eax,38h
  0040696F: 8B 45 FC           mov         eax,dword ptr [ebp-4]
  00406972: 03 14 8D 70 3F 41  add         edx,dword ptr [ecx*4+00413F70h]
            00
  00406979: 8B 00              mov         eax,dword ptr [eax]
  0040697B: 89 42 18           mov         dword ptr [edx+18h],eax
  0040697E: 8A 44 1F 04        mov         al,byte ptr [edi+ebx+4]
  00406982: 88 42 28           mov         byte ptr [edx+28h],al
  00406985: 8B 45 FC           mov         eax,dword ptr [ebp-4]
  00406988: 47                 inc         edi
  00406989: 83 C0 04           add         eax,4
  0040698C: 89 45 FC           mov         dword ptr [ebp-4],eax
  0040698F: 3B FE              cmp         edi,esi
  00406991: 75 AA              jne         0040693D
  00406993: 5F                 pop         edi
  00406994: 5E                 pop         esi
  00406995: 5B                 pop         ebx
  00406996: C9                 leave
  00406997: C3                 ret
  00406998: 8B FF              mov         edi,edi
  0040699A: 53                 push        ebx
  0040699B: 56                 push        esi
  0040699C: 57                 push        edi
  0040699D: 33 FF              xor         edi,edi
  0040699F: 8B C7              mov         eax,edi
  004069A1: 8B CF              mov         ecx,edi
  004069A3: 83 E0 3F           and         eax,3Fh
  004069A6: C1 F9 06           sar         ecx,6
  004069A9: 6B F0 38           imul        esi,eax,38h
  004069AC: 03 34 8D 70 3F 41  add         esi,dword ptr [ecx*4+00413F70h]
            00
  004069B3: 83 7E 18 FF        cmp         dword ptr [esi+18h],0FFFFFFFFh
  004069B7: 74 0C              je          004069C5
  004069B9: 83 7E 18 FE        cmp         dword ptr [esi+18h],0FFFFFFFEh
  004069BD: 74 06              je          004069C5
  004069BF: 80 4E 28 80        or          byte ptr [esi+28h],80h
  004069C3: EB 79              jmp         00406A3E
  004069C5: 8B C7              mov         eax,edi
  004069C7: C6 46 28 81        mov         byte ptr [esi+28h],81h
  004069CB: 83 E8 00           sub         eax,0
  004069CE: 74 10              je          004069E0
  004069D0: 83 E8 01           sub         eax,1
  004069D3: 74 07              je          004069DC
  004069D5: 83 E8 01           sub         eax,1
  004069D8: 6A F4              push        0FFFFFFF4h
  004069DA: EB 06              jmp         004069E2
  004069DC: 6A F5              push        0FFFFFFF5h
  004069DE: EB 02              jmp         004069E2
  004069E0: 6A F6              push        0FFFFFFF6h
  004069E2: 58                 pop         eax
  004069E3: 50                 push        eax
  004069E4: FF 15 74 D0 40 00  call        dword ptr ds:[0040D074h]
  004069EA: 8B D8              mov         ebx,eax
  004069EC: 83 FB FF           cmp         ebx,0FFFFFFFFh
  004069EF: 74 0D              je          004069FE
  004069F1: 85 DB              test        ebx,ebx
  004069F3: 74 09              je          004069FE
  004069F5: 53                 push        ebx
  004069F6: FF 15 CC D0 40 00  call        dword ptr ds:[0040D0CCh]
  004069FC: EB 02              jmp         00406A00
  004069FE: 33 C0              xor         eax,eax
  00406A00: 85 C0              test        eax,eax
  00406A02: 74 1C              je          00406A20
  00406A04: 0F B6 C0           movzx       eax,al
  00406A07: 89 5E 18           mov         dword ptr [esi+18h],ebx
  00406A0A: 83 F8 02           cmp         eax,2
  00406A0D: 75 06              jne         00406A15
  00406A0F: 80 4E 28 40        or          byte ptr [esi+28h],40h
  00406A13: EB 29              jmp         00406A3E
  00406A15: 83 F8 03           cmp         eax,3
  00406A18: 75 24              jne         00406A3E
  00406A1A: 80 4E 28 08        or          byte ptr [esi+28h],8
  00406A1E: EB 1E              jmp         00406A3E
  00406A20: 80 4E 28 40        or          byte ptr [esi+28h],40h
  00406A24: C7 46 18 FE FF FF  mov         dword ptr [esi+18h],0FFFFFFFEh
            FF
  00406A2B: A1 74 42 41 00     mov         eax,dword ptr ds:[00414274h]
  00406A30: 85 C0              test        eax,eax
  00406A32: 74 0A              je          00406A3E
  00406A34: 8B 04 B8           mov         eax,dword ptr [eax+edi*4]
  00406A37: C7 40 10 FE FF FF  mov         dword ptr [eax+10h],0FFFFFFFEh
            FF
  00406A3E: 47                 inc         edi
  00406A3F: 83 FF 03           cmp         edi,3
  00406A42: 0F 85 57 FF FF FF  jne         0040699F
  00406A48: 5F                 pop         edi
  00406A49: 5E                 pop         esi
  00406A4A: 5B                 pop         ebx
  00406A4B: C3                 ret
  00406A4C: 6A 0C              push        0Ch
  00406A4E: 68 58 21 41 00     push        412158h
  00406A53: E8 98 AD FF FF     call        004017F0
  00406A58: 6A 07              push        7
  00406A5A: E8 64 FB FF FF     call        004065C3
  00406A5F: 59                 pop         ecx
  00406A60: 33 DB              xor         ebx,ebx
  00406A62: 88 5D E7           mov         byte ptr [ebp-19h],bl
  00406A65: 89 5D FC           mov         dword ptr [ebp-4],ebx
  00406A68: 53                 push        ebx
  00406A69: E8 95 FC FF FF     call        00406703
  00406A6E: 59                 pop         ecx
  00406A6F: 85 C0              test        eax,eax
  00406A71: 75 0F              jne         00406A82
  00406A73: E8 6A FE FF FF     call        004068E2
  00406A78: E8 1B FF FF FF     call        00406998
  00406A7D: B3 01              mov         bl,1
  00406A7F: 88 5D E7           mov         byte ptr [ebp-19h],bl
  00406A82: C7 45 FC FE FF FF  mov         dword ptr [ebp-4],0FFFFFFFEh
            FF
  00406A89: E8 15 00 00 00     call        00406AA3
  00406A8E: 8A C3              mov         al,bl
  00406A90: 8B 4D F0           mov         ecx,dword ptr [ebp-10h]
  00406A93: 64 89 0D 00 00 00  mov         dword ptr fs:[00000000h],ecx
            00
  00406A9A: 59                 pop         ecx
  00406A9B: 5F                 pop         edi
  00406A9C: 5E                 pop         esi
  00406A9D: 5B                 pop         ebx
  00406A9E: C9                 leave
  00406A9F: C3                 ret
  00406AA0: 8A 5D E7           mov         bl,byte ptr [ebp-19h]
  00406AA3: 6A 07              push        7
  00406AA5: E8 61 FB FF FF     call        0040660B
  00406AAA: 59                 pop         ecx
  00406AAB: C3                 ret
  00406AAC: 8B FF              mov         edi,edi
  00406AAE: 56                 push        esi
  00406AAF: 33 F6              xor         esi,esi
  00406AB1: 8B 86 70 3F 41 00  mov         eax,dword ptr [esi+00413F70h]
  00406AB7: 85 C0              test        eax,eax
  00406AB9: 74 0E              je          00406AC9
  00406ABB: 50                 push        eax
  00406ABC: E8 0D FC FF FF     call        004066CE
  00406AC1: 83 A6 70 3F 41 00  and         dword ptr [esi+00413F70h],0
            00
  00406AC8: 59                 pop         ecx
  00406AC9: 83 C6 04           add         esi,4
  00406ACC: 81 FE 00 02 00 00  cmp         esi,200h
  00406AD2: 72 DD              jb          00406AB1
  00406AD4: B0 01              mov         al,1
  00406AD6: 5E                 pop         esi
  00406AD7: C3                 ret
  00406AD8: 8B FF              mov         edi,edi
  00406ADA: 55                 push        ebp
  00406ADB: 8B EC              mov         ebp,esp
  00406ADD: 56                 push        esi
  00406ADE: 8B 75 08           mov         esi,dword ptr [ebp+8]
  00406AE1: 85 F6              test        esi,esi
  00406AE3: 0F 84 EA 00 00 00  je          00406BD3
  00406AE9: 8B 46 0C           mov         eax,dword ptr [esi+0Ch]
  00406AEC: 3B 05 54 36 41 00  cmp         eax,dword ptr ds:[00413654h]
  00406AF2: 74 07              je          00406AFB
  00406AF4: 50                 push        eax
  00406AF5: E8 D1 E2 FF FF     call        00404DCB
  00406AFA: 59                 pop         ecx
  00406AFB: 8B 46 10           mov         eax,dword ptr [esi+10h]
  00406AFE: 3B 05 58 36 41 00  cmp         eax,dword ptr ds:[00413658h]
  00406B04: 74 07              je          00406B0D
  00406B06: 50                 push        eax
  00406B07: E8 BF E2 FF FF     call        00404DCB
  00406B0C: 59                 pop         ecx
  00406B0D: 8B 46 14           mov         eax,dword ptr [esi+14h]
  00406B10: 3B 05 5C 36 41 00  cmp         eax,dword ptr ds:[0041365Ch]
  00406B16: 74 07              je          00406B1F
  00406B18: 50                 push        eax
  00406B19: E8 AD E2 FF FF     call        00404DCB
  00406B1E: 59                 pop         ecx
  00406B1F: 8B 46 18           mov         eax,dword ptr [esi+18h]
  00406B22: 3B 05 60 36 41 00  cmp         eax,dword ptr ds:[00413660h]
  00406B28: 74 07              je          00406B31
  00406B2A: 50                 push        eax
  00406B2B: E8 9B E2 FF FF     call        00404DCB
  00406B30: 59                 pop         ecx
  00406B31: 8B 46 1C           mov         eax,dword ptr [esi+1Ch]
  00406B34: 3B 05 64 36 41 00  cmp         eax,dword ptr ds:[00413664h]
  00406B3A: 74 07              je          00406B43
  00406B3C: 50                 push        eax
  00406B3D: E8 89 E2 FF FF     call        00404DCB
  00406B42: 59                 pop         ecx
  00406B43: 8B 46 20           mov         eax,dword ptr [esi+20h]
  00406B46: 3B 05 68 36 41 00  cmp         eax,dword ptr ds:[00413668h]
  00406B4C: 74 07              je          00406B55
  00406B4E: 50                 push        eax
  00406B4F: E8 77 E2 FF FF     call        00404DCB
  00406B54: 59                 pop         ecx
  00406B55: 8B 46 24           mov         eax,dword ptr [esi+24h]
  00406B58: 3B 05 6C 36 41 00  cmp         eax,dword ptr ds:[0041366Ch]
  00406B5E: 74 07              je          00406B67
  00406B60: 50                 push        eax
  00406B61: E8 65 E2 FF FF     call        00404DCB
  00406B66: 59                 pop         ecx
  00406B67: 8B 46 38           mov         eax,dword ptr [esi+38h]
  00406B6A: 3B 05 80 36 41 00  cmp         eax,dword ptr ds:[00413680h]
  00406B70: 74 07              je          00406B79
  00406B72: 50                 push        eax
  00406B73: E8 53 E2 FF FF     call        00404DCB
  00406B78: 59                 pop         ecx
  00406B79: 8B 46 3C           mov         eax,dword ptr [esi+3Ch]
  00406B7C: 3B 05 84 36 41 00  cmp         eax,dword ptr ds:[00413684h]
  00406B82: 74 07              je          00406B8B
  00406B84: 50                 push        eax
  00406B85: E8 41 E2 FF FF     call        00404DCB
  00406B8A: 59                 pop         ecx
  00406B8B: 8B 46 40           mov         eax,dword ptr [esi+40h]
  00406B8E: 3B 05 88 36 41 00  cmp         eax,dword ptr ds:[00413688h]
  00406B94: 74 07              je          00406B9D
  00406B96: 50                 push        eax
  00406B97: E8 2F E2 FF FF     call        00404DCB
  00406B9C: 59                 pop         ecx
  00406B9D: 8B 46 44           mov         eax,dword ptr [esi+44h]
  00406BA0: 3B 05 8C 36 41 00  cmp         eax,dword ptr ds:[0041368Ch]
  00406BA6: 74 07              je          00406BAF
  00406BA8: 50                 push        eax
  00406BA9: E8 1D E2 FF FF     call        00404DCB
  00406BAE: 59                 pop         ecx
  00406BAF: 8B 46 48           mov         eax,dword ptr [esi+48h]
  00406BB2: 3B 05 90 36 41 00  cmp         eax,dword ptr ds:[00413690h]
  00406BB8: 74 07              je          00406BC1
  00406BBA: 50                 push        eax
  00406BBB: E8 0B E2 FF FF     call        00404DCB
  00406BC0: 59                 pop         ecx
  00406BC1: 8B 46 4C           mov         eax,dword ptr [esi+4Ch]
  00406BC4: 3B 05 94 36 41 00  cmp         eax,dword ptr ds:[00413694h]
  00406BCA: 74 07              je          00406BD3
  00406BCC: 50                 push        eax
  00406BCD: E8 F9 E1 FF FF     call        00404DCB
  00406BD2: 59                 pop         ecx
  00406BD3: 5E                 pop         esi
  00406BD4: 5D                 pop         ebp
  00406BD5: C3                 ret
  00406BD6: 8B FF              mov         edi,edi
  00406BD8: 55                 push        ebp
  00406BD9: 8B EC              mov         ebp,esp
  00406BDB: 56                 push        esi
  00406BDC: 8B 75 08           mov         esi,dword ptr [ebp+8]
  00406BDF: 85 F6              test        esi,esi
  00406BE1: 74 59              je          00406C3C
  00406BE3: 8B 06              mov         eax,dword ptr [esi]
  00406BE5: 3B 05 48 36 41 00  cmp         eax,dword ptr ds:[00413648h]
  00406BEB: 74 07              je          00406BF4
  00406BED: 50                 push        eax
  00406BEE: E8 D8 E1 FF FF     call        00404DCB
  00406BF3: 59                 pop         ecx
  00406BF4: 8B 46 04           mov         eax,dword ptr [esi+4]
  00406BF7: 3B 05 4C 36 41 00  cmp         eax,dword ptr ds:[0041364Ch]
  00406BFD: 74 07              je          00406C06
  00406BFF: 50                 push        eax
  00406C00: E8 C6 E1 FF FF     call        00404DCB
  00406C05: 59                 pop         ecx
  00406C06: 8B 46 08           mov         eax,dword ptr [esi+8]
  00406C09: 3B 05 50 36 41 00  cmp         eax,dword ptr ds:[00413650h]
  00406C0F: 74 07              je          00406C18
  00406C11: 50                 push        eax
  00406C12: E8 B4 E1 FF FF     call        00404DCB
  00406C17: 59                 pop         ecx
  00406C18: 8B 46 30           mov         eax,dword ptr [esi+30h]
  00406C1B: 3B 05 78 36 41 00  cmp         eax,dword ptr ds:[00413678h]
  00406C21: 74 07              je          00406C2A
  00406C23: 50                 push        eax
  00406C24: E8 A2 E1 FF FF     call        00404DCB
  00406C29: 59                 pop         ecx
  00406C2A: 8B 46 34           mov         eax,dword ptr [esi+34h]
  00406C2D: 3B 05 7C 36 41 00  cmp         eax,dword ptr ds:[0041367Ch]
  00406C33: 74 07              je          00406C3C
  00406C35: 50                 push        eax
  00406C36: E8 90 E1 FF FF     call        00404DCB
  00406C3B: 59                 pop         ecx
  00406C3C: 5E                 pop         esi
  00406C3D: 5D                 pop         ebp
  00406C3E: C3                 ret
  00406C3F: 8B FF              mov         edi,edi
  00406C41: 55                 push        ebp
  00406C42: 8B EC              mov         ebp,esp
  00406C44: 8B 4D 0C           mov         ecx,dword ptr [ebp+0Ch]
  00406C47: 53                 push        ebx
  00406C48: 56                 push        esi
  00406C49: 8B 75 08           mov         esi,dword ptr [ebp+8]
  00406C4C: 57                 push        edi
  00406C4D: 33 FF              xor         edi,edi
  00406C4F: 8D 04 8E           lea         eax,[esi+ecx*4]
  00406C52: 81 E1 FF FF FF 3F  and         ecx,3FFFFFFFh
  00406C58: 3B C6              cmp         eax,esi
  00406C5A: 1B DB              sbb         ebx,ebx
  00406C5C: F7 D3              not         ebx
  00406C5E: 23 D9              and         ebx,ecx
  00406C60: 74 10              je          00406C72
  00406C62: FF 36              push        dword ptr [esi]
  00406C64: E8 62 E1 FF FF     call        00404DCB
  00406C69: 47                 inc         edi
  00406C6A: 8D 76 04           lea         esi,[esi+4]
  00406C6D: 59                 pop         ecx
  00406C6E: 3B FB              cmp         edi,ebx
  00406C70: 75 F0              jne         00406C62
  00406C72: 5F                 pop         edi
  00406C73: 5E                 pop         esi
  00406C74: 5B                 pop         ebx
  00406C75: 5D                 pop         ebp
  00406C76: C3                 ret
  00406C77: 8B FF              mov         edi,edi
  00406C79: 55                 push        ebp
  00406C7A: 8B EC              mov         ebp,esp
  00406C7C: 56                 push        esi
  00406C7D: 8B 75 08           mov         esi,dword ptr [ebp+8]
  00406C80: 85 F6              test        esi,esi
  00406C82: 0F 84 D0 00 00 00  je          00406D58
  00406C88: 6A 07              push        7
  00406C8A: 56                 push        esi
  00406C8B: E8 AF FF FF FF     call        00406C3F
  00406C90: 8D 46 1C           lea         eax,[esi+1Ch]
  00406C93: 6A 07              push        7
  00406C95: 50                 push        eax
  00406C96: E8 A4 FF FF FF     call        00406C3F
  00406C9B: 8D 46 38           lea         eax,[esi+38h]
  00406C9E: 6A 0C              push        0Ch
  00406CA0: 50                 push        eax
  00406CA1: E8 99 FF FF FF     call        00406C3F
  00406CA6: 8D 46 68           lea         eax,[esi+68h]
  00406CA9: 6A 0C              push        0Ch
  00406CAB: 50                 push        eax
  00406CAC: E8 8E FF FF FF     call        00406C3F
  00406CB1: 8D 86 98 00 00 00  lea         eax,[esi+00000098h]
  00406CB7: 6A 02              push        2
  00406CB9: 50                 push        eax
  00406CBA: E8 80 FF FF FF     call        00406C3F
  00406CBF: FF B6 A0 00 00 00  push        dword ptr [esi+000000A0h]
  00406CC5: E8 01 E1 FF FF     call        00404DCB
  00406CCA: FF B6 A4 00 00 00  push        dword ptr [esi+000000A4h]
  00406CD0: E8 F6 E0 FF FF     call        00404DCB
  00406CD5: FF B6 A8 00 00 00  push        dword ptr [esi+000000A8h]
  00406CDB: E8 EB E0 FF FF     call        00404DCB
  00406CE0: 8D 86 B4 00 00 00  lea         eax,[esi+000000B4h]
  00406CE6: 6A 07              push        7
  00406CE8: 50                 push        eax
  00406CE9: E8 51 FF FF FF     call        00406C3F
  00406CEE: 8D 86 D0 00 00 00  lea         eax,[esi+000000D0h]
  00406CF4: 6A 07              push        7
  00406CF6: 50                 push        eax
  00406CF7: E8 43 FF FF FF     call        00406C3F
  00406CFC: 83 C4 44           add         esp,44h
  00406CFF: 8D 86 EC 00 00 00  lea         eax,[esi+000000ECh]
  00406D05: 6A 0C              push        0Ch
  00406D07: 50                 push        eax
  00406D08: E8 32 FF FF FF     call        00406C3F
  00406D0D: 8D 86 1C 01 00 00  lea         eax,[esi+0000011Ch]
  00406D13: 6A 0C              push        0Ch
  00406D15: 50                 push        eax
  00406D16: E8 24 FF FF FF     call        00406C3F
  00406D1B: 8D 86 4C 01 00 00  lea         eax,[esi+0000014Ch]
  00406D21: 6A 02              push        2
  00406D23: 50                 push        eax
  00406D24: E8 16 FF FF FF     call        00406C3F
  00406D29: FF B6 54 01 00 00  push        dword ptr [esi+00000154h]
  00406D2F: E8 97 E0 FF FF     call        00404DCB
  00406D34: FF B6 58 01 00 00  push        dword ptr [esi+00000158h]
  00406D3A: E8 8C E0 FF FF     call        00404DCB
  00406D3F: FF B6 5C 01 00 00  push        dword ptr [esi+0000015Ch]
  00406D45: E8 81 E0 FF FF     call        00404DCB
  00406D4A: FF B6 60 01 00 00  push        dword ptr [esi+00000160h]
  00406D50: E8 76 E0 FF FF     call        00404DCB
  00406D55: 83 C4 28           add         esp,28h
  00406D58: 5E                 pop         esi
  00406D59: 5D                 pop         ebp
  00406D5A: C3                 ret
  00406D5B: 8B FF              mov         edi,edi
  00406D5D: 55                 push        ebp
  00406D5E: 8B EC              mov         ebp,esp
  00406D60: 51                 push        ecx
  00406D61: E8 3A DB FF FF     call        004048A0
  00406D66: 8B 48 4C           mov         ecx,dword ptr [eax+4Ch]
  00406D69: 89 4D FC           mov         dword ptr [ebp-4],ecx
  00406D6C: 8D 4D FC           lea         ecx,[ebp-4]
  00406D6F: 51                 push        ecx
  00406D70: 50                 push        eax
  00406D71: E8 FC 17 00 00     call        00408572
  00406D76: 8B 45 FC           mov         eax,dword ptr [ebp-4]
  00406D79: 59                 pop         ecx
  00406D7A: 59                 pop         ecx
  00406D7B: 8B 00              mov         eax,dword ptr [eax]
  00406D7D: C9                 leave
  00406D7E: C3                 ret
  00406D7F: 8B FF              mov         edi,edi
  00406D81: 55                 push        ebp
  00406D82: 8B EC              mov         ebp,esp
  00406D84: 56                 push        esi
  00406D85: 8B 75 08           mov         esi,dword ptr [ebp+8]
  00406D88: 83 FE E0           cmp         esi,0FFFFFFE0h
  00406D8B: 77 30              ja          00406DBD
  00406D8D: 85 F6              test        esi,esi
  00406D8F: 75 17              jne         00406DA8
  00406D91: 46                 inc         esi
  00406D92: EB 14              jmp         00406DA8
  00406D94: E8 5C D0 FF FF     call        00403DF5
  00406D99: 85 C0              test        eax,eax
  00406D9B: 74 20              je          00406DBD
  00406D9D: 56                 push        esi
  00406D9E: E8 BE 0A 00 00     call        00407861
  00406DA3: 59                 pop         ecx
  00406DA4: 85 C0              test        eax,eax
  00406DA6: 74 15              je          00406DBD
  00406DA8: 56                 push        esi
  00406DA9: 6A 00              push        0
  00406DAB: FF 35 58 42 41 00  push        dword ptr ds:[00414258h]
  00406DB1: FF 15 90 D0 40 00  call        dword ptr ds:[0040D090h]
  00406DB7: 85 C0              test        eax,eax
  00406DB9: 74 D9              je          00406D94
  00406DBB: EB 0D              jmp         00406DCA
  00406DBD: E8 99 DF FF FF     call        00404D5B
  00406DC2: C7 00 0C 00 00 00  mov         dword ptr [eax],0Ch
  00406DC8: 33 C0              xor         eax,eax
  00406DCA: 5E                 pop         esi
  00406DCB: 5D                 pop         ebp
  00406DCC: C3                 ret
  00406DCD: 8B FF              mov         edi,edi
  00406DCF: 55                 push        ebp
  00406DD0: 8B EC              mov         ebp,esp
  00406DD2: 83 EC 1C           sub         esp,1Ch
  00406DD5: A1 18 30 41 00     mov         eax,dword ptr ds:[00413018h]
  00406DDA: 33 C5              xor         eax,ebp
  00406DDC: 89 45 FC           mov         dword ptr [ebp-4],eax
  00406DDF: 53                 push        ebx
  00406DE0: 56                 push        esi
  00406DE1: 57                 push        edi
  00406DE2: FF 75 08           push        dword ptr [ebp+8]
  00406DE5: 8D 4D E4           lea         ecx,[ebp-1Ch]
  00406DE8: E8 38 D6 FF FF     call        00404425
  00406DED: 8B 5D 1C           mov         ebx,dword ptr [ebp+1Ch]
  00406DF0: 85 DB              test        ebx,ebx
  00406DF2: 75 06              jne         00406DFA
  00406DF4: 8B 45 E8           mov         eax,dword ptr [ebp-18h]
  00406DF7: 8B 58 08           mov         ebx,dword ptr [eax+8]
  00406DFA: 33 C0              xor         eax,eax
  00406DFC: 33 FF              xor         edi,edi
  00406DFE: 39 45 20           cmp         dword ptr [ebp+20h],eax
  00406E01: 57                 push        edi
  00406E02: 57                 push        edi
  00406E03: FF 75 14           push        dword ptr [ebp+14h]
  00406E06: 0F 95 C0           setne       al
  00406E09: FF 75 10           push        dword ptr [ebp+10h]
  00406E0C: 8D 04 C5 01 00 00  lea         eax,[eax*8+00000001h]
            00
  00406E13: 50                 push        eax
  00406E14: 53                 push        ebx
  00406E15: E8 1C F2 FF FF     call        00406036
  00406E1A: 83 C4 18           add         esp,18h
  00406E1D: 89 45 F4           mov         dword ptr [ebp-0Ch],eax
  00406E20: 85 C0              test        eax,eax
  00406E22: 0F 84 84 00 00 00  je          00406EAC
  00406E28: 8D 14 00           lea         edx,[eax+eax]
  00406E2B: 8D 4A 08           lea         ecx,[edx+8]
  00406E2E: 89 55 F8           mov         dword ptr [ebp-8],edx
  00406E31: 3B D1              cmp         edx,ecx
  00406E33: 1B C0              sbb         eax,eax
  00406E35: 23 C1              and         eax,ecx
  00406E37: 74 35              je          00406E6E
  00406E39: 3D 00 04 00 00     cmp         eax,400h
  00406E3E: 77 13              ja          00406E53
  00406E40: E8 DB 58 00 00     call        0040C720
  00406E45: 8B F4              mov         esi,esp
  00406E47: 85 F6              test        esi,esi
  00406E49: 74 1E              je          00406E69
  00406E4B: C7 06 CC CC 00 00  mov         dword ptr [esi],0CCCCh
  00406E51: EB 13              jmp         00406E66
  00406E53: 50                 push        eax
  00406E54: E8 26 FF FF FF     call        00406D7F
  00406E59: 8B F0              mov         esi,eax
  00406E5B: 59                 pop         ecx
  00406E5C: 85 F6              test        esi,esi
  00406E5E: 74 09              je          00406E69
  00406E60: C7 06 DD DD 00 00  mov         dword ptr [esi],0DDDDh
  00406E66: 83 C6 08           add         esi,8
  00406E69: 8B 55 F8           mov         edx,dword ptr [ebp-8]
  00406E6C: EB 02              jmp         00406E70
  00406E6E: 8B F7              mov         esi,edi
  00406E70: 85 F6              test        esi,esi
  00406E72: 74 31              je          00406EA5
  00406E74: 52                 push        edx
  00406E75: 57                 push        edi
  00406E76: 56                 push        esi
  00406E77: E8 D4 AF FF FF     call        00401E50
  00406E7C: FF 75 F4           push        dword ptr [ebp-0Ch]
  00406E7F: 56                 push        esi
  00406E80: FF 75 14           push        dword ptr [ebp+14h]
  00406E83: FF 75 10           push        dword ptr [ebp+10h]
  00406E86: 6A 01              push        1
  00406E88: 53                 push        ebx
  00406E89: E8 A8 F1 FF FF     call        00406036
  00406E8E: 83 C4 24           add         esp,24h
  00406E91: 85 C0              test        eax,eax
  00406E93: 74 10              je          00406EA5
  00406E95: FF 75 18           push        dword ptr [ebp+18h]
  00406E98: 50                 push        eax
  00406E99: 56                 push        esi
  00406E9A: FF 75 0C           push        dword ptr [ebp+0Ch]
  00406E9D: FF 15 D0 D0 40 00  call        dword ptr ds:[0040D0D0h]
  00406EA3: 8B F8              mov         edi,eax
  00406EA5: 56                 push        esi
  00406EA6: E8 25 00 00 00     call        00406ED0
  00406EAB: 59                 pop         ecx
  00406EAC: 80 7D F0 00        cmp         byte ptr [ebp-10h],0
  00406EB0: 74 0A              je          00406EBC
  00406EB2: 8B 45 E4           mov         eax,dword ptr [ebp-1Ch]
  00406EB5: 83 A0 50 03 00 00  and         dword ptr [eax+00000350h],0FFFFFFFDh
            FD
  00406EBC: 8B C7              mov         eax,edi
  00406EBE: 8D 65 D8           lea         esp,[ebp-28h]
  00406EC1: 5F                 pop         edi
  00406EC2: 5E                 pop         esi
  00406EC3: 5B                 pop         ebx
  00406EC4: 8B 4D FC           mov         ecx,dword ptr [ebp-4]
  00406EC7: 33 CD              xor         ecx,ebp
  00406EC9: E8 59 AB FF FF     call        00401A27
  00406ECE: C9                 leave
  00406ECF: C3                 ret
  00406ED0: 8B FF              mov         edi,edi
  00406ED2: 55                 push        ebp
  00406ED3: 8B EC              mov         ebp,esp
  00406ED5: 8B 45 08           mov         eax,dword ptr [ebp+8]
  00406ED8: 85 C0              test        eax,eax
  00406EDA: 74 12              je          00406EEE
  00406EDC: 83 E8 08           sub         eax,8
  00406EDF: 81 38 DD DD 00 00  cmp         dword ptr [eax],0DDDDh
  00406EE5: 75 07              jne         00406EEE
  00406EE7: 50                 push        eax
  00406EE8: E8 DE DE FF FF     call        00404DCB
  00406EED: 59                 pop         ecx
  00406EEE: 5D                 pop         ebp
  00406EEF: C3                 ret
  00406EF0: 8B FF              mov         edi,edi
  00406EF2: 55                 push        ebp
  00406EF3: 8B EC              mov         ebp,esp
  00406EF5: 8B 45 08           mov         eax,dword ptr [ebp+8]
  00406EF8: F0 FF 40 0C        lock inc    dword ptr [eax+0Ch]
  00406EFC: 8B 48 7C           mov         ecx,dword ptr [eax+7Ch]
  00406EFF: 85 C9              test        ecx,ecx
  00406F01: 74 03              je          00406F06
  00406F03: F0 FF 01           lock inc    dword ptr [ecx]
  00406F06: 8B 88 84 00 00 00  mov         ecx,dword ptr [eax+00000084h]
  00406F0C: 85 C9              test        ecx,ecx
  00406F0E: 74 03              je          00406F13
  00406F10: F0 FF 01           lock inc    dword ptr [ecx]
  00406F13: 8B 88 80 00 00 00  mov         ecx,dword ptr [eax+00000080h]
  00406F19: 85 C9              test        ecx,ecx
  00406F1B: 74 03              je          00406F20
  00406F1D: F0 FF 01           lock inc    dword ptr [ecx]
  00406F20: 8B 88 8C 00 00 00  mov         ecx,dword ptr [eax+0000008Ch]
  00406F26: 85 C9              test        ecx,ecx
  00406F28: 74 03              je          00406F2D
  00406F2A: F0 FF 01           lock inc    dword ptr [ecx]
  00406F2D: 56                 push        esi
  00406F2E: 6A 06              push        6
  00406F30: 8D 48 28           lea         ecx,[eax+28h]
  00406F33: 5E                 pop         esi
  00406F34: 81 79 F8 40 36 41  cmp         dword ptr [ecx-8],413640h
            00
  00406F3B: 74 09              je          00406F46
  00406F3D: 8B 11              mov         edx,dword ptr [ecx]
  00406F3F: 85 D2              test        edx,edx
  00406F41: 74 03              je          00406F46
  00406F43: F0 FF 02           lock inc    dword ptr [edx]
  00406F46: 83 79 F4 00        cmp         dword ptr [ecx-0Ch],0
  00406F4A: 74 0A              je          00406F56
  00406F4C: 8B 51 FC           mov         edx,dword ptr [ecx-4]
  00406F4F: 85 D2              test        edx,edx
  00406F51: 74 03              je          00406F56
  00406F53: F0 FF 02           lock inc    dword ptr [edx]
  00406F56: 83 C1 10           add         ecx,10h
  00406F59: 83 EE 01           sub         esi,1
  00406F5C: 75 D6              jne         00406F34
  00406F5E: FF B0 9C 00 00 00  push        dword ptr [eax+0000009Ch]
  00406F64: E8 4C 01 00 00     call        004070B5
  00406F69: 59                 pop         ecx
  00406F6A: 5E                 pop         esi
  00406F6B: 5D                 pop         ebp
  00406F6C: C3                 ret
  00406F6D: 8B FF              mov         edi,edi
  00406F6F: 55                 push        ebp
  00406F70: 8B EC              mov         ebp,esp
  00406F72: 51                 push        ecx
  00406F73: 53                 push        ebx
  00406F74: 56                 push        esi
  00406F75: 8B 75 08           mov         esi,dword ptr [ebp+8]
  00406F78: 57                 push        edi
  00406F79: 8B 86 88 00 00 00  mov         eax,dword ptr [esi+00000088h]
  00406F7F: 85 C0              test        eax,eax
  00406F81: 74 6C              je          00406FEF
  00406F83: 3D 48 36 41 00     cmp         eax,413648h
  00406F88: 74 65              je          00406FEF
  00406F8A: 8B 46 7C           mov         eax,dword ptr [esi+7Ch]
  00406F8D: 85 C0              test        eax,eax
  00406F8F: 74 5E              je          00406FEF
  00406F91: 83 38 00           cmp         dword ptr [eax],0
  00406F94: 75 59              jne         00406FEF
  00406F96: 8B 86 84 00 00 00  mov         eax,dword ptr [esi+00000084h]
  00406F9C: 85 C0              test        eax,eax
  00406F9E: 74 18              je          00406FB8
  00406FA0: 83 38 00           cmp         dword ptr [eax],0
  00406FA3: 75 13              jne         00406FB8
  00406FA5: 50                 push        eax
  00406FA6: E8 20 DE FF FF     call        00404DCB
  00406FAB: FF B6 88 00 00 00  push        dword ptr [esi+00000088h]
  00406FB1: E8 22 FB FF FF     call        00406AD8
  00406FB6: 59                 pop         ecx
  00406FB7: 59                 pop         ecx
  00406FB8: 8B 86 80 00 00 00  mov         eax,dword ptr [esi+00000080h]
  00406FBE: 85 C0              test        eax,eax
  00406FC0: 74 18              je          00406FDA
  00406FC2: 83 38 00           cmp         dword ptr [eax],0
  00406FC5: 75 13              jne         00406FDA
  00406FC7: 50                 push        eax
  00406FC8: E8 FE DD FF FF     call        00404DCB
  00406FCD: FF B6 88 00 00 00  push        dword ptr [esi+00000088h]
  00406FD3: E8 FE FB FF FF     call        00406BD6
  00406FD8: 59                 pop         ecx
  00406FD9: 59                 pop         ecx
  00406FDA: FF 76 7C           push        dword ptr [esi+7Ch]
  00406FDD: E8 E9 DD FF FF     call        00404DCB
  00406FE2: FF B6 88 00 00 00  push        dword ptr [esi+00000088h]
  00406FE8: E8 DE DD FF FF     call        00404DCB
  00406FED: 59                 pop         ecx
  00406FEE: 59                 pop         ecx
  00406FEF: 8B 86 8C 00 00 00  mov         eax,dword ptr [esi+0000008Ch]
  00406FF5: 85 C0              test        eax,eax
  00406FF7: 74 45              je          0040703E
  00406FF9: 83 38 00           cmp         dword ptr [eax],0
  00406FFC: 75 40              jne         0040703E
  00406FFE: 8B 86 90 00 00 00  mov         eax,dword ptr [esi+00000090h]
  00407004: 2D FE 00 00 00     sub         eax,0FEh
  00407009: 50                 push        eax
  0040700A: E8 BC DD FF FF     call        00404DCB
  0040700F: 8B 86 94 00 00 00  mov         eax,dword ptr [esi+00000094h]
  00407015: BF 80 00 00 00     mov         edi,80h
  0040701A: 2B C7              sub         eax,edi
  0040701C: 50                 push        eax
  0040701D: E8 A9 DD FF FF     call        00404DCB
  00407022: 8B 86 98 00 00 00  mov         eax,dword ptr [esi+00000098h]
  00407028: 2B C7              sub         eax,edi
  0040702A: 50                 push        eax
  0040702B: E8 9B DD FF FF     call        00404DCB
  00407030: FF B6 8C 00 00 00  push        dword ptr [esi+0000008Ch]
  00407036: E8 90 DD FF FF     call        00404DCB
  0040703B: 83 C4 10           add         esp,10h
  0040703E: FF B6 9C 00 00 00  push        dword ptr [esi+0000009Ch]
  00407044: E8 95 00 00 00     call        004070DE
  00407049: 59                 pop         ecx
  0040704A: 6A 06              push        6
  0040704C: 58                 pop         eax
  0040704D: 8D 9E A0 00 00 00  lea         ebx,[esi+000000A0h]
  00407053: 89 45 FC           mov         dword ptr [ebp-4],eax
  00407056: 8D 7E 28           lea         edi,[esi+28h]
  00407059: 81 7F F8 40 36 41  cmp         dword ptr [edi-8],413640h
            00
  00407060: 74 1D              je          0040707F
  00407062: 8B 07              mov         eax,dword ptr [edi]
  00407064: 85 C0              test        eax,eax
  00407066: 74 14              je          0040707C
  00407068: 83 38 00           cmp         dword ptr [eax],0
  0040706B: 75 0F              jne         0040707C
  0040706D: 50                 push        eax
  0040706E: E8 58 DD FF FF     call        00404DCB
  00407073: FF 33              push        dword ptr [ebx]
  00407075: E8 51 DD FF FF     call        00404DCB
  0040707A: 59                 pop         ecx
  0040707B: 59                 pop         ecx
  0040707C: 8B 45 FC           mov         eax,dword ptr [ebp-4]
  0040707F: 83 7F F4 00        cmp         dword ptr [edi-0Ch],0
  00407083: 74 16              je          0040709B
  00407085: 8B 47 FC           mov         eax,dword ptr [edi-4]
  00407088: 85 C0              test        eax,eax
  0040708A: 74 0C              je          00407098
  0040708C: 83 38 00           cmp         dword ptr [eax],0
  0040708F: 75 07              jne         00407098
  00407091: 50                 push        eax
  00407092: E8 34 DD FF FF     call        00404DCB
  00407097: 59                 pop         ecx
  00407098: 8B 45 FC           mov         eax,dword ptr [ebp-4]
  0040709B: 83 C3 04           add         ebx,4
  0040709E: 83 C7 10           add         edi,10h
  004070A1: 83 E8 01           sub         eax,1
  004070A4: 89 45 FC           mov         dword ptr [ebp-4],eax
  004070A7: 75 B0              jne         00407059
  004070A9: 56                 push        esi
  004070AA: E8 1C DD FF FF     call        00404DCB
  004070AF: 59                 pop         ecx
  004070B0: 5F                 pop         edi
  004070B1: 5E                 pop         esi
  004070B2: 5B                 pop         ebx
  004070B3: C9                 leave
  004070B4: C3                 ret
  004070B5: 8B FF              mov         edi,edi
  004070B7: 55                 push        ebp
  004070B8: 8B EC              mov         ebp,esp
  004070BA: 8B 4D 08           mov         ecx,dword ptr [ebp+8]
  004070BD: 85 C9              test        ecx,ecx
  004070BF: 74 16              je          004070D7
  004070C1: 81 F9 08 DF 40 00  cmp         ecx,40DF08h
  004070C7: 74 0E              je          004070D7
  004070C9: 33 C0              xor         eax,eax
  004070CB: 40                 inc         eax
  004070CC: F0 0F C1 81 B0 00  lock xadd   dword ptr [ecx+000000B0h],eax
            00 00
  004070D4: 40                 inc         eax
  004070D5: 5D                 pop         ebp
  004070D6: C3                 ret
  004070D7: B8 FF FF FF 7F     mov         eax,7FFFFFFFh
  004070DC: 5D                 pop         ebp
  004070DD: C3                 ret
  004070DE: 8B FF              mov         edi,edi
  004070E0: 55                 push        ebp
  004070E1: 8B EC              mov         ebp,esp
  004070E3: 56                 push        esi
  004070E4: 8B 75 08           mov         esi,dword ptr [ebp+8]
  004070E7: 85 F6              test        esi,esi
  004070E9: 74 21              je          0040710C
  004070EB: 81 FE 08 DF 40 00  cmp         esi,40DF08h
  004070F1: 74 19              je          0040710C
  004070F3: 8B 86 B0 00 00 00  mov         eax,dword ptr [esi+000000B0h]
  004070F9: 90                 nop
  004070FA: 85 C0              test        eax,eax
  004070FC: 75 0E              jne         0040710C
  004070FE: 56                 push        esi
  004070FF: E8 73 FB FF FF     call        00406C77
  00407104: 56                 push        esi
  00407105: E8 C1 DC FF FF     call        00404DCB
  0040710A: 59                 pop         ecx
  0040710B: 59                 pop         ecx
  0040710C: 5E                 pop         esi
  0040710D: 5D                 pop         ebp
  0040710E: C3                 ret
  0040710F: 8B FF              mov         edi,edi
  00407111: 55                 push        ebp
  00407112: 8B EC              mov         ebp,esp
  00407114: 8B 4D 08           mov         ecx,dword ptr [ebp+8]
  00407117: 85 C9              test        ecx,ecx
  00407119: 74 16              je          00407131
  0040711B: 81 F9 08 DF 40 00  cmp         ecx,40DF08h
  00407121: 74 0E              je          00407131
  00407123: 83 C8 FF           or          eax,0FFFFFFFFh
  00407126: F0 0F C1 81 B0 00  lock xadd   dword ptr [ecx+000000B0h],eax
            00 00
  0040712E: 48                 dec         eax
  0040712F: 5D                 pop         ebp
  00407130: C3                 ret
  00407131: B8 FF FF FF 7F     mov         eax,7FFFFFFFh
  00407136: 5D                 pop         ebp
  00407137: C3                 ret
  00407138: 8B FF              mov         edi,edi
  0040713A: 55                 push        ebp
  0040713B: 8B EC              mov         ebp,esp
  0040713D: 8B 45 08           mov         eax,dword ptr [ebp+8]
  00407140: 85 C0              test        eax,eax
  00407142: 74 73              je          004071B7
  00407144: F0 FF 48 0C        lock dec    dword ptr [eax+0Ch]
  00407148: 8B 48 7C           mov         ecx,dword ptr [eax+7Ch]
  0040714B: 85 C9              test        ecx,ecx
  0040714D: 74 03              je          00407152
  0040714F: F0 FF 09           lock dec    dword ptr [ecx]
  00407152: 8B 88 84 00 00 00  mov         ecx,dword ptr [eax+00000084h]
  00407158: 85 C9              test        ecx,ecx
  0040715A: 74 03              je          0040715F
  0040715C: F0 FF 09           lock dec    dword ptr [ecx]
  0040715F: 8B 88 80 00 00 00  mov         ecx,dword ptr [eax+00000080h]
  00407165: 85 C9              test        ecx,ecx
  00407167: 74 03              je          0040716C
  00407169: F0 FF 09           lock dec    dword ptr [ecx]
  0040716C: 8B 88 8C 00 00 00  mov         ecx,dword ptr [eax+0000008Ch]
  00407172: 85 C9              test        ecx,ecx
  00407174: 74 03              je          00407179
  00407176: F0 FF 09           lock dec    dword ptr [ecx]
  00407179: 56                 push        esi
  0040717A: 6A 06              push        6
  0040717C: 8D 48 28           lea         ecx,[eax+28h]
  0040717F: 5E                 pop         esi
  00407180: 81 79 F8 40 36 41  cmp         dword ptr [ecx-8],413640h
            00
  00407187: 74 09              je          00407192
  00407189: 8B 11              mov         edx,dword ptr [ecx]
  0040718B: 85 D2              test        edx,edx
  0040718D: 74 03              je          00407192
  0040718F: F0 FF 0A           lock dec    dword ptr [edx]
  00407192: 83 79 F4 00        cmp         dword ptr [ecx-0Ch],0
  00407196: 74 0A              je          004071A2
  00407198: 8B 51 FC           mov         edx,dword ptr [ecx-4]
  0040719B: 85 D2              test        edx,edx
  0040719D: 74 03              je          004071A2
  0040719F: F0 FF 0A           lock dec    dword ptr [edx]
  004071A2: 83 C1 10           add         ecx,10h
  004071A5: 83 EE 01           sub         esi,1
  004071A8: 75 D6              jne         00407180
  004071AA: FF B0 9C 00 00 00  push        dword ptr [eax+0000009Ch]
  004071B0: E8 5A FF FF FF     call        0040710F
  004071B5: 59                 pop         ecx
  004071B6: 5E                 pop         esi
  004071B7: 5D                 pop         ebp
  004071B8: C3                 ret
  004071B9: 6A 0C              push        0Ch
  004071BB: 68 78 21 41 00     push        412178h
  004071C0: E8 2B A6 FF FF     call        004017F0
  004071C5: 83 65 E4 00        and         dword ptr [ebp-1Ch],0
  004071C9: E8 D2 D6 FF FF     call        004048A0
  004071CE: 8B 0D A0 36 41 00  mov         ecx,dword ptr ds:[004136A0h]
  004071D4: 8D 78 4C           lea         edi,[eax+4Ch]
  004071D7: 85 88 50 03 00 00  test        dword ptr [eax+00000350h],ecx
  004071DD: 74 06              je          004071E5
  004071DF: 8B 37              mov         esi,dword ptr [edi]
  004071E1: 85 F6              test        esi,esi
  004071E3: 75 3D              jne         00407222
  004071E5: 6A 04              push        4
  004071E7: E8 D7 F3 FF FF     call        004065C3
  004071EC: 59                 pop         ecx
  004071ED: 83 65 FC 00        and         dword ptr [ebp-4],0
  004071F1: FF 35 74 41 41 00  push        dword ptr ds:[00414174h]
  004071F7: 57                 push        edi
  004071F8: E8 3D 00 00 00     call        0040723A
  004071FD: 59                 pop         ecx
  004071FE: 59                 pop         ecx
  004071FF: 8B F0              mov         esi,eax
  00407201: 89 75 E4           mov         dword ptr [ebp-1Ch],esi
  00407204: C7 45 FC FE FF FF  mov         dword ptr [ebp-4],0FFFFFFFEh
            FF
  0040720B: E8 09 00 00 00     call        00407219
  00407210: 85 F6              test        esi,esi
  00407212: 74 20              je          00407234
  00407214: EB 0C              jmp         00407222
  00407216: 8B 75 E4           mov         esi,dword ptr [ebp-1Ch]
  00407219: 6A 04              push        4
  0040721B: E8 EB F3 FF FF     call        0040660B
  00407220: 59                 pop         ecx
  00407221: C3                 ret
  00407222: 8B C6              mov         eax,esi
  00407224: 8B 4D F0           mov         ecx,dword ptr [ebp-10h]
  00407227: 64 89 0D 00 00 00  mov         dword ptr fs:[00000000h],ecx
            00
  0040722E: 59                 pop         ecx
  0040722F: 5F                 pop         edi
  00407230: 5E                 pop         esi
  00407231: 5B                 pop         ebx
  00407232: C9                 leave
  00407233: C3                 ret
  00407234: E8 9D D1 FF FF     call        004043D6
  00407239: CC                 int         3
  0040723A: 8B FF              mov         edi,edi
  0040723C: 55                 push        ebp
  0040723D: 8B EC              mov         ebp,esp
  0040723F: 56                 push        esi
  00407240: 8B 75 0C           mov         esi,dword ptr [ebp+0Ch]
  00407243: 57                 push        edi
  00407244: 85 F6              test        esi,esi
  00407246: 74 3C              je          00407284
  00407248: 8B 45 08           mov         eax,dword ptr [ebp+8]
  0040724B: 85 C0              test        eax,eax
  0040724D: 74 35              je          00407284
  0040724F: 8B 38              mov         edi,dword ptr [eax]
  00407251: 3B FE              cmp         edi,esi
  00407253: 75 04              jne         00407259
  00407255: 8B C6              mov         eax,esi
  00407257: EB 2D              jmp         00407286
  00407259: 56                 push        esi
  0040725A: 89 30              mov         dword ptr [eax],esi
  0040725C: E8 8F FC FF FF     call        00406EF0
  00407261: 59                 pop         ecx
  00407262: 85 FF              test        edi,edi
  00407264: 74 EF              je          00407255
  00407266: 57                 push        edi
  00407267: E8 CC FE FF FF     call        00407138
  0040726C: 83 7F 0C 00        cmp         dword ptr [edi+0Ch],0
  00407270: 59                 pop         ecx
  00407271: 75 E2              jne         00407255
  00407273: 81 FF 80 35 41 00  cmp         edi,413580h
  00407279: 74 DA              je          00407255
  0040727B: 57                 push        edi
  0040727C: E8 EC FC FF FF     call        00406F6D
  00407281: 59                 pop         ecx
  00407282: EB D1              jmp         00407255
  00407284: 33 C0              xor         eax,eax
  00407286: 5F                 pop         edi
  00407287: 5E                 pop         esi
  00407288: 5D                 pop         ebp
  00407289: C3                 ret
  0040728A: 68 4C EE 40 00     push        40EE4Ch
  0040728F: 68 48 EE 40 00     push        40EE48h
  00407294: 68 4C EE 40 00     push        40EE4Ch
  00407299: 6A 00              push        0
  0040729B: E8 19 01 00 00     call        004073B9
  004072A0: 83 C4 10           add         esp,10h
  004072A3: C3                 ret
  004072A4: 68 64 EE 40 00     push        40EE64h
  004072A9: 68 5C EE 40 00     push        40EE5Ch
  004072AE: 68 64 EE 40 00     push        40EE64h
  004072B3: 6A 01              push        1
  004072B5: E8 FF 00 00 00     call        004073B9
  004072BA: 83 C4 10           add         esp,10h
  004072BD: C3                 ret
  004072BE: 68 A4 EE 40 00     push        40EEA4h
  004072C3: 68 9C EE 40 00     push        40EE9Ch
  004072C8: 68 A4 EE 40 00     push        40EEA4h
  004072CD: 6A 14              push        14h
  004072CF: E8 E5 00 00 00     call        004073B9
  004072D4: 83 C4 10           add         esp,10h
  004072D7: C3                 ret
  004072D8: 68 BC EE 40 00     push        40EEBCh
  004072DD: 68 B4 EE 40 00     push        40EEB4h
  004072E2: 68 BC EE 40 00     push        40EEBCh
  004072E7: 6A 16              push        16h
  004072E9: E8 CB 00 00 00     call        004073B9
  004072EE: 83 C4 10           add         esp,10h
  004072F1: C3                 ret
  004072F2: 8B FF              mov         edi,edi
  004072F4: 55                 push        ebp
  004072F5: 8B EC              mov         ebp,esp
  004072F7: 51                 push        ecx
  004072F8: 53                 push        ebx
  004072F9: 56                 push        esi
  004072FA: 57                 push        edi
  004072FB: 8B 7D 08           mov         edi,dword ptr [ebp+8]
  004072FE: E9 A2 00 00 00     jmp         004073A5
  00407303: 8B 1F              mov         ebx,dword ptr [edi]
  00407305: 8D 04 9D 78 41 41  lea         eax,[ebx*4+00414178h]
            00
  0040730C: 8B 30              mov         esi,dword ptr [eax]
  0040730E: 89 45 FC           mov         dword ptr [ebp-4],eax
  00407311: 90                 nop
  00407312: 85 F6              test        esi,esi
  00407314: 74 0B              je          00407321
  00407316: 83 FE FF           cmp         esi,0FFFFFFFFh
  00407319: 0F 84 83 00 00 00  je          004073A2
  0040731F: EB 7D              jmp         0040739E
  00407321: 8B 1C 9D D0 E9 40  mov         ebx,dword ptr [ebx*4+0040E9D0h]
            00
  00407328: 68 00 08 00 00     push        800h
  0040732D: 6A 00              push        0
  0040732F: 53                 push        ebx
  00407330: FF 15 6C D0 40 00  call        dword ptr ds:[0040D06Ch]
  00407336: 8B F0              mov         esi,eax
  00407338: 85 F6              test        esi,esi
  0040733A: 75 50              jne         0040738C
  0040733C: FF 15 3C D0 40 00  call        dword ptr ds:[0040D03Ch]
  00407342: 83 F8 57           cmp         eax,57h
  00407345: 75 35              jne         0040737C
  00407347: 6A 07              push        7
  00407349: 68 98 DB 40 00     push        40DB98h
  0040734E: 53                 push        ebx
  0040734F: E8 D4 D1 FF FF     call        00404528
  00407354: 83 C4 0C           add         esp,0Ch
  00407357: 85 C0              test        eax,eax
  00407359: 74 21              je          0040737C
  0040735B: 6A 07              push        7
  0040735D: 68 38 EE 40 00     push        40EE38h
  00407362: 53                 push        ebx
  00407363: E8 C0 D1 FF FF     call        00404528
  00407368: 83 C4 0C           add         esp,0Ch
  0040736B: 85 C0              test        eax,eax
  0040736D: 74 0D              je          0040737C
  0040736F: 56                 push        esi
  00407370: 56                 push        esi
  00407371: 53                 push        ebx
  00407372: FF 15 6C D0 40 00  call        dword ptr ds:[0040D06Ch]
  00407378: 8B F0              mov         esi,eax
  0040737A: EB 02              jmp         0040737E
  0040737C: 33 F6              xor         esi,esi
  0040737E: 85 F6              test        esi,esi
  00407380: 75 0A              jne         0040738C
  00407382: 8B 4D FC           mov         ecx,dword ptr [ebp-4]
  00407385: 83 C8 FF           or          eax,0FFFFFFFFh
  00407388: 87 01              xchg        eax,dword ptr [ecx]
  0040738A: EB 16              jmp         004073A2
  0040738C: 8B 4D FC           mov         ecx,dword ptr [ebp-4]
  0040738F: 8B C6              mov         eax,esi
  00407391: 87 01              xchg        eax,dword ptr [ecx]
  00407393: 85 C0              test        eax,eax
  00407395: 74 07              je          0040739E
  00407397: 56                 push        esi
  00407398: FF 15 64 D0 40 00  call        dword ptr ds:[0040D064h]
  0040739E: 85 F6              test        esi,esi
  004073A0: 75 13              jne         004073B5
  004073A2: 83 C7 04           add         edi,4
  004073A5: 3B 7D 0C           cmp         edi,dword ptr [ebp+0Ch]
  004073A8: 0F 85 55 FF FF FF  jne         00407303
  004073AE: 33 C0              xor         eax,eax
  004073B0: 5F                 pop         edi
  004073B1: 5E                 pop         esi
  004073B2: 5B                 pop         ebx
  004073B3: C9                 leave
  004073B4: C3                 ret
  004073B5: 8B C6              mov         eax,esi
  004073B7: EB F7              jmp         004073B0
  004073B9: 8B FF              mov         edi,edi
  004073BB: 55                 push        ebp
  004073BC: 8B EC              mov         ebp,esp
  004073BE: 8B 45 08           mov         eax,dword ptr [ebp+8]
  004073C1: 53                 push        ebx
  004073C2: 57                 push        edi
  004073C3: 8D 1C 85 C8 41 41  lea         ebx,[eax*4+004141C8h]
            00
  004073CA: 8B 03              mov         eax,dword ptr [ebx]
  004073CC: 90                 nop
  004073CD: 8B 15 18 30 41 00  mov         edx,dword ptr ds:[00413018h]
  004073D3: 83 CF FF           or          edi,0FFFFFFFFh
  004073D6: 8B CA              mov         ecx,edx
  004073D8: 33 D0              xor         edx,eax
  004073DA: 83 E1 1F           and         ecx,1Fh
  004073DD: D3 CA              ror         edx,cl
  004073DF: 3B D7              cmp         edx,edi
  004073E1: 75 04              jne         004073E7
  004073E3: 33 C0              xor         eax,eax
  004073E5: EB 51              jmp         00407438
  004073E7: 85 D2              test        edx,edx
  004073E9: 74 04              je          004073EF
  004073EB: 8B C2              mov         eax,edx
  004073ED: EB 49              jmp         00407438
  004073EF: 56                 push        esi
  004073F0: FF 75 14           push        dword ptr [ebp+14h]
  004073F3: FF 75 10           push        dword ptr [ebp+10h]
  004073F6: E8 F7 FE FF FF     call        004072F2
  004073FB: 59                 pop         ecx
  004073FC: 59                 pop         ecx
  004073FD: 85 C0              test        eax,eax
  004073FF: 74 1D              je          0040741E
  00407401: FF 75 0C           push        dword ptr [ebp+0Ch]
  00407404: 50                 push        eax
  00407405: FF 15 68 D0 40 00  call        dword ptr ds:[0040D068h]
  0040740B: 8B F0              mov         esi,eax
  0040740D: 85 F6              test        esi,esi
  0040740F: 74 0D              je          0040741E
  00407411: 56                 push        esi
  00407412: E8 EA BE FF FF     call        00403301
  00407417: 59                 pop         ecx
  00407418: 87 03              xchg        eax,dword ptr [ebx]
  0040741A: 8B C6              mov         eax,esi
  0040741C: EB 19              jmp         00407437
  0040741E: A1 18 30 41 00     mov         eax,dword ptr ds:[00413018h]
  00407423: 6A 20              push        20h
  00407425: 83 E0 1F           and         eax,1Fh
  00407428: 59                 pop         ecx
  00407429: 2B C8              sub         ecx,eax
  0040742B: D3 CF              ror         edi,cl
  0040742D: 33 3D 18 30 41 00  xor         edi,dword ptr ds:[00413018h]
  00407433: 87 3B              xchg        edi,dword ptr [ebx]
  00407435: 33 C0              xor         eax,eax
  00407437: 5E                 pop         esi
  00407438: 5F                 pop         edi
  00407439: 5B                 pop         ebx
  0040743A: 5D                 pop         ebp
  0040743B: C3                 ret
  0040743C: 8B FF              mov         edi,edi
  0040743E: 55                 push        ebp
  0040743F: 8B EC              mov         ebp,esp
  00407441: 56                 push        esi
  00407442: 68 D4 EE 40 00     push        40EED4h
  00407447: 68 D0 EE 40 00     push        40EED0h
  0040744C: 68 D4 EE 40 00     push        40EED4h
  00407451: 6A 1C              push        1Ch
  00407453: E8 61 FF FF FF     call        004073B9
  00407458: 8B F0              mov         esi,eax
  0040745A: 83 C4 10           add         esp,10h
  0040745D: 85 F6              test        esi,esi
  0040745F: 74 11              je          00407472
  00407461: FF 75 08           push        dword ptr [ebp+8]
  00407464: 8B CE              mov         ecx,esi
  00407466: 6A FA              push        0FFFFFFFAh
  00407468: FF 15 08 D1 40 00  call        dword ptr ds:[0040D108h]
  0040746E: FF D6              call        esi
  00407470: EB 05              jmp         00407477
  00407472: B8 25 02 00 C0     mov         eax,0C0000225h
  00407477: 5E                 pop         esi
  00407478: 5D                 pop         ebp
  00407479: C2 04 00           ret         4
  0040747C: 8B FF              mov         edi,edi
  0040747E: 56                 push        esi
  0040747F: E8 06 FE FF FF     call        0040728A
  00407484: 8B F0              mov         esi,eax
  00407486: 85 F6              test        esi,esi
  00407488: 74 0C              je          00407496
  0040748A: 8B CE              mov         ecx,esi
  0040748C: FF 15 08 D1 40 00  call        dword ptr ds:[0040D108h]
  00407492: FF D6              call        esi
  00407494: 5E                 pop         esi
  00407495: C3                 ret
  00407496: 33 C0              xor         eax,eax
  00407498: 40                 inc         eax
  00407499: 5E                 pop         esi
  0040749A: C3                 ret
  0040749B: 8B FF              mov         edi,edi
  0040749D: 55                 push        ebp
  0040749E: 8B EC              mov         ebp,esp
  004074A0: 56                 push        esi
  004074A1: E8 FE FD FF FF     call        004072A4
  004074A6: 8B F0              mov         esi,eax
  004074A8: 85 F6              test        esi,esi
  004074AA: 74 27              je          004074D3
  004074AC: FF 75 28           push        dword ptr [ebp+28h]
  004074AF: 8B CE              mov         ecx,esi
  004074B1: FF 75 24           push        dword ptr [ebp+24h]
  004074B4: FF 75 20           push        dword ptr [ebp+20h]
  004074B7: FF 75 1C           push        dword ptr [ebp+1Ch]
  004074BA: FF 75 18           push        dword ptr [ebp+18h]
  004074BD: FF 75 14           push        dword ptr [ebp+14h]
  004074C0: FF 75 10           push        dword ptr [ebp+10h]
  004074C3: FF 75 0C           push        dword ptr [ebp+0Ch]
  004074C6: FF 75 08           push        dword ptr [ebp+8]
  004074C9: FF 15 08 D1 40 00  call        dword ptr ds:[0040D108h]
  004074CF: FF D6              call        esi
  004074D1: EB 20              jmp         004074F3
  004074D3: FF 75 1C           push        dword ptr [ebp+1Ch]
  004074D6: FF 75 18           push        dword ptr [ebp+18h]
  004074D9: FF 75 14           push        dword ptr [ebp+14h]
  004074DC: FF 75 10           push        dword ptr [ebp+10h]
  004074DF: FF 75 0C           push        dword ptr [ebp+0Ch]
  004074E2: 6A 00              push        0
  004074E4: FF 75 08           push        dword ptr [ebp+8]
  004074E7: E8 B3 01 00 00     call        0040769F
  004074EC: 50                 push        eax
  004074ED: FF 15 D4 D0 40 00  call        dword ptr ds:[0040D0D4h]
  004074F3: 5E                 pop         esi
  004074F4: 5D                 pop         ebp
  004074F5: C2 24 00           ret         24h
  004074F8: 8B FF              mov         edi,edi
  004074FA: 55                 push        ebp
  004074FB: 8B EC              mov         ebp,esp
  004074FD: 56                 push        esi
  004074FE: 68 7C EE 40 00     push        40EE7Ch
  00407503: 68 74 EE 40 00     push        40EE74h
  00407508: 68 B0 DB 40 00     push        40DBB0h
  0040750D: 6A 03              push        3
  0040750F: E8 A5 FE FF FF     call        004073B9
  00407514: 8B F0              mov         esi,eax
  00407516: 83 C4 10           add         esp,10h
  00407519: 85 F6              test        esi,esi
  0040751B: 74 0F              je          0040752C
  0040751D: FF 75 08           push        dword ptr [ebp+8]
  00407520: 8B CE              mov         ecx,esi
  00407522: FF 15 08 D1 40 00  call        dword ptr ds:[0040D108h]
  00407528: FF D6              call        esi
  0040752A: EB 06              jmp         00407532
  0040752C: FF 15 54 D0 40 00  call        dword ptr ds:[0040D054h]
  00407532: 5E                 pop         esi
  00407533: 5D                 pop         ebp
  00407534: C2 04 00           ret         4
  00407537: 8B FF              mov         edi,edi
  00407539: 55                 push        ebp
  0040753A: 8B EC              mov         ebp,esp
  0040753C: 56                 push        esi
  0040753D: 68 84 EE 40 00     push        40EE84h
  00407542: 68 7C EE 40 00     push        40EE7Ch
  00407547: 68 C4 DB 40 00     push        40DBC4h
  0040754C: 6A 04              push        4
  0040754E: E8 66 FE FF FF     call        004073B9
  00407553: 8B F0              mov         esi,eax
  00407555: 83 C4 10           add         esp,10h
  00407558: 85 F6              test        esi,esi
  0040755A: 74 12              je          0040756E
  0040755C: FF 75 08           push        dword ptr [ebp+8]
  0040755F: 8B CE              mov         ecx,esi
  00407561: FF 15 08 D1 40 00  call        dword ptr ds:[0040D108h]
  00407567: FF D6              call        esi
  00407569: 5E                 pop         esi
  0040756A: 5D                 pop         ebp
  0040756B: C2 04 00           ret         4
  0040756E: 5E                 pop         esi
  0040756F: 5D                 pop         ebp
  00407570: FF 25 60 D0 40 00  jmp         dword ptr ds:[0040D060h]
  00407576: 8B FF              mov         edi,edi
  00407578: 55                 push        ebp
  00407579: 8B EC              mov         ebp,esp
  0040757B: 56                 push        esi
  0040757C: 68 8C EE 40 00     push        40EE8Ch
  00407581: 68 84 EE 40 00     push        40EE84h
  00407586: 68 D4 DB 40 00     push        40DBD4h
  0040758B: 6A 05              push        5
  0040758D: E8 27 FE FF FF     call        004073B9
  00407592: 8B F0              mov         esi,eax
  00407594: 83 C4 10           add         esp,10h
  00407597: 85 F6              test        esi,esi
  00407599: 74 12              je          004075AD
  0040759B: FF 75 08           push        dword ptr [ebp+8]
  0040759E: 8B CE              mov         ecx,esi
  004075A0: FF 15 08 D1 40 00  call        dword ptr ds:[0040D108h]
  004075A6: FF D6              call        esi
  004075A8: 5E                 pop         esi
  004075A9: 5D                 pop         ebp
  004075AA: C2 04 00           ret         4
  004075AD: 5E                 pop         esi
  004075AE: 5D                 pop         ebp
  004075AF: FF 25 58 D0 40 00  jmp         dword ptr ds:[0040D058h]
  004075B5: 8B FF              mov         edi,edi
  004075B7: 55                 push        ebp
  004075B8: 8B EC              mov         ebp,esp
  004075BA: 56                 push        esi
  004075BB: 68 94 EE 40 00     push        40EE94h
  004075C0: 68 8C EE 40 00     push        40EE8Ch
  004075C5: 68 E8 DB 40 00     push        40DBE8h
  004075CA: 6A 06              push        6
  004075CC: E8 E8 FD FF FF     call        004073B9
  004075D1: 8B F0              mov         esi,eax
  004075D3: 83 C4 10           add         esp,10h
  004075D6: 85 F6              test        esi,esi
  004075D8: 74 15              je          004075EF
  004075DA: FF 75 0C           push        dword ptr [ebp+0Ch]
  004075DD: 8B CE              mov         ecx,esi
  004075DF: FF 75 08           push        dword ptr [ebp+8]
  004075E2: FF 15 08 D1 40 00  call        dword ptr ds:[0040D108h]
  004075E8: FF D6              call        esi
  004075EA: 5E                 pop         esi
  004075EB: 5D                 pop         ebp
  004075EC: C2 08 00           ret         8
  004075EF: 5E                 pop         esi
  004075F0: 5D                 pop         ebp
  004075F1: FF 25 5C D0 40 00  jmp         dword ptr ds:[0040D05Ch]
  004075F7: 8B FF              mov         edi,edi
  004075F9: 55                 push        ebp
  004075FA: 8B EC              mov         ebp,esp
  004075FC: 56                 push        esi
  004075FD: 68 9C EE 40 00     push        40EE9Ch
  00407602: 68 94 EE 40 00     push        40EE94h
  00407607: 68 FC DB 40 00     push        40DBFCh
  0040760C: 6A 12              push        12h
  0040760E: E8 A6 FD FF FF     call        004073B9
  00407613: 8B F0              mov         esi,eax
  00407615: 83 C4 10           add         esp,10h
  00407618: 85 F6              test        esi,esi
  0040761A: 74 15              je          00407631
  0040761C: FF 75 10           push        dword ptr [ebp+10h]
  0040761F: 8B CE              mov         ecx,esi
  00407621: FF 75 0C           push        dword ptr [ebp+0Ch]
  00407624: FF 75 08           push        dword ptr [ebp+8]
  00407627: FF 15 08 D1 40 00  call        dword ptr ds:[0040D108h]
  0040762D: FF D6              call        esi
  0040762F: EB 0C              jmp         0040763D
  00407631: FF 75 0C           push        dword ptr [ebp+0Ch]
  00407634: FF 75 08           push        dword ptr [ebp+8]
  00407637: FF 15 50 D0 40 00  call        dword ptr ds:[0040D050h]
  0040763D: 5E                 pop         esi
  0040763E: 5D                 pop         ebp
  0040763F: C2 0C 00           ret         0Ch
  00407642: 8B FF              mov         edi,edi
  00407644: 55                 push        ebp
  00407645: 8B EC              mov         ebp,esp
  00407647: 56                 push        esi
  00407648: E8 71 FC FF FF     call        004072BE
  0040764D: 8B F0              mov         esi,eax
  0040764F: 85 F6              test        esi,esi
  00407651: 74 27              je          0040767A
  00407653: FF 75 28           push        dword ptr [ebp+28h]
  00407656: 8B CE              mov         ecx,esi
  00407658: FF 75 24           push        dword ptr [ebp+24h]
  0040765B: FF 75 20           push        dword ptr [ebp+20h]
  0040765E: FF 75 1C           push        dword ptr [ebp+1Ch]
  00407661: FF 75 18           push        dword ptr [ebp+18h]
  00407664: FF 75 14           push        dword ptr [ebp+14h]
  00407667: FF 75 10           push        dword ptr [ebp+10h]
  0040766A: FF 75 0C           push        dword ptr [ebp+0Ch]
  0040766D: FF 75 08           push        dword ptr [ebp+8]
  00407670: FF 15 08 D1 40 00  call        dword ptr ds:[0040D108h]
  00407676: FF D6              call        esi
  00407678: EB 20              jmp         0040769A
  0040767A: FF 75 1C           push        dword ptr [ebp+1Ch]
  0040767D: FF 75 18           push        dword ptr [ebp+18h]
  00407680: FF 75 14           push        dword ptr [ebp+14h]
  00407683: FF 75 10           push        dword ptr [ebp+10h]
  00407686: FF 75 0C           push        dword ptr [ebp+0Ch]
  00407689: 6A 00              push        0
  0040768B: FF 75 08           push        dword ptr [ebp+8]
  0040768E: E8 0C 00 00 00     call        0040769F
  00407693: 50                 push        eax
  00407694: FF 15 D8 D0 40 00  call        dword ptr ds:[0040D0D8h]
  0040769A: 5E                 pop         esi
  0040769B: 5D                 pop         ebp
  0040769C: C2 24 00           ret         24h
  0040769F: 8B FF              mov         edi,edi
  004076A1: 55                 push        ebp
  004076A2: 8B EC              mov         ebp,esp
  004076A4: 56                 push        esi
  004076A5: E8 2E FC FF FF     call        004072D8
  004076AA: 8B F0              mov         esi,eax
  004076AC: 85 F6              test        esi,esi
  004076AE: 74 12              je          004076C2
  004076B0: FF 75 0C           push        dword ptr [ebp+0Ch]
  004076B3: 8B CE              mov         ecx,esi
  004076B5: FF 75 08           push        dword ptr [ebp+8]
  004076B8: FF 15 08 D1 40 00  call        dword ptr ds:[0040D108h]
  004076BE: FF D6              call        esi
  004076C0: EB 09              jmp         004076CB
  004076C2: FF 75 08           push        dword ptr [ebp+8]
  004076C5: E8 D1 19 00 00     call        0040909B
  004076CA: 59                 pop         ecx
  004076CB: 5E                 pop         esi
  004076CC: 5D                 pop         ebp
  004076CD: C2 08 00           ret         8
  004076D0: B9 50 42 41 00     mov         ecx,414250h
  004076D5: B8 C8 41 41 00     mov         eax,4141C8h
  004076DA: 33 D2              xor         edx,edx
  004076DC: 3B C8              cmp         ecx,eax
  004076DE: 56                 push        esi
  004076DF: 8B 35 18 30 41 00  mov         esi,dword ptr ds:[00413018h]
  004076E5: 1B C9              sbb         ecx,ecx
  004076E7: 83 E1 DE           and         ecx,0FFFFFFDEh
  004076EA: 83 C1 22           add         ecx,22h
  004076ED: 42                 inc         edx
  004076EE: 89 30              mov         dword ptr [eax],esi
  004076F0: 8D 40 04           lea         eax,[eax+4]
  004076F3: 3B D1              cmp         edx,ecx
  004076F5: 75 F6              jne         004076ED
  004076F7: B0 01              mov         al,1
  004076F9: 5E                 pop         esi
  004076FA: C3                 ret
  004076FB: 8B FF              mov         edi,edi
  004076FD: 55                 push        ebp
  004076FE: 8B EC              mov         ebp,esp
  00407700: 80 7D 08 00        cmp         byte ptr [ebp+8],0
  00407704: 75 27              jne         0040772D
  00407706: 56                 push        esi
  00407707: BE 78 41 41 00     mov         esi,414178h
  0040770C: 83 3E 00           cmp         dword ptr [esi],0
  0040770F: 74 10              je          00407721
  00407711: 83 3E FF           cmp         dword ptr [esi],0FFFFFFFFh
  00407714: 74 08              je          0040771E
  00407716: FF 36              push        dword ptr [esi]
  00407718: FF 15 64 D0 40 00  call        dword ptr ds:[0040D064h]
  0040771E: 83 26 00           and         dword ptr [esi],0
  00407721: 83 C6 04           add         esi,4
  00407724: 81 FE C8 41 41 00  cmp         esi,4141C8h
  0040772A: 75 E0              jne         0040770C
  0040772C: 5E                 pop         esi
  0040772D: B0 01              mov         al,1
  0040772F: 5D                 pop         ebp
  00407730: C3                 ret
  00407731: 8B FF              mov         edi,edi
  00407733: 55                 push        ebp
  00407734: 8B EC              mov         ebp,esp
  00407736: 56                 push        esi
  00407737: 8B 75 0C           mov         esi,dword ptr [ebp+0Ch]
  0040773A: 85 F6              test        esi,esi
  0040773C: 74 1B              je          00407759
  0040773E: 6A E0              push        0FFFFFFE0h
  00407740: 33 D2              xor         edx,edx
  00407742: 58                 pop         eax
  00407743: F7 F6              div         eax,esi
  00407745: 3B 45 10           cmp         eax,dword ptr [ebp+10h]
  00407748: 73 0F              jae         00407759
  0040774A: E8 0C D6 FF FF     call        00404D5B
  0040774F: C7 00 0C 00 00 00  mov         dword ptr [eax],0Ch
  00407755: 33 C0              xor         eax,eax
  00407757: EB 42              jmp         0040779B
  00407759: 53                 push        ebx
  0040775A: 8B 5D 08           mov         ebx,dword ptr [ebp+8]
  0040775D: 57                 push        edi
  0040775E: 85 DB              test        ebx,ebx
  00407760: 74 0B              je          0040776D
  00407762: 53                 push        ebx
  00407763: E8 5F 19 00 00     call        004090C7
  00407768: 59                 pop         ecx
  00407769: 8B F8              mov         edi,eax
  0040776B: EB 02              jmp         0040776F
  0040776D: 33 FF              xor         edi,edi
  0040776F: 0F AF 75 10        imul        esi,dword ptr [ebp+10h]
  00407773: 56                 push        esi
  00407774: 53                 push        ebx
  00407775: E8 80 19 00 00     call        004090FA
  0040777A: 8B D8              mov         ebx,eax
  0040777C: 59                 pop         ecx
  0040777D: 59                 pop         ecx
  0040777E: 85 DB              test        ebx,ebx
  00407780: 74 15              je          00407797
  00407782: 3B FE              cmp         edi,esi
  00407784: 73 11              jae         00407797
  00407786: 2B F7              sub         esi,edi
  00407788: 8D 04 3B           lea         eax,[ebx+edi]
  0040778B: 56                 push        esi
  0040778C: 6A 00              push        0
  0040778E: 50                 push        eax
  0040778F: E8 BC A6 FF FF     call        00401E50
  00407794: 83 C4 0C           add         esp,0Ch
  00407797: 5F                 pop         edi
  00407798: 8B C3              mov         eax,ebx
  0040779A: 5B                 pop         ebx
  0040779B: 5E                 pop         esi
  0040779C: 5D                 pop         ebp
  0040779D: C3                 ret
  0040779E: FF 15 DC D0 40 00  call        dword ptr ds:[0040D0DCh]
  004077A4: 85 C0              test        eax,eax
  004077A6: A3 58 42 41 00     mov         dword ptr ds:[00414258h],eax
  004077AB: 0F 95 C0           setne       al
  004077AE: C3                 ret
  004077AF: 83 25 58 42 41 00  and         dword ptr ds:[00414258h],0
            00
  004077B6: B0 01              mov         al,1
  004077B8: C3                 ret
  004077B9: 8B FF              mov         edi,edi
  004077BB: 55                 push        ebp
  004077BC: 8B EC              mov         ebp,esp
  004077BE: 53                 push        ebx
  004077BF: 56                 push        esi
  004077C0: 57                 push        edi
  004077C1: 8B 7D 08           mov         edi,dword ptr [ebp+8]
  004077C4: 3B 7D 0C           cmp         edi,dword ptr [ebp+0Ch]
  004077C7: 74 51              je          0040781A
  004077C9: 8B F7              mov         esi,edi
  004077CB: 8B 1E              mov         ebx,dword ptr [esi]
  004077CD: 85 DB              test        ebx,ebx
  004077CF: 74 0E              je          004077DF
  004077D1: 8B CB              mov         ecx,ebx
  004077D3: FF 15 08 D1 40 00  call        dword ptr ds:[0040D108h]
  004077D9: FF D3              call        ebx
  004077DB: 84 C0              test        al,al
  004077DD: 74 08              je          004077E7
  004077DF: 83 C6 08           add         esi,8
  004077E2: 3B 75 0C           cmp         esi,dword ptr [ebp+0Ch]
  004077E5: 75 E4              jne         004077CB
  004077E7: 3B 75 0C           cmp         esi,dword ptr [ebp+0Ch]
  004077EA: 74 2E              je          0040781A
  004077EC: 3B F7              cmp         esi,edi
  004077EE: 74 26              je          00407816
  004077F0: 83 C6 FC           add         esi,0FFFFFFFCh
  004077F3: 83 7E FC 00        cmp         dword ptr [esi-4],0
  004077F7: 74 13              je          0040780C
  004077F9: 8B 1E              mov         ebx,dword ptr [esi]
  004077FB: 85 DB              test        ebx,ebx
  004077FD: 74 0D              je          0040780C
  004077FF: 6A 00              push        0
  00407801: 8B CB              mov         ecx,ebx
  00407803: FF 15 08 D1 40 00  call        dword ptr ds:[0040D108h]
  00407809: FF D3              call        ebx
  0040780B: 59                 pop         ecx
  0040780C: 83 EE 08           sub         esi,8
  0040780F: 8D 46 04           lea         eax,[esi+4]
  00407812: 3B C7              cmp         eax,edi
  00407814: 75 DD              jne         004077F3
  00407816: 32 C0              xor         al,al
  00407818: EB 02              jmp         0040781C
  0040781A: B0 01              mov         al,1
  0040781C: 5F                 pop         edi
  0040781D: 5E                 pop         esi
  0040781E: 5B                 pop         ebx
  0040781F: 5D                 pop         ebp
  00407820: C3                 ret
  00407821: 8B FF              mov         edi,edi
  00407823: 55                 push        ebp
  00407824: 8B EC              mov         ebp,esp
  00407826: 56                 push        esi
  00407827: 8B 75 0C           mov         esi,dword ptr [ebp+0Ch]
  0040782A: 39 75 08           cmp         dword ptr [ebp+8],esi
  0040782D: 74 1E              je          0040784D
  0040782F: 57                 push        edi
  00407830: 8B 7E FC           mov         edi,dword ptr [esi-4]
  00407833: 85 FF              test        edi,edi
  00407835: 74 0D              je          00407844
  00407837: 6A 00              push        0
  00407839: 8B CF              mov         ecx,edi
  0040783B: FF 15 08 D1 40 00  call        dword ptr ds:[0040D108h]
  00407841: FF D7              call        edi
  00407843: 59                 pop         ecx
  00407844: 83 EE 08           sub         esi,8
  00407847: 3B 75 08           cmp         esi,dword ptr [ebp+8]
  0040784A: 75 E4              jne         00407830
  0040784C: 5F                 pop         edi
  0040784D: B0 01              mov         al,1
  0040784F: 5E                 pop         esi
  00407850: 5D                 pop         ebp
  00407851: C3                 ret
  00407852: 8B FF              mov         edi,edi
  00407854: 55                 push        ebp
  00407855: 8B EC              mov         ebp,esp
  00407857: 8B 45 08           mov         eax,dword ptr [ebp+8]
  0040785A: A3 5C 42 41 00     mov         dword ptr ds:[0041425Ch],eax
  0040785F: 5D                 pop         ebp
  00407860: C3                 ret
  00407861: 8B FF              mov         edi,edi
  00407863: 55                 push        ebp
  00407864: 8B EC              mov         ebp,esp
  00407866: 56                 push        esi
  00407867: E8 22 00 00 00     call        0040788E
  0040786C: 8B F0              mov         esi,eax
  0040786E: 85 F6              test        esi,esi
  00407870: 74 17              je          00407889
  00407872: FF 75 08           push        dword ptr [ebp+8]
  00407875: 8B CE              mov         ecx,esi
  00407877: FF 15 08 D1 40 00  call        dword ptr ds:[0040D108h]
  0040787D: FF D6              call        esi
  0040787F: 59                 pop         ecx
  00407880: 85 C0              test        eax,eax
  00407882: 74 05              je          00407889
  00407884: 33 C0              xor         eax,eax
  00407886: 40                 inc         eax
  00407887: EB 02              jmp         0040788B
  00407889: 33 C0              xor         eax,eax
  0040788B: 5E                 pop         esi
  0040788C: 5D                 pop         ebp
  0040788D: C3                 ret
  0040788E: 6A 0C              push        0Ch
  00407890: 68 98 21 41 00     push        412198h
  00407895: E8 56 9F FF FF     call        004017F0
  0040789A: 83 65 E4 00        and         dword ptr [ebp-1Ch],0
  0040789E: 6A 00              push        0
  004078A0: E8 1E ED FF FF     call        004065C3
  004078A5: 59                 pop         ecx
  004078A6: 83 65 FC 00        and         dword ptr [ebp-4],0
  004078AA: 8B 35 18 30 41 00  mov         esi,dword ptr ds:[00413018h]
  004078B0: 8B CE              mov         ecx,esi
  004078B2: 83 E1 1F           and         ecx,1Fh
  004078B5: 33 35 5C 42 41 00  xor         esi,dword ptr ds:[0041425Ch]
  004078BB: D3 CE              ror         esi,cl
  004078BD: 89 75 E4           mov         dword ptr [ebp-1Ch],esi
  004078C0: C7 45 FC FE FF FF  mov         dword ptr [ebp-4],0FFFFFFFEh
            FF
  004078C7: E8 15 00 00 00     call        004078E1
  004078CC: 8B C6              mov         eax,esi
  004078CE: 8B 4D F0           mov         ecx,dword ptr [ebp-10h]
  004078D1: 64 89 0D 00 00 00  mov         dword ptr fs:[00000000h],ecx
            00
  004078D8: 59                 pop         ecx
  004078D9: 5F                 pop         edi
  004078DA: 5E                 pop         esi
  004078DB: 5B                 pop         ebx
  004078DC: C9                 leave
  004078DD: C3                 ret
  004078DE: 8B 75 E4           mov         esi,dword ptr [ebp-1Ch]
  004078E1: 6A 00              push        0
  004078E3: E8 23 ED FF FF     call        0040660B
  004078E8: 59                 pop         ecx
  004078E9: C3                 ret
  004078EA: 6A 0C              push        0Ch
  004078EC: 68 D8 21 41 00     push        4121D8h
  004078F1: E8 FA 9E FF FF     call        004017F0
  004078F6: 83 65 E4 00        and         dword ptr [ebp-1Ch],0
  004078FA: 8B 45 08           mov         eax,dword ptr [ebp+8]
  004078FD: FF 30              push        dword ptr [eax]
  004078FF: E8 BF EC FF FF     call        004065C3
  00407904: 59                 pop         ecx
  00407905: 83 65 FC 00        and         dword ptr [ebp-4],0
  00407909: 8B 35 18 30 41 00  mov         esi,dword ptr ds:[00413018h]
  0040790F: 8B CE              mov         ecx,esi
  00407911: 83 E1 1F           and         ecx,1Fh
  00407914: 33 35 68 42 41 00  xor         esi,dword ptr ds:[00414268h]
  0040791A: D3 CE              ror         esi,cl
  0040791C: 89 75 E4           mov         dword ptr [ebp-1Ch],esi
  0040791F: C7 45 FC FE FF FF  mov         dword ptr [ebp-4],0FFFFFFFEh
            FF
  00407926: E8 17 00 00 00     call        00407942
  0040792B: 8B C6              mov         eax,esi
  0040792D: 8B 4D F0           mov         ecx,dword ptr [ebp-10h]
  00407930: 64 89 0D 00 00 00  mov         dword ptr fs:[00000000h],ecx
            00
  00407937: 59                 pop         ecx
  00407938: 5F                 pop         edi
  00407939: 5E                 pop         esi
  0040793A: 5B                 pop         ebx
  0040793B: C9                 leave
  0040793C: C2 0C 00           ret         0Ch
  0040793F: 8B 75 E4           mov         esi,dword ptr [ebp-1Ch]
  00407942: 8B 4D 10           mov         ecx,dword ptr [ebp+10h]
  00407945: FF 31              push        dword ptr [ecx]
  00407947: E8 BF EC FF FF     call        0040660B
  0040794C: 59                 pop         ecx
  0040794D: C3                 ret
  0040794E: 8B FF              mov         edi,edi
  00407950: 55                 push        ebp
  00407951: 8B EC              mov         ebp,esp
  00407953: 8B 45 08           mov         eax,dword ptr [ebp+8]
  00407956: 48                 dec         eax
  00407957: 83 E8 01           sub         eax,1
  0040795A: 74 2D              je          00407989
  0040795C: 83 E8 04           sub         eax,4
  0040795F: 74 21              je          00407982
  00407961: 83 E8 09           sub         eax,9
  00407964: 74 15              je          0040797B
  00407966: 83 E8 06           sub         eax,6
  00407969: 74 09              je          00407974
  0040796B: 83 E8 01           sub         eax,1
  0040796E: 74 12              je          00407982
  00407970: 33 C0              xor         eax,eax
  00407972: 5D                 pop         ebp
  00407973: C3                 ret
  00407974: B8 64 42 41 00     mov         eax,414264h
  00407979: 5D                 pop         ebp
  0040797A: C3                 ret
  0040797B: B8 6C 42 41 00     mov         eax,41426Ch
  00407980: 5D                 pop         ebp
  00407981: C3                 ret
  00407982: B8 68 42 41 00     mov         eax,414268h
  00407987: 5D                 pop         ebp
  00407988: C3                 ret
  00407989: B8 60 42 41 00     mov         eax,414260h
  0040798E: 5D                 pop         ebp
  0040798F: C3                 ret
  00407990: 8B FF              mov         edi,edi
  00407992: 55                 push        ebp
  00407993: 8B EC              mov         ebp,esp
  00407995: 6B 0D A8 DC 40 00  imul        ecx,dword ptr ds:[0040DCA8h],0Ch
            0C
  0040799C: 8B 45 0C           mov         eax,dword ptr [ebp+0Ch]
  0040799F: 03 C8              add         ecx,eax
  004079A1: 3B C1              cmp         eax,ecx
  004079A3: 74 0F              je          004079B4
  004079A5: 8B 55 08           mov         edx,dword ptr [ebp+8]
  004079A8: 39 50 04           cmp         dword ptr [eax+4],edx
  004079AB: 74 09              je          004079B6
  004079AD: 83 C0 0C           add         eax,0Ch
  004079B0: 3B C1              cmp         eax,ecx
  004079B2: 75 F4              jne         004079A8
  004079B4: 33 C0              xor         eax,eax
  004079B6: 5D                 pop         ebp
  004079B7: C3                 ret
  004079B8: 8B FF              mov         edi,edi
  004079BA: 55                 push        ebp
  004079BB: 8B EC              mov         ebp,esp
  004079BD: 83 EC 0C           sub         esp,0Ch
  004079C0: 6A 03              push        3
  004079C2: 58                 pop         eax
  004079C3: 89 45 F8           mov         dword ptr [ebp-8],eax
  004079C6: 8D 4D FF           lea         ecx,[ebp-1]
  004079C9: 89 45 F4           mov         dword ptr [ebp-0Ch],eax
  004079CC: 8D 45 F8           lea         eax,[ebp-8]
  004079CF: 50                 push        eax
  004079D0: 8D 45 FF           lea         eax,[ebp-1]
  004079D3: 50                 push        eax
  004079D4: 8D 45 F4           lea         eax,[ebp-0Ch]
  004079D7: 50                 push        eax
  004079D8: E8 0D FF FF FF     call        004078EA
  004079DD: C9                 leave
  004079DE: C3                 ret
  004079DF: 8B FF              mov         edi,edi
  004079E1: 55                 push        ebp
  004079E2: 8B EC              mov         ebp,esp
  004079E4: 8B 45 08           mov         eax,dword ptr [ebp+8]
  004079E7: A3 60 42 41 00     mov         dword ptr ds:[00414260h],eax
  004079EC: A3 64 42 41 00     mov         dword ptr ds:[00414264h],eax
  004079F1: A3 68 42 41 00     mov         dword ptr ds:[00414268h],eax
  004079F6: A3 6C 42 41 00     mov         dword ptr ds:[0041426Ch],eax
  004079FB: 5D                 pop         ebp
  004079FC: C3                 ret
  004079FD: E8 9E CE FF FF     call        004048A0
  00407A02: 83 C0 08           add         eax,8
  00407A05: C3                 ret
  00407A06: 6A 28              push        28h
  00407A08: 68 B8 21 41 00     push        4121B8h
  00407A0D: E8 DE 9D FF FF     call        004017F0
  00407A12: 33 DB              xor         ebx,ebx
  00407A14: 89 5D D8           mov         dword ptr [ebp-28h],ebx
  00407A17: 21 5D CC           and         dword ptr [ebp-34h],ebx
  00407A1A: B1 01              mov         cl,1
  00407A1C: 88 4D E7           mov         byte ptr [ebp-19h],cl
  00407A1F: 8B 75 08           mov         esi,dword ptr [ebp+8]
  00407A22: 6A 08              push        8
  00407A24: 5F                 pop         edi
  00407A25: 3B F7              cmp         esi,edi
  00407A27: 7F 18              jg          00407A41
  00407A29: 74 35              je          00407A60
  00407A2B: 8D 46 FF           lea         eax,[esi-1]
  00407A2E: 83 E8 01           sub         eax,1
  00407A31: 74 22              je          00407A55
  00407A33: 48                 dec         eax
  00407A34: 83 E8 01           sub         eax,1
  00407A37: 74 27              je          00407A60
  00407A39: 48                 dec         eax
  00407A3A: 83 E8 01           sub         eax,1
  00407A3D: 75 45              jne         00407A84
  00407A3F: EB 14              jmp         00407A55
  00407A41: 83 FE 0B           cmp         esi,0Bh
  00407A44: 74 1A              je          00407A60
  00407A46: 83 FE 0F           cmp         esi,0Fh
  00407A49: 74 0A              je          00407A55
  00407A4B: 83 FE 14           cmp         esi,14h
  00407A4E: 7E 34              jle         00407A84
  00407A50: 83 FE 16           cmp         esi,16h
  00407A53: 7F 2F              jg          00407A84
  00407A55: 56                 push        esi
  00407A56: E8 F3 FE FF FF     call        0040794E
  00407A5B: 83 C4 04           add         esp,4
  00407A5E: EB 3E              jmp         00407A9E
  00407A60: E8 92 CF FF FF     call        004049F7
  00407A65: 8B D8              mov         ebx,eax
  00407A67: 89 5D D8           mov         dword ptr [ebp-28h],ebx
  00407A6A: 85 DB              test        ebx,ebx
  00407A6C: 75 08              jne         00407A76
  00407A6E: 83 C8 FF           or          eax,0FFFFFFFFh
  00407A71: E9 67 01 00 00     jmp         00407BDD
  00407A76: FF 33              push        dword ptr [ebx]
  00407A78: 56                 push        esi
  00407A79: E8 12 FF FF FF     call        00407990
  00407A7E: 59                 pop         ecx
  00407A7F: 59                 pop         ecx
  00407A80: 85 C0              test        eax,eax
  00407A82: 75 12              jne         00407A96
  00407A84: E8 D2 D2 FF FF     call        00404D5B
  00407A89: C7 00 16 00 00 00  mov         dword ptr [eax],16h
  00407A8F: E8 0A D2 FF FF     call        00404C9E
  00407A94: EB D8              jmp         00407A6E
  00407A96: 83 C0 08           add         eax,8
  00407A99: 32 C9              xor         cl,cl
  00407A9B: 88 4D E7           mov         byte ptr [ebp-19h],cl
  00407A9E: 89 45 DC           mov         dword ptr [ebp-24h],eax
  00407AA1: 83 65 D0 00        and         dword ptr [ebp-30h],0
  00407AA5: 84 C9              test        cl,cl
  00407AA7: 74 0B              je          00407AB4
  00407AA9: 6A 03              push        3
  00407AAB: E8 13 EB FF FF     call        004065C3
  00407AB0: 59                 pop         ecx
  00407AB1: 8A 4D E7           mov         cl,byte ptr [ebp-19h]
  00407AB4: 83 65 D4 00        and         dword ptr [ebp-2Ch],0
  00407AB8: C6 45 E6 00        mov         byte ptr [ebp-1Ah],0
  00407ABC: 83 65 FC 00        and         dword ptr [ebp-4],0
  00407AC0: 8B 45 DC           mov         eax,dword ptr [ebp-24h]
  00407AC3: 84 C9              test        cl,cl
  00407AC5: 74 14              je          00407ADB
  00407AC7: 8B 15 18 30 41 00  mov         edx,dword ptr ds:[00413018h]
  00407ACD: 8B CA              mov         ecx,edx
  00407ACF: 83 E1 1F           and         ecx,1Fh
  00407AD2: 33 10              xor         edx,dword ptr [eax]
  00407AD4: D3 CA              ror         edx,cl
  00407AD6: 8A 4D E7           mov         cl,byte ptr [ebp-19h]
  00407AD9: EB 02              jmp         00407ADD
  00407ADB: 8B 10              mov         edx,dword ptr [eax]
  00407ADD: 89 55 E0           mov         dword ptr [ebp-20h],edx
  00407AE0: 89 55 D4           mov         dword ptr [ebp-2Ch],edx
  00407AE3: 83 FA 01           cmp         edx,1
  00407AE6: 0F 94 C0           sete        al
  00407AE9: 88 45 E6           mov         byte ptr [ebp-1Ah],al
  00407AEC: 84 C0              test        al,al
  00407AEE: 75 6C              jne         00407B5C
  00407AF0: 85 D2              test        edx,edx
  00407AF2: 0F 84 F5 00 00 00  je          00407BED
  00407AF8: 3B F7              cmp         esi,edi
  00407AFA: 74 0A              je          00407B06
  00407AFC: 83 FE 0B           cmp         esi,0Bh
  00407AFF: 74 05              je          00407B06
  00407B01: 83 FE 04           cmp         esi,4
  00407B04: 75 26              jne         00407B2C
  00407B06: 8B 43 04           mov         eax,dword ptr [ebx+4]
  00407B09: 89 45 D0           mov         dword ptr [ebp-30h],eax
  00407B0C: 83 63 04 00        and         dword ptr [ebx+4],0
  00407B10: 3B F7              cmp         esi,edi
  00407B12: 75 3E              jne         00407B52
  00407B14: E8 E4 FE FF FF     call        004079FD
  00407B19: 8B 00              mov         eax,dword ptr [eax]
  00407B1B: 89 45 CC           mov         dword ptr [ebp-34h],eax
  00407B1E: E8 DA FE FF FF     call        004079FD
  00407B23: C7 00 8C 00 00 00  mov         dword ptr [eax],8Ch
  00407B29: 8B 55 E0           mov         edx,dword ptr [ebp-20h]
  00407B2C: 3B F7              cmp         esi,edi
  00407B2E: 75 22              jne         00407B52
  00407B30: 6B 05 AC DC 40 00  imul        eax,dword ptr ds:[0040DCACh],0Ch
            0C
  00407B37: 03 03              add         eax,dword ptr [ebx]
  00407B39: 6B 0D B0 DC 40 00  imul        ecx,dword ptr ds:[0040DCB0h],0Ch
            0C
  00407B40: 03 C8              add         ecx,eax
  00407B42: 89 45 C8           mov         dword ptr [ebp-38h],eax
  00407B45: 3B C1              cmp         eax,ecx
  00407B47: 74 13              je          00407B5C
  00407B49: 83 60 08 00        and         dword ptr [eax+8],0
  00407B4D: 83 C0 0C           add         eax,0Ch
  00407B50: EB F0              jmp         00407B42
  00407B52: A1 18 30 41 00     mov         eax,dword ptr ds:[00413018h]
  00407B57: 8B 4D DC           mov         ecx,dword ptr [ebp-24h]
  00407B5A: 89 01              mov         dword ptr [ecx],eax
  00407B5C: C7 45 FC FE FF FF  mov         dword ptr [ebp-4],0FFFFFFFEh
            FF
  00407B63: E8 31 00 00 00     call        00407B99
  00407B68: 80 7D E6 00        cmp         byte ptr [ebp-1Ah],0
  00407B6C: 75 6D              jne         00407BDB
  00407B6E: 3B F7              cmp         esi,edi
  00407B70: 75 39              jne         00407BAB
  00407B72: E8 29 CD FF FF     call        004048A0
  00407B77: FF 70 08           push        dword ptr [eax+8]
  00407B7A: 57                 push        edi
  00407B7B: 8B 4D E0           mov         ecx,dword ptr [ebp-20h]
  00407B7E: FF 15 08 D1 40 00  call        dword ptr ds:[0040D108h]
  00407B84: FF 55 E0           call        dword ptr [ebp-20h]
  00407B87: 59                 pop         ecx
  00407B88: EB 2D              jmp         00407BB7
  00407B8A: 6A 08              push        8
  00407B8C: 5F                 pop         edi
  00407B8D: 8B 75 08           mov         esi,dword ptr [ebp+8]
  00407B90: 8B 5D D8           mov         ebx,dword ptr [ebp-28h]
  00407B93: 8B 55 D4           mov         edx,dword ptr [ebp-2Ch]
  00407B96: 89 55 E0           mov         dword ptr [ebp-20h],edx
  00407B99: 80 7D E7 00        cmp         byte ptr [ebp-19h],0
  00407B9D: 74 0B              je          00407BAA
  00407B9F: 6A 03              push        3
  00407BA1: E8 65 EA FF FF     call        0040660B
  00407BA6: 59                 pop         ecx
  00407BA7: 8B 55 E0           mov         edx,dword ptr [ebp-20h]
  00407BAA: C3                 ret
  00407BAB: 56                 push        esi
  00407BAC: 8B CA              mov         ecx,edx
  00407BAE: FF 15 08 D1 40 00  call        dword ptr ds:[0040D108h]
  00407BB4: FF 55 E0           call        dword ptr [ebp-20h]
  00407BB7: 59                 pop         ecx
  00407BB8: 3B F7              cmp         esi,edi
  00407BBA: 74 0A              je          00407BC6
  00407BBC: 83 FE 0B           cmp         esi,0Bh
  00407BBF: 74 05              je          00407BC6
  00407BC1: 83 FE 04           cmp         esi,4
  00407BC4: 75 15              jne         00407BDB
  00407BC6: 8B 45 D0           mov         eax,dword ptr [ebp-30h]
  00407BC9: 89 43 04           mov         dword ptr [ebx+4],eax
  00407BCC: 3B F7              cmp         esi,edi
  00407BCE: 75 0B              jne         00407BDB
  00407BD0: E8 CB CC FF FF     call        004048A0
  00407BD5: 8B 4D CC           mov         ecx,dword ptr [ebp-34h]
  00407BD8: 89 48 08           mov         dword ptr [eax+8],ecx
  00407BDB: 33 C0              xor         eax,eax
  00407BDD: 8B 4D F0           mov         ecx,dword ptr [ebp-10h]
  00407BE0: 64 89 0D 00 00 00  mov         dword ptr fs:[00000000h],ecx
            00
  00407BE7: 59                 pop         ecx
  00407BE8: 5F                 pop         edi
  00407BE9: 5E                 pop         esi
  00407BEA: 5B                 pop         ebx
  00407BEB: C9                 leave
  00407BEC: C3                 ret
  00407BED: 84 C9              test        cl,cl
  00407BEF: 74 08              je          00407BF9
  00407BF1: 6A 03              push        3
  00407BF3: E8 13 EA FF FF     call        0040660B
  00407BF8: 59                 pop         ecx
  00407BF9: 6A 03              push        3
  00407BFB: E8 1D C0 FF FF     call        00403C1D
  00407C00: CC                 int         3
  00407C01: 6A 08              push        8
  00407C03: 68 F8 21 41 00     push        4121F8h
  00407C08: E8 E3 9B FF FF     call        004017F0
  00407C0D: 8B 45 08           mov         eax,dword ptr [ebp+8]
  00407C10: FF 30              push        dword ptr [eax]
  00407C12: E8 91 03 00 00     call        00407FA8
  00407C17: 59                 pop         ecx
  00407C18: 83 65 FC 00        and         dword ptr [ebp-4],0
  00407C1C: 8B 75 0C           mov         esi,dword ptr [ebp+0Ch]
  00407C1F: FF 76 04           push        dword ptr [esi+4]
  00407C22: 8B 06              mov         eax,dword ptr [esi]
  00407C24: FF 30              push        dword ptr [eax]
  00407C26: E8 5B 01 00 00     call        00407D86
  00407C2B: 59                 pop         ecx
  00407C2C: 59                 pop         ecx
  00407C2D: 84 C0              test        al,al
  00407C2F: 74 32              je          00407C63
  00407C31: 8B 46 08           mov         eax,dword ptr [esi+8]
  00407C34: 80 38 00           cmp         byte ptr [eax],0
  00407C37: 75 0E              jne         00407C47
  00407C39: 8B 06              mov         eax,dword ptr [esi]
  00407C3B: 8B 00              mov         eax,dword ptr [eax]
  00407C3D: 8B 40 0C           mov         eax,dword ptr [eax+0Ch]
  00407C40: 90                 nop
  00407C41: D1 E8              shr         eax,1
  00407C43: A8 01              test        al,1
  00407C45: 74 1C              je          00407C63
  00407C47: 8B 06              mov         eax,dword ptr [esi]
  00407C49: FF 30              push        dword ptr [eax]
  00407C4B: E8 F3 01 00 00     call        00407E43
  00407C50: 59                 pop         ecx
  00407C51: 83 F8 FF           cmp         eax,0FFFFFFFFh
  00407C54: 74 07              je          00407C5D
  00407C56: 8B 46 04           mov         eax,dword ptr [esi+4]
  00407C59: FF 00              inc         dword ptr [eax]
  00407C5B: EB 06              jmp         00407C63
  00407C5D: 8B 46 0C           mov         eax,dword ptr [esi+0Ch]
  00407C60: 83 08 FF           or          dword ptr [eax],0FFFFFFFFh
  00407C63: C7 45 FC FE FF FF  mov         dword ptr [ebp-4],0FFFFFFFEh
            FF
  00407C6A: E8 12 00 00 00     call        00407C81
  00407C6F: 8B 4D F0           mov         ecx,dword ptr [ebp-10h]
  00407C72: 64 89 0D 00 00 00  mov         dword ptr fs:[00000000h],ecx
            00
  00407C79: 59                 pop         ecx
  00407C7A: 5F                 pop         edi
  00407C7B: 5E                 pop         esi
  00407C7C: 5B                 pop         ebx
  00407C7D: C9                 leave
  00407C7E: C2 0C 00           ret         0Ch
  00407C81: 8B 45 10           mov         eax,dword ptr [ebp+10h]
  00407C84: FF 30              push        dword ptr [eax]
  00407C86: E8 31 03 00 00     call        00407FBC
  00407C8B: 59                 pop         ecx
  00407C8C: C3                 ret
  00407C8D: 6A 2C              push        2Ch
  00407C8F: 68 18 22 41 00     push        412218h
  00407C94: E8 57 9B FF FF     call        004017F0
  00407C99: 8B 45 08           mov         eax,dword ptr [ebp+8]
  00407C9C: FF 30              push        dword ptr [eax]
  00407C9E: E8 20 E9 FF FF     call        004065C3
  00407CA3: 59                 pop         ecx
  00407CA4: 83 65 FC 00        and         dword ptr [ebp-4],0
  00407CA8: 8B 35 74 42 41 00  mov         esi,dword ptr ds:[00414274h]
  00407CAE: A1 70 42 41 00     mov         eax,dword ptr ds:[00414270h]
  00407CB3: 8D 1C 86           lea         ebx,[esi+eax*4]
  00407CB6: 8B 7D 0C           mov         edi,dword ptr [ebp+0Ch]
  00407CB9: 89 75 D4           mov         dword ptr [ebp-2Ch],esi
  00407CBC: 3B F3              cmp         esi,ebx
  00407CBE: 74 4F              je          00407D0F
  00407CC0: 8B 06              mov         eax,dword ptr [esi]
  00407CC2: 89 45 E0           mov         dword ptr [ebp-20h],eax
  00407CC5: FF 37              push        dword ptr [edi]
  00407CC7: 50                 push        eax
  00407CC8: E8 B9 00 00 00     call        00407D86
  00407CCD: 59                 pop         ecx
  00407CCE: 59                 pop         ecx
  00407CCF: 84 C0              test        al,al
  00407CD1: 74 37              je          00407D0A
  00407CD3: 8B 57 08           mov         edx,dword ptr [edi+8]
  00407CD6: 8B 4F 04           mov         ecx,dword ptr [edi+4]
  00407CD9: 8B 07              mov         eax,dword ptr [edi]
  00407CDB: 8D 7D E0           lea         edi,[ebp-20h]
  00407CDE: 89 7D C4           mov         dword ptr [ebp-3Ch],edi
  00407CE1: 89 45 C8           mov         dword ptr [ebp-38h],eax
  00407CE4: 89 4D CC           mov         dword ptr [ebp-34h],ecx
  00407CE7: 89 55 D0           mov         dword ptr [ebp-30h],edx
  00407CEA: 8B 45 E0           mov         eax,dword ptr [ebp-20h]
  00407CED: 89 45 DC           mov         dword ptr [ebp-24h],eax
  00407CF0: 89 45 D8           mov         dword ptr [ebp-28h],eax
  00407CF3: 8D 45 DC           lea         eax,[ebp-24h]
  00407CF6: 50                 push        eax
  00407CF7: 8D 45 C4           lea         eax,[ebp-3Ch]
  00407CFA: 50                 push        eax
  00407CFB: 8D 45 D8           lea         eax,[ebp-28h]
  00407CFE: 50                 push        eax
  00407CFF: 8D 4D E7           lea         ecx,[ebp-19h]
  00407D02: E8 FA FE FF FF     call        00407C01
  00407D07: 8B 7D 0C           mov         edi,dword ptr [ebp+0Ch]
  00407D0A: 83 C6 04           add         esi,4
  00407D0D: EB AA              jmp         00407CB9
  00407D0F: C7 45 FC FE FF FF  mov         dword ptr [ebp-4],0FFFFFFFEh
            FF
  00407D16: E8 12 00 00 00     call        00407D2D
  00407D1B: 8B 4D F0           mov         ecx,dword ptr [ebp-10h]
  00407D1E: 64 89 0D 00 00 00  mov         dword ptr fs:[00000000h],ecx
            00
  00407D25: 59                 pop         ecx
  00407D26: 5F                 pop         edi
  00407D27: 5E                 pop         esi
  00407D28: 5B                 pop         ebx
  00407D29: C9                 leave
  00407D2A: C2 0C 00           ret         0Ch
  00407D2D: 8B 45 10           mov         eax,dword ptr [ebp+10h]
  00407D30: FF 30              push        dword ptr [eax]
  00407D32: E8 D4 E8 FF FF     call        0040660B
  00407D37: 59                 pop         ecx
  00407D38: C3                 ret
  00407D39: 8B FF              mov         edi,edi
  00407D3B: 55                 push        ebp
  00407D3C: 8B EC              mov         ebp,esp
  00407D3E: 83 EC 20           sub         esp,20h
  00407D41: 83 65 F8 00        and         dword ptr [ebp-8],0
  00407D45: 8D 45 F8           lea         eax,[ebp-8]
  00407D48: 83 65 F4 00        and         dword ptr [ebp-0Ch],0
  00407D4C: 8D 4D FF           lea         ecx,[ebp-1]
  00407D4F: 89 45 E0           mov         dword ptr [ebp-20h],eax
  00407D52: 8D 45 08           lea         eax,[ebp+8]
  00407D55: 89 45 E4           mov         dword ptr [ebp-1Ch],eax
  00407D58: 8D 45 F4           lea         eax,[ebp-0Ch]
  00407D5B: 6A 08              push        8
  00407D5D: 89 45 E8           mov         dword ptr [ebp-18h],eax
  00407D60: 58                 pop         eax
  00407D61: 89 45 F0           mov         dword ptr [ebp-10h],eax
  00407D64: 89 45 EC           mov         dword ptr [ebp-14h],eax
  00407D67: 8D 45 F0           lea         eax,[ebp-10h]
  00407D6A: 50                 push        eax
  00407D6B: 8D 45 E0           lea         eax,[ebp-20h]
  00407D6E: 50                 push        eax
  00407D6F: 8D 45 EC           lea         eax,[ebp-14h]
  00407D72: 50                 push        eax
  00407D73: E8 15 FF FF FF     call        00407C8D
  00407D78: 80 7D 08 00        cmp         byte ptr [ebp+8],0
  00407D7C: 8B 45 F8           mov         eax,dword ptr [ebp-8]
  00407D7F: 75 03              jne         00407D84
  00407D81: 8B 45 F4           mov         eax,dword ptr [ebp-0Ch]
  00407D84: C9                 leave
  00407D85: C3                 ret
  00407D86: 8B FF              mov         edi,edi
  00407D88: 55                 push        ebp
  00407D89: 8B EC              mov         ebp,esp
  00407D8B: 8B 45 08           mov         eax,dword ptr [ebp+8]
  00407D8E: 85 C0              test        eax,eax
  00407D90: 74 1F              je          00407DB1
  00407D92: 8B 48 0C           mov         ecx,dword ptr [eax+0Ch]
  00407D95: 90                 nop
  00407D96: 8B C1              mov         eax,ecx
  00407D98: C1 E8 0D           shr         eax,0Dh
  00407D9B: A8 01              test        al,1
  00407D9D: 74 12              je          00407DB1
  00407D9F: 51                 push        ecx
  00407DA0: E8 14 00 00 00     call        00407DB9
  00407DA5: 83 C4 04           add         esp,4
  00407DA8: 84 C0              test        al,al
  00407DAA: 75 09              jne         00407DB5
  00407DAC: 8B 45 0C           mov         eax,dword ptr [ebp+0Ch]
  00407DAF: FF 00              inc         dword ptr [eax]
  00407DB1: 32 C0              xor         al,al
  00407DB3: 5D                 pop         ebp
  00407DB4: C3                 ret
  00407DB5: B0 01              mov         al,1
  00407DB7: 5D                 pop         ebp
  00407DB8: C3                 ret
  00407DB9: 8B FF              mov         edi,edi
  00407DBB: 55                 push        ebp
  00407DBC: 8B EC              mov         ebp,esp
  00407DBE: 8B 45 08           mov         eax,dword ptr [ebp+8]
  00407DC1: 24 03              and         al,3
  00407DC3: 3C 02              cmp         al,2
  00407DC5: 75 06              jne         00407DCD
  00407DC7: F6 45 08 C0        test        byte ptr [ebp+8],0C0h
  00407DCB: 75 09              jne         00407DD6
  00407DCD: F7 45 08 00 08 00  test        dword ptr [ebp+8],800h
            00
  00407DD4: 74 04              je          00407DDA
  00407DD6: B0 01              mov         al,1
  00407DD8: 5D                 pop         ebp
  00407DD9: C3                 ret
  00407DDA: 32 C0              xor         al,al
  00407DDC: 5D                 pop         ebp
  00407DDD: C3                 ret
  00407DDE: 8B FF              mov         edi,edi
  00407DE0: 55                 push        ebp
  00407DE1: 8B EC              mov         ebp,esp
  00407DE3: 8B 4D 08           mov         ecx,dword ptr [ebp+8]
  00407DE6: 56                 push        esi
  00407DE7: 57                 push        edi
  00407DE8: 8D 71 0C           lea         esi,[ecx+0Ch]
  00407DEB: 8B 16              mov         edx,dword ptr [esi]
  00407DED: 90                 nop
  00407DEE: 8B C2              mov         eax,edx
  00407DF0: 24 03              and         al,3
  00407DF2: 3C 02              cmp         al,2
  00407DF4: 75 47              jne         00407E3D
  00407DF6: F6 C2 C0           test        dl,0C0h
  00407DF9: 74 42              je          00407E3D
  00407DFB: 8B 39              mov         edi,dword ptr [ecx]
  00407DFD: 8B 41 04           mov         eax,dword ptr [ecx+4]
  00407E00: 2B F8              sub         edi,eax
  00407E02: 89 01              mov         dword ptr [ecx],eax
  00407E04: 83 61 08 00        and         dword ptr [ecx+8],0
  00407E08: 85 FF              test        edi,edi
  00407E0A: 7E 31              jle         00407E3D
  00407E0C: 57                 push        edi
  00407E0D: 50                 push        eax
  00407E0E: 51                 push        ecx
  00407E0F: E8 B8 07 00 00     call        004085CC
  00407E14: 59                 pop         ecx
  00407E15: 50                 push        eax
  00407E16: E8 E0 1B 00 00     call        004099FB
  00407E1B: 83 C4 0C           add         esp,0Ch
  00407E1E: 3B F8              cmp         edi,eax
  00407E20: 74 0B              je          00407E2D
  00407E22: 6A 10              push        10h
  00407E24: 58                 pop         eax
  00407E25: F0 09 06           lock or     dword ptr [esi],eax
  00407E28: 83 C8 FF           or          eax,0FFFFFFFFh
  00407E2B: EB 12              jmp         00407E3F
  00407E2D: 8B 06              mov         eax,dword ptr [esi]
  00407E2F: 90                 nop
  00407E30: C1 E8 02           shr         eax,2
  00407E33: A8 01              test        al,1
  00407E35: 74 06              je          00407E3D
  00407E37: 6A FD              push        0FFFFFFFDh
  00407E39: 58                 pop         eax
  00407E3A: F0 21 06           lock and    dword ptr [esi],eax
  00407E3D: 33 C0              xor         eax,eax
  00407E3F: 5F                 pop         edi
  00407E40: 5E                 pop         esi
  00407E41: 5D                 pop         ebp
  00407E42: C3                 ret
  00407E43: 8B FF              mov         edi,edi
  00407E45: 55                 push        ebp
  00407E46: 8B EC              mov         ebp,esp
  00407E48: 56                 push        esi
  00407E49: 8B 75 08           mov         esi,dword ptr [ebp+8]
  00407E4C: 85 F6              test        esi,esi
  00407E4E: 75 09              jne         00407E59
  00407E50: 56                 push        esi
  00407E51: E8 E3 FE FF FF     call        00407D39
  00407E56: 59                 pop         ecx
  00407E57: EB 2F              jmp         00407E88
  00407E59: 56                 push        esi
  00407E5A: E8 7F FF FF FF     call        00407DDE
  00407E5F: 59                 pop         ecx
  00407E60: 85 C0              test        eax,eax
  00407E62: 75 21              jne         00407E85
  00407E64: 8B 46 0C           mov         eax,dword ptr [esi+0Ch]
  00407E67: 90                 nop
  00407E68: C1 E8 0B           shr         eax,0Bh
  00407E6B: A8 01              test        al,1
  00407E6D: 74 12              je          00407E81
  00407E6F: 56                 push        esi
  00407E70: E8 57 07 00 00     call        004085CC
  00407E75: 50                 push        eax
  00407E76: E8 8A 13 00 00     call        00409205
  00407E7B: 59                 pop         ecx
  00407E7C: 59                 pop         ecx
  00407E7D: 85 C0              test        eax,eax
  00407E7F: 75 04              jne         00407E85
  00407E81: 33 C0              xor         eax,eax
  00407E83: EB 03              jmp         00407E88
  00407E85: 83 C8 FF           or          eax,0FFFFFFFFh
  00407E88: 5E                 pop         esi
  00407E89: 5D                 pop         ebp
  00407E8A: C3                 ret
  00407E8B: 6A 01              push        1
  00407E8D: E8 A7 FE FF FF     call        00407D39
  00407E92: 59                 pop         ecx
  00407E93: C3                 ret
  00407E94: A1 70 42 41 00     mov         eax,dword ptr ds:[00414270h]
  00407E99: 56                 push        esi
  00407E9A: 6A 03              push        3
  00407E9C: 5E                 pop         esi
  00407E9D: 85 C0              test        eax,eax
  00407E9F: 75 07              jne         00407EA8
  00407EA1: B8 00 02 00 00     mov         eax,200h
  00407EA6: EB 06              jmp         00407EAE
  00407EA8: 3B C6              cmp         eax,esi
  00407EAA: 7D 07              jge         00407EB3
  00407EAC: 8B C6              mov         eax,esi
  00407EAE: A3 70 42 41 00     mov         dword ptr ds:[00414270h],eax
  00407EB3: 6A 04              push        4
  00407EB5: 50                 push        eax
  00407EB6: E8 B3 CE FF FF     call        00404D6E
  00407EBB: 6A 00              push        0
  00407EBD: A3 74 42 41 00     mov         dword ptr ds:[00414274h],eax
  00407EC2: E8 04 CF FF FF     call        00404DCB
  00407EC7: 83 C4 0C           add         esp,0Ch
  00407ECA: 83 3D 74 42 41 00  cmp         dword ptr ds:[00414274h],0
            00
  00407ED1: 75 2B              jne         00407EFE
  00407ED3: 6A 04              push        4
  00407ED5: 56                 push        esi
  00407ED6: 89 35 70 42 41 00  mov         dword ptr ds:[00414270h],esi
  00407EDC: E8 8D CE FF FF     call        00404D6E
  00407EE1: 6A 00              push        0
  00407EE3: A3 74 42 41 00     mov         dword ptr ds:[00414274h],eax
  00407EE8: E8 DE CE FF FF     call        00404DCB
  00407EED: 83 C4 0C           add         esp,0Ch
  00407EF0: 83 3D 74 42 41 00  cmp         dword ptr ds:[00414274h],0
            00
  00407EF7: 75 05              jne         00407EFE
  00407EF9: 83 C8 FF           or          eax,0FFFFFFFFh
  00407EFC: 5E                 pop         esi
  00407EFD: C3                 ret
  00407EFE: 57                 push        edi
  00407EFF: 33 FF              xor         edi,edi
  00407F01: BE A8 36 41 00     mov         esi,4136A8h
  00407F06: 6A 00              push        0
  00407F08: 68 A0 0F 00 00     push        0FA0h
  00407F0D: 8D 46 20           lea         eax,[esi+20h]
  00407F10: 50                 push        eax
  00407F11: E8 E1 F6 FF FF     call        004075F7
  00407F16: A1 74 42 41 00     mov         eax,dword ptr ds:[00414274h]
  00407F1B: 8B D7              mov         edx,edi
  00407F1D: C1 FA 06           sar         edx,6
  00407F20: 89 34 B8           mov         dword ptr [eax+edi*4],esi
  00407F23: 8B C7              mov         eax,edi
  00407F25: 83 E0 3F           and         eax,3Fh
  00407F28: 6B C8 38           imul        ecx,eax,38h
  00407F2B: 8B 04 95 70 3F 41  mov         eax,dword ptr [edx*4+00413F70h]
            00
  00407F32: 8B 44 08 18        mov         eax,dword ptr [eax+ecx+18h]
  00407F36: 83 F8 FF           cmp         eax,0FFFFFFFFh
  00407F39: 74 09              je          00407F44
  00407F3B: 83 F8 FE           cmp         eax,0FFFFFFFEh
  00407F3E: 74 04              je          00407F44
  00407F40: 85 C0              test        eax,eax
  00407F42: 75 07              jne         00407F4B
  00407F44: C7 46 10 FE FF FF  mov         dword ptr [esi+10h],0FFFFFFFEh
            FF
  00407F4B: 83 C6 38           add         esi,38h
  00407F4E: 47                 inc         edi
  00407F4F: 81 FE 50 37 41 00  cmp         esi,413750h
  00407F55: 75 AF              jne         00407F06
  00407F57: 5F                 pop         edi
  00407F58: 33 C0              xor         eax,eax
  00407F5A: 5E                 pop         esi
  00407F5B: C3                 ret
  00407F5C: 8B FF              mov         edi,edi
  00407F5E: 56                 push        esi
  00407F5F: E8 27 FF FF FF     call        00407E8B
  00407F64: E8 66 1D 00 00     call        00409CCF
  00407F69: 33 F6              xor         esi,esi
  00407F6B: A1 74 42 41 00     mov         eax,dword ptr ds:[00414274h]
  00407F70: FF 34 06           push        dword ptr [esi+eax]
  00407F73: E8 02 1E 00 00     call        00409D7A
  00407F78: A1 74 42 41 00     mov         eax,dword ptr ds:[00414274h]
  00407F7D: 59                 pop         ecx
  00407F7E: 8B 04 06           mov         eax,dword ptr [esi+eax]
  00407F81: 83 C0 20           add         eax,20h
  00407F84: 50                 push        eax
  00407F85: FF 15 4C D0 40 00  call        dword ptr ds:[0040D04Ch]
  00407F8B: 83 C6 04           add         esi,4
  00407F8E: 83 FE 0C           cmp         esi,0Ch
  00407F91: 75 D8              jne         00407F6B
  00407F93: FF 35 74 42 41 00  push        dword ptr ds:[00414274h]
  00407F99: E8 2D CE FF FF     call        00404DCB
  00407F9E: 83 25 74 42 41 00  and         dword ptr ds:[00414274h],0
            00
  00407FA5: 59                 pop         ecx
  00407FA6: 5E                 pop         esi
  00407FA7: C3                 ret
  00407FA8: 8B FF              mov         edi,edi
  00407FAA: 55                 push        ebp
  00407FAB: 8B EC              mov         ebp,esp
  00407FAD: 8B 45 08           mov         eax,dword ptr [ebp+8]
  00407FB0: 83 C0 20           add         eax,20h
  00407FB3: 50                 push        eax
  00407FB4: FF 15 44 D0 40 00  call        dword ptr ds:[0040D044h]
  00407FBA: 5D                 pop         ebp
  00407FBB: C3                 ret
  00407FBC: 8B FF              mov         edi,edi
  00407FBE: 55                 push        ebp
  00407FBF: 8B EC              mov         ebp,esp
  00407FC1: 8B 45 08           mov         eax,dword ptr [ebp+8]
  00407FC4: 83 C0 20           add         eax,20h
  00407FC7: 50                 push        eax
  00407FC8: FF 15 48 D0 40 00  call        dword ptr ds:[0040D048h]
  00407FCE: 5D                 pop         ebp
  00407FCF: C3                 ret
  00407FD0: 8B FF              mov         edi,edi
  00407FD2: 55                 push        ebp
  00407FD3: 8B EC              mov         ebp,esp
  00407FD5: 8B 4D 08           mov         ecx,dword ptr [ebp+8]
  00407FD8: 8B C1              mov         eax,ecx
  00407FDA: 53                 push        ebx
  00407FDB: 83 E0 10           and         eax,10h
  00407FDE: BB 00 02 00 00     mov         ebx,200h
  00407FE3: 56                 push        esi
  00407FE4: C1 E0 03           shl         eax,3
  00407FE7: 57                 push        edi
  00407FE8: F6 C1 08           test        cl,8
  00407FEB: 74 02              je          00407FEF
  00407FED: 0B C3              or          eax,ebx
  00407FEF: F6 C1 04           test        cl,4
  00407FF2: 74 05              je          00407FF9
  00407FF4: 0D 00 04 00 00     or          eax,400h
  00407FF9: F6 C1 02           test        cl,2
  00407FFC: 74 05              je          00408003
  00407FFE: 0D 00 08 00 00     or          eax,800h
  00408003: F6 C1 01           test        cl,1
  00408006: 74 05              je          0040800D
  00408008: 0D 00 10 00 00     or          eax,1000h
  0040800D: BE 00 01 00 00     mov         esi,100h
  00408012: F7 C1 00 00 08 00  test        ecx,80000h
  00408018: 74 02              je          0040801C
  0040801A: 0B C6              or          eax,esi
  0040801C: 8B D1              mov         edx,ecx
  0040801E: BF 00 03 00 00     mov         edi,300h
  00408023: 23 D7              and         edx,edi
  00408025: 74 1F              je          00408046
  00408027: 3B D6              cmp         edx,esi
  00408029: 74 16              je          00408041
  0040802B: 3B D3              cmp         edx,ebx
  0040802D: 74 0B              je          0040803A
  0040802F: 3B D7              cmp         edx,edi
  00408031: 75 13              jne         00408046
  00408033: 0D 00 60 00 00     or          eax,6000h
  00408038: EB 0C              jmp         00408046
  0040803A: 0D 00 40 00 00     or          eax,4000h
  0040803F: EB 05              jmp         00408046
  00408041: 0D 00 20 00 00     or          eax,2000h
  00408046: BA 00 00 00 03     mov         edx,3000000h
  0040804B: 5F                 pop         edi
  0040804C: 23 CA              and         ecx,edx
  0040804E: 5E                 pop         esi
  0040804F: 5B                 pop         ebx
  00408050: 81 F9 00 00 00 01  cmp         ecx,1000000h
  00408056: 74 18              je          00408070
  00408058: 81 F9 00 00 00 02  cmp         ecx,2000000h
  0040805E: 74 0B              je          0040806B
  00408060: 3B CA              cmp         ecx,edx
  00408062: 75 11              jne         00408075
  00408064: 0D 00 80 00 00     or          eax,8000h
  00408069: 5D                 pop         ebp
  0040806A: C3                 ret
  0040806B: 83 C8 40           or          eax,40h
  0040806E: 5D                 pop         ebp
  0040806F: C3                 ret
  00408070: 0D 40 80 00 00     or          eax,8040h
  00408075: 5D                 pop         ebp
  00408076: C3                 ret
  00408077: 8B FF              mov         edi,edi
  00408079: 55                 push        ebp
  0040807A: 8B EC              mov         ebp,esp
  0040807C: 83 EC 10           sub         esp,10h
  0040807F: 9B                 wait
  00408080: D9 7D F8           fnstcw      word ptr [ebp-8]
  00408083: 66 8B 45 F8        mov         ax,word ptr [ebp-8]
  00408087: 0F B7 C8           movzx       ecx,ax
  0040808A: 83 E1 01           and         ecx,1
  0040808D: C1 E1 04           shl         ecx,4
  00408090: A8 04              test        al,4
  00408092: 74 03              je          00408097
  00408094: 83 C9 08           or          ecx,8
  00408097: A8 08              test        al,8
  00408099: 74 03              je          0040809E
  0040809B: 83 C9 04           or          ecx,4
  0040809E: A8 10              test        al,10h
  004080A0: 74 03              je          004080A5
  004080A2: 83 C9 02           or          ecx,2
  004080A5: A8 20              test        al,20h
  004080A7: 74 03              je          004080AC
  004080A9: 83 C9 01           or          ecx,1
  004080AC: A8 02              test        al,2
  004080AE: 74 06              je          004080B6
  004080B0: 81 C9 00 00 08 00  or          ecx,80000h
  004080B6: 53                 push        ebx
  004080B7: 56                 push        esi
  004080B8: 0F B7 F0           movzx       esi,ax
  004080BB: BB 00 0C 00 00     mov         ebx,0C00h
  004080C0: 8B D6              mov         edx,esi
  004080C2: 57                 push        edi
  004080C3: BF 00 02 00 00     mov         edi,200h
  004080C8: 23 D3              and         edx,ebx
  004080CA: 74 26              je          004080F2
  004080CC: 81 FA 00 04 00 00  cmp         edx,400h
  004080D2: 74 18              je          004080EC
  004080D4: 81 FA 00 08 00 00  cmp         edx,800h
  004080DA: 74 0C              je          004080E8
  004080DC: 3B D3              cmp         edx,ebx
  004080DE: 75 12              jne         004080F2
  004080E0: 81 C9 00 03 00 00  or          ecx,300h
  004080E6: EB 0A              jmp         004080F2
  004080E8: 0B CF              or          ecx,edi
  004080EA: EB 06              jmp         004080F2
  004080EC: 81 C9 00 01 00 00  or          ecx,100h
  004080F2: 81 E6 00 03 00 00  and         esi,300h
  004080F8: 74 0C              je          00408106
  004080FA: 3B F7              cmp         esi,edi
  004080FC: 75 0E              jne         0040810C
  004080FE: 81 C9 00 00 01 00  or          ecx,10000h
  00408104: EB 06              jmp         0040810C
  00408106: 81 C9 00 00 02 00  or          ecx,20000h
  0040810C: 0F B7 C0           movzx       eax,ax
  0040810F: BA 00 10 00 00     mov         edx,1000h
  00408114: 85 C2              test        edx,eax
  00408116: 74 06              je          0040811E
  00408118: 81 C9 00 00 04 00  or          ecx,40000h
  0040811E: 8B 7D 0C           mov         edi,dword ptr [ebp+0Ch]
  00408121: 8B F7              mov         esi,edi
  00408123: 8B 45 08           mov         eax,dword ptr [ebp+8]
  00408126: F7 D6              not         esi
  00408128: 23 F1              and         esi,ecx
  0040812A: 23 C7              and         eax,edi
  0040812C: 0B F0              or          esi,eax
  0040812E: 3B F1              cmp         esi,ecx
  00408130: 0F 84 A8 00 00 00  je          004081DE
  00408136: 56                 push        esi
  00408137: E8 3C 02 00 00     call        00408378
  0040813C: 59                 pop         ecx
  0040813D: 66 89 45 FC        mov         word ptr [ebp-4],ax
  00408141: D9 6D FC           fldcw       word ptr [ebp-4]
  00408144: 9B                 wait
  00408145: D9 7D FC           fnstcw      word ptr [ebp-4]
  00408148: 66 8B 45 FC        mov         ax,word ptr [ebp-4]
  0040814C: 0F B7 F0           movzx       esi,ax
  0040814F: 83 E6 01           and         esi,1
  00408152: C1 E6 04           shl         esi,4
  00408155: A8 04              test        al,4
  00408157: 74 03              je          0040815C
  00408159: 83 CE 08           or          esi,8
  0040815C: A8 08              test        al,8
  0040815E: 74 03              je          00408163
  00408160: 83 CE 04           or          esi,4
  00408163: A8 10              test        al,10h
  00408165: 74 03              je          0040816A
  00408167: 83 CE 02           or          esi,2
  0040816A: A8 20              test        al,20h
  0040816C: 74 03              je          00408171
  0040816E: 83 CE 01           or          esi,1
  00408171: A8 02              test        al,2
  00408173: 74 06              je          0040817B
  00408175: 81 CE 00 00 08 00  or          esi,80000h
  0040817B: 0F B7 D0           movzx       edx,ax
  0040817E: 8B CA              mov         ecx,edx
  00408180: 23 CB              and         ecx,ebx
  00408182: 74 2A              je          004081AE
  00408184: 81 F9 00 04 00 00  cmp         ecx,400h
  0040818A: 74 1C              je          004081A8
  0040818C: 81 F9 00 08 00 00  cmp         ecx,800h
  00408192: 74 0C              je          004081A0
  00408194: 3B CB              cmp         ecx,ebx
  00408196: 75 16              jne         004081AE
  00408198: 81 CE 00 03 00 00  or          esi,300h
  0040819E: EB 0E              jmp         004081AE
  004081A0: 81 CE 00 02 00 00  or          esi,200h
  004081A6: EB 06              jmp         004081AE
  004081A8: 81 CE 00 01 00 00  or          esi,100h
  004081AE: 81 E2 00 03 00 00  and         edx,300h
  004081B4: 74 10              je          004081C6
  004081B6: 81 FA 00 02 00 00  cmp         edx,200h
  004081BC: 75 0E              jne         004081CC
  004081BE: 81 CE 00 00 01 00  or          esi,10000h
  004081C4: EB 06              jmp         004081CC
  004081C6: 81 CE 00 00 02 00  or          esi,20000h
  004081CC: 0F B7 C0           movzx       eax,ax
  004081CF: BA 00 10 00 00     mov         edx,1000h
  004081D4: 85 C2              test        edx,eax
  004081D6: 74 06              je          004081DE
  004081D8: 81 CE 00 00 04 00  or          esi,40000h
  004081DE: 83 3D C4 38 41 00  cmp         dword ptr ds:[004138C4h],1
            01
  004081E5: 0F 8C 86 01 00 00  jl          00408371
  004081EB: 81 E7 1F 03 08 03  and         edi,308031Fh
  004081F1: 0F AE 5D F0        stmxcsr     dword ptr [ebp-10h]
  004081F5: 8B 4D F0           mov         ecx,dword ptr [ebp-10h]
  004081F8: 8B C1              mov         eax,ecx
  004081FA: C1 E8 03           shr         eax,3
  004081FD: 83 E0 10           and         eax,10h
  00408200: F7 C1 00 02 00 00  test        ecx,200h
  00408206: 74 03              je          0040820B
  00408208: 83 C8 08           or          eax,8
  0040820B: F7 C1 00 04 00 00  test        ecx,400h
  00408211: 74 03              je          00408216
  00408213: 83 C8 04           or          eax,4
  00408216: F7 C1 00 08 00 00  test        ecx,800h
  0040821C: 74 03              je          00408221
  0040821E: 83 C8 02           or          eax,2
  00408221: 85 CA              test        edx,ecx
  00408223: 74 03              je          00408228
  00408225: 83 C8 01           or          eax,1
  00408228: F7 C1 00 01 00 00  test        ecx,100h
  0040822E: 74 05              je          00408235
  00408230: 0D 00 00 08 00     or          eax,80000h
  00408235: 8B D1              mov         edx,ecx
  00408237: BB 00 60 00 00     mov         ebx,6000h
  0040823C: 23 D3              and         edx,ebx
  0040823E: 74 27              je          00408267
  00408240: 81 FA 00 20 00 00  cmp         edx,2000h
  00408246: 74 1A              je          00408262
  00408248: 81 FA 00 40 00 00  cmp         edx,4000h
  0040824E: 74 0B              je          0040825B
  00408250: 3B D3              cmp         edx,ebx
  00408252: 75 13              jne         00408267
  00408254: 0D 00 03 00 00     or          eax,300h
  00408259: EB 0C              jmp         00408267
  0040825B: 0D 00 02 00 00     or          eax,200h
  00408260: EB 05              jmp         00408267
  00408262: 0D 00 01 00 00     or          eax,100h
  00408267: 6A 40              push        40h
  00408269: 81 E1 40 80 00 00  and         ecx,8040h
  0040826F: 5B                 pop         ebx
  00408270: 2B CB              sub         ecx,ebx
  00408272: 74 1A              je          0040828E
  00408274: 81 E9 C0 7F 00 00  sub         ecx,7FC0h
  0040827A: 74 0B              je          00408287
  0040827C: 2B CB              sub         ecx,ebx
  0040827E: 75 13              jne         00408293
  00408280: 0D 00 00 00 01     or          eax,1000000h
  00408285: EB 0C              jmp         00408293
  00408287: 0D 00 00 00 03     or          eax,3000000h
  0040828C: EB 05              jmp         00408293
  0040828E: 0D 00 00 00 02     or          eax,2000000h
  00408293: 8B CF              mov         ecx,edi
  00408295: 23 7D 08           and         edi,dword ptr [ebp+8]
  00408298: F7 D1              not         ecx
  0040829A: 23 C8              and         ecx,eax
  0040829C: 0B CF              or          ecx,edi
  0040829E: 3B C8              cmp         ecx,eax
  004082A0: 0F 84 B4 00 00 00  je          0040835A
  004082A6: 51                 push        ecx
  004082A7: E8 24 FD FF FF     call        00407FD0
  004082AC: 50                 push        eax
  004082AD: 89 45 F4           mov         dword ptr [ebp-0Ch],eax
  004082B0: E8 5B 1B 00 00     call        00409E10
  004082B5: 59                 pop         ecx
  004082B6: 59                 pop         ecx
  004082B7: 0F AE 5D F4        stmxcsr     dword ptr [ebp-0Ch]
  004082BB: 8B 4D F4           mov         ecx,dword ptr [ebp-0Ch]
  004082BE: 8B C1              mov         eax,ecx
  004082C0: C1 E8 03           shr         eax,3
  004082C3: 83 E0 10           and         eax,10h
  004082C6: F7 C1 00 02 00 00  test        ecx,200h
  004082CC: 74 03              je          004082D1
  004082CE: 83 C8 08           or          eax,8
  004082D1: F7 C1 00 04 00 00  test        ecx,400h
  004082D7: 74 03              je          004082DC
  004082D9: 83 C8 04           or          eax,4
  004082DC: F7 C1 00 08 00 00  test        ecx,800h
  004082E2: 74 03              je          004082E7
  004082E4: 83 C8 02           or          eax,2
  004082E7: F7 C1 00 10 00 00  test        ecx,1000h
  004082ED: 74 03              je          004082F2
  004082EF: 83 C8 01           or          eax,1
  004082F2: F7 C1 00 01 00 00  test        ecx,100h
  004082F8: 74 05              je          004082FF
  004082FA: 0D 00 00 08 00     or          eax,80000h
  004082FF: 8B D1              mov         edx,ecx
  00408301: BF 00 60 00 00     mov         edi,6000h
  00408306: 23 D7              and         edx,edi
  00408308: 74 27              je          00408331
  0040830A: 81 FA 00 20 00 00  cmp         edx,2000h
  00408310: 74 1A              je          0040832C
  00408312: 81 FA 00 40 00 00  cmp         edx,4000h
  00408318: 74 0B              je          00408325
  0040831A: 3B D7              cmp         edx,edi
  0040831C: 75 13              jne         00408331
  0040831E: 0D 00 03 00 00     or          eax,300h
  00408323: EB 0C              jmp         00408331
  00408325: 0D 00 02 00 00     or          eax,200h
  0040832A: EB 05              jmp         00408331
  0040832C: 0D 00 01 00 00     or          eax,100h
  00408331: 81 E1 40 80 00 00  and         ecx,8040h
  00408337: 2B CB              sub         ecx,ebx
  00408339: 74 1A              je          00408355
  0040833B: 81 E9 C0 7F 00 00  sub         ecx,7FC0h
  00408341: 74 0B              je          0040834E
  00408343: 2B CB              sub         ecx,ebx
  00408345: 75 13              jne         0040835A
  00408347: 0D 00 00 00 01     or          eax,1000000h
  0040834C: EB 0C              jmp         0040835A
  0040834E: 0D 00 00 00 03     or          eax,3000000h
  00408353: EB 05              jmp         0040835A
  00408355: 0D 00 00 00 02     or          eax,2000000h
  0040835A: 8B C8              mov         ecx,eax
  0040835C: 33 C6              xor         eax,esi
  0040835E: 0B CE              or          ecx,esi
  00408360: A9 1F 03 08 00     test        eax,8031Fh
  00408365: 74 06              je          0040836D
  00408367: 81 C9 00 00 00 80  or          ecx,80000000h
  0040836D: 8B C1              mov         eax,ecx
  0040836F: EB 02              jmp         00408373
  00408371: 8B C6              mov         eax,esi
  00408373: 5F                 pop         edi
  00408374: 5E                 pop         esi
  00408375: 5B                 pop         ebx
  00408376: C9                 leave
  00408377: C3                 ret
  00408378: 8B FF              mov         edi,edi
  0040837A: 55                 push        ebp
  0040837B: 8B EC              mov         ebp,esp
  0040837D: 8B 4D 08           mov         ecx,dword ptr [ebp+8]
  00408380: 8B D1              mov         edx,ecx
  00408382: C1 EA 04           shr         edx,4
  00408385: 83 E2 01           and         edx,1
  00408388: 8B C2              mov         eax,edx
  0040838A: F6 C1 08           test        cl,8
  0040838D: 74 06              je          00408395
  0040838F: 83 CA 04           or          edx,4
  00408392: 0F B7 C2           movzx       eax,dx
  00408395: F6 C1 04           test        cl,4
  00408398: 74 03              je          0040839D
  0040839A: 83 C8 08           or          eax,8
  0040839D: F6 C1 02           test        cl,2
  004083A0: 74 03              je          004083A5
  004083A2: 83 C8 10           or          eax,10h
  004083A5: F6 C1 01           test        cl,1
  004083A8: 74 03              je          004083AD
  004083AA: 83 C8 20           or          eax,20h
  004083AD: F7 C1 00 00 08 00  test        ecx,80000h
  004083B3: 74 03              je          004083B8
  004083B5: 83 C8 02           or          eax,2
  004083B8: 56                 push        esi
  004083B9: 8B D1              mov         edx,ecx
  004083BB: BE 00 03 00 00     mov         esi,300h
  004083C0: 57                 push        edi
  004083C1: BF 00 02 00 00     mov         edi,200h
  004083C6: 23 D6              and         edx,esi
  004083C8: 74 23              je          004083ED
  004083CA: 81 FA 00 01 00 00  cmp         edx,100h
  004083D0: 74 16              je          004083E8
  004083D2: 3B D7              cmp         edx,edi
  004083D4: 74 0B              je          004083E1
  004083D6: 3B D6              cmp         edx,esi
  004083D8: 75 13              jne         004083ED
  004083DA: 0D 00 0C 00 00     or          eax,0C00h
  004083DF: EB 0C              jmp         004083ED
  004083E1: 0D 00 08 00 00     or          eax,800h
  004083E6: EB 05              jmp         004083ED
  004083E8: 0D 00 04 00 00     or          eax,400h
  004083ED: 8B D1              mov         edx,ecx
  004083EF: 81 E2 00 00 03 00  and         edx,30000h
  004083F5: 74 0C              je          00408403
  004083F7: 81 FA 00 00 01 00  cmp         edx,10000h
  004083FD: 75 06              jne         00408405
  004083FF: 0B C7              or          eax,edi
  00408401: EB 02              jmp         00408405
  00408403: 0B C6              or          eax,esi
  00408405: 5F                 pop         edi
  00408406: 5E                 pop         esi
  00408407: F7 C1 00 00 04 00  test        ecx,40000h
  0040840D: 74 05              je          00408414
  0040840F: 0D 00 10 00 00     or          eax,1000h
  00408414: 5D                 pop         ebp
  00408415: C3                 ret
  00408416: 8B FF              mov         edi,edi
  00408418: 55                 push        ebp
  00408419: 8B EC              mov         ebp,esp
  0040841B: 83 EC 10           sub         esp,10h
  0040841E: 53                 push        ebx
  0040841F: 57                 push        edi
  00408420: 8B 7D 0C           mov         edi,dword ptr [ebp+0Ch]
  00408423: 85 FF              test        edi,edi
  00408425: 0F 84 19 01 00 00  je          00408544
  0040842B: 8B 5D 10           mov         ebx,dword ptr [ebp+10h]
  0040842E: 85 DB              test        ebx,ebx
  00408430: 0F 84 0E 01 00 00  je          00408544
  00408436: 80 3F 00           cmp         byte ptr [edi],0
  00408439: 75 15              jne         00408450
  0040843B: 8B 45 08           mov         eax,dword ptr [ebp+8]
  0040843E: 85 C0              test        eax,eax
  00408440: 0F 84 0C 01 00 00  je          00408552
  00408446: 33 C9              xor         ecx,ecx
  00408448: 66 89 08           mov         word ptr [eax],cx
  0040844B: E9 02 01 00 00     jmp         00408552
  00408450: 56                 push        esi
  00408451: FF 75 14           push        dword ptr [ebp+14h]
  00408454: 8D 4D F0           lea         ecx,[ebp-10h]
  00408457: E8 C9 BF FF FF     call        00404425
  0040845C: 8B 45 F4           mov         eax,dword ptr [ebp-0Ch]
  0040845F: 81 78 08 E9 FD 00  cmp         dword ptr [eax+8],0FDE9h
            00
  00408466: 75 21              jne         00408489
  00408468: 68 80 42 41 00     push        414280h
  0040846D: 53                 push        ebx
  0040846E: 57                 push        edi
  0040846F: FF 75 08           push        dword ptr [ebp+8]
  00408472: E8 23 1B 00 00     call        00409F9A
  00408477: 8B F0              mov         esi,eax
  00408479: 83 C4 10           add         esp,10h
  0040847C: 85 F6              test        esi,esi
  0040847E: 0F 89 AB 00 00 00  jns         0040852F
  00408484: E9 A3 00 00 00     jmp         0040852C
  00408489: 83 B8 A8 00 00 00  cmp         dword ptr [eax+000000A8h],0
            00
  00408490: 75 15              jne         004084A7
  00408492: 8B 4D 08           mov         ecx,dword ptr [ebp+8]
  00408495: 85 C9              test        ecx,ecx
  00408497: 74 06              je          0040849F
  00408499: 0F B6 07           movzx       eax,byte ptr [edi]
  0040849C: 66 89 01           mov         word ptr [ecx],ax
  0040849F: 33 F6              xor         esi,esi
  004084A1: 46                 inc         esi
  004084A2: E9 88 00 00 00     jmp         0040852F
  004084A7: 8D 45 F4           lea         eax,[ebp-0Ch]
  004084AA: 50                 push        eax
  004084AB: 0F B6 07           movzx       eax,byte ptr [edi]
  004084AE: 50                 push        eax
  004084AF: E8 80 1A 00 00     call        00409F34
  004084B4: 59                 pop         ecx
  004084B5: 59                 pop         ecx
  004084B6: 85 C0              test        eax,eax
  004084B8: 74 42              je          004084FC
  004084BA: 8B 75 F4           mov         esi,dword ptr [ebp-0Ch]
  004084BD: 83 7E 04 01        cmp         dword ptr [esi+4],1
  004084C1: 7E 29              jle         004084EC
  004084C3: 3B 5E 04           cmp         ebx,dword ptr [esi+4]
  004084C6: 7C 27              jl          004084EF
  004084C8: 33 C0              xor         eax,eax
  004084CA: 39 45 08           cmp         dword ptr [ebp+8],eax
  004084CD: 0F 95 C0           setne       al
  004084D0: 50                 push        eax
  004084D1: FF 75 08           push        dword ptr [ebp+8]
  004084D4: FF 76 04           push        dword ptr [esi+4]
  004084D7: 57                 push        edi
  004084D8: 6A 09              push        9
  004084DA: FF 76 08           push        dword ptr [esi+8]
  004084DD: E8 54 DB FF FF     call        00406036
  004084E2: 8B 75 F4           mov         esi,dword ptr [ebp-0Ch]
  004084E5: 83 C4 18           add         esp,18h
  004084E8: 85 C0              test        eax,eax
  004084EA: 75 0B              jne         004084F7
  004084EC: 3B 5E 04           cmp         ebx,dword ptr [esi+4]
  004084EF: 72 30              jb          00408521
  004084F1: 80 7F 01 00        cmp         byte ptr [edi+1],0
  004084F5: 74 2A              je          00408521
  004084F7: 8B 76 04           mov         esi,dword ptr [esi+4]
  004084FA: EB 33              jmp         0040852F
  004084FC: 33 C0              xor         eax,eax
  004084FE: 39 45 08           cmp         dword ptr [ebp+8],eax
  00408501: 0F 95 C0           setne       al
  00408504: 33 F6              xor         esi,esi
  00408506: 50                 push        eax
  00408507: FF 75 08           push        dword ptr [ebp+8]
  0040850A: 8B 45 F4           mov         eax,dword ptr [ebp-0Ch]
  0040850D: 46                 inc         esi
  0040850E: 56                 push        esi
  0040850F: 57                 push        edi
  00408510: 6A 09              push        9
  00408512: FF 70 08           push        dword ptr [eax+8]
  00408515: E8 1C DB FF FF     call        00406036
  0040851A: 83 C4 18           add         esp,18h
  0040851D: 85 C0              test        eax,eax
  0040851F: 75 0E              jne         0040852F
  00408521: E8 35 C8 FF FF     call        00404D5B
  00408526: C7 00 2A 00 00 00  mov         dword ptr [eax],2Ah
  0040852C: 83 CE FF           or          esi,0FFFFFFFFh
  0040852F: 80 7D FC 00        cmp         byte ptr [ebp-4],0
  00408533: 74 0A              je          0040853F
  00408535: 8B 4D F0           mov         ecx,dword ptr [ebp-10h]
  00408538: 83 A1 50 03 00 00  and         dword ptr [ecx+00000350h],0FFFFFFFDh
            FD
  0040853F: 8B C6              mov         eax,esi
  00408541: 5E                 pop         esi
  00408542: EB 10              jmp         00408554
  00408544: 83 25 80 42 41 00  and         dword ptr ds:[00414280h],0
            00
  0040854B: 83 25 84 42 41 00  and         dword ptr ds:[00414284h],0
            00
  00408552: 33 C0              xor         eax,eax
  00408554: 5F                 pop         edi
  00408555: 5B                 pop         ebx
  00408556: C9                 leave
  00408557: C3                 ret
  00408558: 8B FF              mov         edi,edi
  0040855A: 55                 push        ebp
  0040855B: 8B EC              mov         ebp,esp
  0040855D: 6A 00              push        0
  0040855F: FF 75 10           push        dword ptr [ebp+10h]
  00408562: FF 75 0C           push        dword ptr [ebp+0Ch]
  00408565: FF 75 08           push        dword ptr [ebp+8]
  00408568: E8 A9 FE FF FF     call        00408416
  0040856D: 83 C4 10           add         esp,10h
  00408570: 5D                 pop         ebp
  00408571: C3                 ret
  00408572: 8B FF              mov         edi,edi
  00408574: 55                 push        ebp
  00408575: 8B EC              mov         ebp,esp
  00408577: 56                 push        esi
  00408578: 8B 75 0C           mov         esi,dword ptr [ebp+0Ch]
  0040857B: 8B 06              mov         eax,dword ptr [esi]
  0040857D: 3B 05 74 41 41 00  cmp         eax,dword ptr ds:[00414174h]
  00408583: 74 17              je          0040859C
  00408585: 8B 4D 08           mov         ecx,dword ptr [ebp+8]
  00408588: A1 A0 36 41 00     mov         eax,dword ptr ds:[004136A0h]
  0040858D: 85 81 50 03 00 00  test        dword ptr [ecx+00000350h],eax
  00408593: 75 07              jne         0040859C
  00408595: E8 1F EC FF FF     call        004071B9
  0040859A: 89 06              mov         dword ptr [esi],eax
  0040859C: 5E                 pop         esi
  0040859D: 5D                 pop         ebp
  0040859E: C3                 ret
  0040859F: 8B FF              mov         edi,edi
  004085A1: 55                 push        ebp
  004085A2: 8B EC              mov         ebp,esp
  004085A4: 56                 push        esi
  004085A5: 8B 75 0C           mov         esi,dword ptr [ebp+0Ch]
  004085A8: 8B 06              mov         eax,dword ptr [esi]
  004085AA: 3B 05 0C 3E 41 00  cmp         eax,dword ptr ds:[00413E0Ch]
  004085B0: 74 17              je          004085C9
  004085B2: 8B 4D 08           mov         ecx,dword ptr [ebp+8]
  004085B5: A1 A0 36 41 00     mov         eax,dword ptr ds:[004136A0h]
  004085BA: 85 81 50 03 00 00  test        dword ptr [ecx+00000350h],eax
  004085C0: 75 07              jne         004085C9
  004085C2: E8 79 D7 FF FF     call        00405D40
  004085C7: 89 06              mov         dword ptr [esi],eax
  004085C9: 5E                 pop         esi
  004085CA: 5D                 pop         ebp
  004085CB: C3                 ret
  004085CC: 8B FF              mov         edi,edi
  004085CE: 55                 push        ebp
  004085CF: 8B EC              mov         ebp,esp
  004085D1: 8B 45 08           mov         eax,dword ptr [ebp+8]
  004085D4: 85 C0              test        eax,eax
  004085D6: 75 15              jne         004085ED
  004085D8: E8 7E C7 FF FF     call        00404D5B
  004085DD: C7 00 16 00 00 00  mov         dword ptr [eax],16h
  004085E3: E8 B6 C6 FF FF     call        00404C9E
  004085E8: 83 C8 FF           or          eax,0FFFFFFFFh
  004085EB: 5D                 pop         ebp
  004085EC: C3                 ret
  004085ED: 8B 40 10           mov         eax,dword ptr [eax+10h]
  004085F0: 90                 nop
  004085F1: 5D                 pop         ebp
  004085F2: C3                 ret
  004085F3: CC                 int         3
  004085F4: CC                 int         3
  004085F5: CC                 int         3
  004085F6: CC                 int         3
  004085F7: CC                 int         3
  004085F8: CC                 int         3
  004085F9: CC                 int         3
  004085FA: CC                 int         3
  004085FB: CC                 int         3
  004085FC: CC                 int         3
  004085FD: CC                 int         3
  004085FE: CC                 int         3
  004085FF: CC                 int         3
  00408600: 8B FF              mov         edi,edi
  00408602: 55                 push        ebp
  00408603: 8B EC              mov         ebp,esp
  00408605: 8B 45 0C           mov         eax,dword ptr [ebp+0Ch]
  00408608: 57                 push        edi
  00408609: 8B 7D 08           mov         edi,dword ptr [ebp+8]
  0040860C: 3B F8              cmp         edi,eax
  0040860E: 74 26              je          00408636
  00408610: 56                 push        esi
  00408611: 8B 75 10           mov         esi,dword ptr [ebp+10h]
  00408614: 85 F6              test        esi,esi
  00408616: 74 1D              je          00408635
  00408618: 2B F8              sub         edi,eax
  0040861A: 8D 9B 00 00 00 00  lea         ebx,[ebx+00000000h]
  00408620: 8A 08              mov         cl,byte ptr [eax]
  00408622: 8D 40 01           lea         eax,[eax+1]
  00408625: 8A 54 07 FF        mov         dl,byte ptr [edi+eax-1]
  00408629: 88 4C 07 FF        mov         byte ptr [edi+eax-1],cl
  0040862D: 88 50 FF           mov         byte ptr [eax-1],dl
  00408630: 83 EE 01           sub         esi,1
  00408633: 75 EB              jne         00408620
  00408635: 5E                 pop         esi
  00408636: 5F                 pop         edi
  00408637: 5D                 pop         ebp
  00408638: C3                 ret
  00408639: CC                 int         3
  0040863A: CC                 int         3
  0040863B: CC                 int         3
  0040863C: CC                 int         3
  0040863D: CC                 int         3
  0040863E: CC                 int         3
  0040863F: CC                 int         3
  00408640: 8B FF              mov         edi,edi
  00408642: 55                 push        ebp
  00408643: 8B EC              mov         ebp,esp
  00408645: 81 EC 1C 01 00 00  sub         esp,11Ch
  0040864B: A1 18 30 41 00     mov         eax,dword ptr ds:[00413018h]
  00408650: 33 C5              xor         eax,ebp
  00408652: 89 45 FC           mov         dword ptr [ebp-4],eax
  00408655: 8B 4D 0C           mov         ecx,dword ptr [ebp+0Ch]
  00408658: 53                 push        ebx
  00408659: 8B 5D 14           mov         ebx,dword ptr [ebp+14h]
  0040865C: 56                 push        esi
  0040865D: 8B 75 08           mov         esi,dword ptr [ebp+8]
  00408660: 89 B5 FC FE FF FF  mov         dword ptr [ebp+FFFFFEFCh],esi
  00408666: 89 9D F8 FE FF FF  mov         dword ptr [ebp+FFFFFEF8h],ebx
  0040866C: 57                 push        edi
  0040866D: 8B 7D 10           mov         edi,dword ptr [ebp+10h]
  00408670: 89 BD 00 FF FF FF  mov         dword ptr [ebp+FFFFFF00h],edi
  00408676: 85 F6              test        esi,esi
  00408678: 75 25              jne         0040869F
  0040867A: 85 C9              test        ecx,ecx
  0040867C: 74 21              je          0040869F
  0040867E: E8 D8 C6 FF FF     call        00404D5B
  00408683: C7 00 16 00 00 00  mov         dword ptr [eax],16h
  00408689: E8 10 C6 FF FF     call        00404C9E
  0040868E: 8B 4D FC           mov         ecx,dword ptr [ebp-4]
  00408691: 5F                 pop         edi
  00408692: 5E                 pop         esi
  00408693: 33 CD              xor         ecx,ebp
  00408695: 5B                 pop         ebx
  00408696: E8 8C 93 FF FF     call        00401A27
  0040869B: 8B E5              mov         esp,ebp
  0040869D: 5D                 pop         ebp
  0040869E: C3                 ret
  0040869F: 85 FF              test        edi,edi
  004086A1: 74 DB              je          0040867E
  004086A3: 85 DB              test        ebx,ebx
  004086A5: 74 D7              je          0040867E
  004086A7: C7 85 F4 FE FF FF  mov         dword ptr [ebp+FFFFFEF4h],0
            00 00 00 00
  004086B1: 83 F9 02           cmp         ecx,2
  004086B4: 72 D8              jb          0040868E
  004086B6: 49                 dec         ecx
  004086B7: 0F AF CF           imul        ecx,edi
  004086BA: 03 CE              add         ecx,esi
  004086BC: 89 8D 04 FF FF FF  mov         dword ptr [ebp+FFFFFF04h],ecx
  004086C2: 8B C1              mov         eax,ecx
  004086C4: 33 D2              xor         edx,edx
  004086C6: 2B C6              sub         eax,esi
  004086C8: F7 F7              div         eax,edi
  004086CA: 8D 78 01           lea         edi,[eax+1]
  004086CD: 83 FF 08           cmp         edi,8
  004086D0: 0F 87 DC 00 00 00  ja          004087B2
  004086D6: 8B BD 00 FF FF FF  mov         edi,dword ptr [ebp+FFFFFF00h]
  004086DC: 3B CE              cmp         ecx,esi
  004086DE: 0F 86 A1 00 00 00  jbe         00408785
  004086E4: 8D 14 37           lea         edx,[edi+esi]
  004086E7: 89 95 EC FE FF FF  mov         dword ptr [ebp+FFFFFEECh],edx
  004086ED: 8D 49 00           lea         ecx,[ecx]
  004086F0: 8B C6              mov         eax,esi
  004086F2: 8B F2              mov         esi,edx
  004086F4: 89 85 08 FF FF FF  mov         dword ptr [ebp+FFFFFF08h],eax
  004086FA: 3B F1              cmp         esi,ecx
  004086FC: 77 31              ja          0040872F
  004086FE: 8B FF              mov         edi,edi
  00408700: 50                 push        eax
  00408701: 56                 push        esi
  00408702: 8B CB              mov         ecx,ebx
  00408704: FF 15 08 D1 40 00  call        dword ptr ds:[0040D108h]
  0040870A: FF D3              call        ebx
  0040870C: 83 C4 08           add         esp,8
  0040870F: 85 C0              test        eax,eax
  00408711: 7E 0A              jle         0040871D
  00408713: 8B C6              mov         eax,esi
  00408715: 89 85 08 FF FF FF  mov         dword ptr [ebp+FFFFFF08h],eax
  0040871B: EB 06              jmp         00408723
  0040871D: 8B 85 08 FF FF FF  mov         eax,dword ptr [ebp+FFFFFF08h]
  00408723: 8B 8D 04 FF FF FF  mov         ecx,dword ptr [ebp+FFFFFF04h]
  00408729: 03 F7              add         esi,edi
  0040872B: 3B F1              cmp         esi,ecx
  0040872D: 76 D1              jbe         00408700
  0040872F: 8B D1              mov         edx,ecx
  00408731: 3B C1              cmp         eax,ecx
  00408733: 74 34              je          00408769
  00408735: 2B C1              sub         eax,ecx
  00408737: 8B DF              mov         ebx,edi
  00408739: 89 85 08 FF FF FF  mov         dword ptr [ebp+FFFFFF08h],eax
  0040873F: 90                 nop
  00408740: 8A 0C 10           mov         cl,byte ptr [eax+edx]
  00408743: 8D 52 01           lea         edx,[edx+1]
  00408746: 8B B5 08 FF FF FF  mov         esi,dword ptr [ebp+FFFFFF08h]
  0040874C: 8A 42 FF           mov         al,byte ptr [edx-1]
  0040874F: 88 44 16 FF        mov         byte ptr [esi+edx-1],al
  00408753: 8B C6              mov         eax,esi
  00408755: 88 4A FF           mov         byte ptr [edx-1],cl
  00408758: 83 EB 01           sub         ebx,1
  0040875B: 75 E3              jne         00408740
  0040875D: 8B 9D F8 FE FF FF  mov         ebx,dword ptr [ebp+FFFFFEF8h]
  00408763: 8B 8D 04 FF FF FF  mov         ecx,dword ptr [ebp+FFFFFF04h]
  00408769: 8B B5 FC FE FF FF  mov         esi,dword ptr [ebp+FFFFFEFCh]
  0040876F: 2B CF              sub         ecx,edi
  00408771: 8B 95 EC FE FF FF  mov         edx,dword ptr [ebp+FFFFFEECh]
  00408777: 89 8D 04 FF FF FF  mov         dword ptr [ebp+FFFFFF04h],ecx
  0040877D: 3B CE              cmp         ecx,esi
  0040877F: 0F 87 6B FF FF FF  ja          004086F0
  00408785: 8B 8D F4 FE FF FF  mov         ecx,dword ptr [ebp+FFFFFEF4h]
  0040878B: 8B C1              mov         eax,ecx
  0040878D: 49                 dec         ecx
  0040878E: 89 8D F4 FE FF FF  mov         dword ptr [ebp+FFFFFEF4h],ecx
  00408794: 85 C0              test        eax,eax
  00408796: 0F 8E F2 FE FF FF  jle         0040868E
  0040879C: 8B 74 8D 84        mov         esi,dword ptr [ebp+ecx*4-7Ch]
  004087A0: 8B 8C 8D 0C FF FF  mov         ecx,dword ptr [ebp+ecx*4+FFFFFF0Ch]
            FF
  004087A7: 89 B5 FC FE FF FF  mov         dword ptr [ebp+FFFFFEFCh],esi
  004087AD: E9 0A FF FF FF     jmp         004086BC
  004087B2: 8B B5 00 FF FF FF  mov         esi,dword ptr [ebp+FFFFFF00h]
  004087B8: 8B CB              mov         ecx,ebx
  004087BA: 8B 85 FC FE FF FF  mov         eax,dword ptr [ebp+FFFFFEFCh]
  004087C0: D1 EF              shr         edi,1
  004087C2: 0F AF FE           imul        edi,esi
  004087C5: 03 F8              add         edi,eax
  004087C7: 57                 push        edi
  004087C8: 50                 push        eax
  004087C9: FF 15 08 D1 40 00  call        dword ptr ds:[0040D108h]
  004087CF: FF D3              call        ebx
  004087D1: 83 C4 08           add         esp,8
  004087D4: 85 C0              test        eax,eax
  004087D6: 7E 10              jle         004087E8
  004087D8: 56                 push        esi
  004087D9: 57                 push        edi
  004087DA: FF B5 FC FE FF FF  push        dword ptr [ebp+FFFFFEFCh]
  004087E0: E8 1B FE FF FF     call        00408600
  004087E5: 83 C4 0C           add         esp,0Ch
  004087E8: FF B5 04 FF FF FF  push        dword ptr [ebp+FFFFFF04h]
  004087EE: 8B CB              mov         ecx,ebx
  004087F0: FF B5 FC FE FF FF  push        dword ptr [ebp+FFFFFEFCh]
  004087F6: FF 15 08 D1 40 00  call        dword ptr ds:[0040D108h]
  004087FC: FF D3              call        ebx
  004087FE: 83 C4 08           add         esp,8
  00408801: 85 C0              test        eax,eax
  00408803: 7E 15              jle         0040881A
  00408805: 56                 push        esi
  00408806: FF B5 04 FF FF FF  push        dword ptr [ebp+FFFFFF04h]
  0040880C: FF B5 FC FE FF FF  push        dword ptr [ebp+FFFFFEFCh]
  00408812: E8 E9 FD FF FF     call        00408600
  00408817: 83 C4 0C           add         esp,0Ch
  0040881A: FF B5 04 FF FF FF  push        dword ptr [ebp+FFFFFF04h]
  00408820: 8B CB              mov         ecx,ebx
  00408822: 57                 push        edi
  00408823: FF 15 08 D1 40 00  call        dword ptr ds:[0040D108h]
  00408829: FF D3              call        ebx
  0040882B: 83 C4 08           add         esp,8
  0040882E: 85 C0              test        eax,eax
  00408830: 7E 10              jle         00408842
  00408832: 56                 push        esi
  00408833: FF B5 04 FF FF FF  push        dword ptr [ebp+FFFFFF04h]
  00408839: 57                 push        edi
  0040883A: E8 C1 FD FF FF     call        00408600
  0040883F: 83 C4 0C           add         esp,0Ch
  00408842: 8B 85 04 FF FF FF  mov         eax,dword ptr [ebp+FFFFFF04h]
  00408848: 8B D8              mov         ebx,eax
  0040884A: 8B B5 FC FE FF FF  mov         esi,dword ptr [ebp+FFFFFEFCh]
  00408850: 8B 95 00 FF FF FF  mov         edx,dword ptr [ebp+FFFFFF00h]
  00408856: 89 85 08 FF FF FF  mov         dword ptr [ebp+FFFFFF08h],eax
  0040885C: 8D 64 24 00        lea         esp,[esp]
  00408860: 3B FE              cmp         edi,esi
  00408862: 76 37              jbe         0040889B
  00408864: 03 F2              add         esi,edx
  00408866: 89 B5 F0 FE FF FF  mov         dword ptr [ebp+FFFFFEF0h],esi
  0040886C: 3B F7              cmp         esi,edi
  0040886E: 73 25              jae         00408895
  00408870: 8B 8D F8 FE FF FF  mov         ecx,dword ptr [ebp+FFFFFEF8h]
  00408876: 57                 push        edi
  00408877: 56                 push        esi
  00408878: FF 15 08 D1 40 00  call        dword ptr ds:[0040D108h]
  0040887E: FF 95 F8 FE FF FF  call        dword ptr [ebp+FFFFFEF8h]
  00408884: 8B 95 00 FF FF FF  mov         edx,dword ptr [ebp+FFFFFF00h]
  0040888A: 83 C4 08           add         esp,8
  0040888D: 85 C0              test        eax,eax
  0040888F: 7E D3              jle         00408864
  00408891: 3B FE              cmp         edi,esi
  00408893: 77 3D              ja          004088D2
  00408895: 8B 85 04 FF FF FF  mov         eax,dword ptr [ebp+FFFFFF04h]
  0040889B: 8B 9D F8 FE FF FF  mov         ebx,dword ptr [ebp+FFFFFEF8h]
  004088A1: 03 F2              add         esi,edx
  004088A3: 3B F0              cmp         esi,eax
  004088A5: 77 1F              ja          004088C6
  004088A7: 57                 push        edi
  004088A8: 56                 push        esi
  004088A9: 8B CB              mov         ecx,ebx
  004088AB: FF 15 08 D1 40 00  call        dword ptr ds:[0040D108h]
  004088B1: FF D3              call        ebx
  004088B3: 8B 95 00 FF FF FF  mov         edx,dword ptr [ebp+FFFFFF00h]
  004088B9: 83 C4 08           add         esp,8
  004088BC: 85 C0              test        eax,eax
  004088BE: 8B 85 04 FF FF FF  mov         eax,dword ptr [ebp+FFFFFF04h]
  004088C4: 7E DB              jle         004088A1
  004088C6: 8B 9D 08 FF FF FF  mov         ebx,dword ptr [ebp+FFFFFF08h]
  004088CC: 89 B5 F0 FE FF FF  mov         dword ptr [ebp+FFFFFEF0h],esi
  004088D2: 8B B5 F8 FE FF FF  mov         esi,dword ptr [ebp+FFFFFEF8h]
  004088D8: EB 06              jmp         004088E0
  004088DA: 8D 9B 00 00 00 00  lea         ebx,[ebx+00000000h]
  004088E0: 8B 95 00 FF FF FF  mov         edx,dword ptr [ebp+FFFFFF00h]
  004088E6: 8B C3              mov         eax,ebx
  004088E8: 2B DA              sub         ebx,edx
  004088EA: 89 85 08 FF FF FF  mov         dword ptr [ebp+FFFFFF08h],eax
  004088F0: 3B DF              cmp         ebx,edi
  004088F2: 76 1F              jbe         00408913
  004088F4: 57                 push        edi
  004088F5: 53                 push        ebx
  004088F6: 8B CE              mov         ecx,esi
  004088F8: FF 15 08 D1 40 00  call        dword ptr ds:[0040D108h]
  004088FE: FF D6              call        esi
  00408900: 83 C4 08           add         esp,8
  00408903: 85 C0              test        eax,eax
  00408905: 7F D9              jg          004088E0
  00408907: 8B 95 00 FF FF FF  mov         edx,dword ptr [ebp+FFFFFF00h]
  0040890D: 8B 85 08 FF FF FF  mov         eax,dword ptr [ebp+FFFFFF08h]
  00408913: 8B B5 F0 FE FF FF  mov         esi,dword ptr [ebp+FFFFFEF0h]
  00408919: 89 9D 08 FF FF FF  mov         dword ptr [ebp+FFFFFF08h],ebx
  0040891F: 3B DE              cmp         ebx,esi
  00408921: 72 59              jb          0040897C
  00408923: 89 95 E4 FE FF FF  mov         dword ptr [ebp+FFFFFEE4h],edx
  00408929: 89 9D E8 FE FF FF  mov         dword ptr [ebp+FFFFFEE8h],ebx
  0040892F: 74 36              je          00408967
  00408931: 2B F3              sub         esi,ebx
  00408933: 8B D3              mov         edx,ebx
  00408935: 8B 9D E4 FE FF FF  mov         ebx,dword ptr [ebp+FFFFFEE4h]
  0040893B: EB 03              jmp         00408940
  0040893D: 8D 49 00           lea         ecx,[ecx]
  00408940: 8A 02              mov         al,byte ptr [edx]
  00408942: 8D 52 01           lea         edx,[edx+1]
  00408945: 8A 4C 16 FF        mov         cl,byte ptr [esi+edx-1]
  00408949: 88 44 16 FF        mov         byte ptr [esi+edx-1],al
  0040894D: 88 4A FF           mov         byte ptr [edx-1],cl
  00408950: 83 EB 01           sub         ebx,1
  00408953: 75 EB              jne         00408940
  00408955: 8B B5 F0 FE FF FF  mov         esi,dword ptr [ebp+FFFFFEF0h]
  0040895B: 8B 9D 08 FF FF FF  mov         ebx,dword ptr [ebp+FFFFFF08h]
  00408961: 8B 95 00 FF FF FF  mov         edx,dword ptr [ebp+FFFFFF00h]
  00408967: 8B 85 04 FF FF FF  mov         eax,dword ptr [ebp+FFFFFF04h]
  0040896D: 3B FB              cmp         edi,ebx
  0040896F: 0F 85 EB FE FF FF  jne         00408860
  00408975: 8B FE              mov         edi,esi
  00408977: E9 E4 FE FF FF     jmp         00408860
  0040897C: 3B F8              cmp         edi,eax
  0040897E: 73 35              jae         004089B5
  00408980: 8B 9D F8 FE FF FF  mov         ebx,dword ptr [ebp+FFFFFEF8h]
  00408986: 2B C2              sub         eax,edx
  00408988: 89 85 08 FF FF FF  mov         dword ptr [ebp+FFFFFF08h],eax
  0040898E: 3B C7              cmp         eax,edi
  00408990: 76 23              jbe         004089B5
  00408992: 57                 push        edi
  00408993: 50                 push        eax
  00408994: 8B CB              mov         ecx,ebx
  00408996: FF 15 08 D1 40 00  call        dword ptr ds:[0040D108h]
  0040899C: FF D3              call        ebx
  0040899E: 8B 95 00 FF FF FF  mov         edx,dword ptr [ebp+FFFFFF00h]
  004089A4: 83 C4 08           add         esp,8
  004089A7: 85 C0              test        eax,eax
  004089A9: 8B 85 08 FF FF FF  mov         eax,dword ptr [ebp+FFFFFF08h]
  004089AF: 74 D5              je          00408986
  004089B1: 3B F8              cmp         edi,eax
  004089B3: 72 3B              jb          004089F0
  004089B5: 8B 9D F8 FE FF FF  mov         ebx,dword ptr [ebp+FFFFFEF8h]
  004089BB: 8B B5 00 FF FF FF  mov         esi,dword ptr [ebp+FFFFFF00h]
  004089C1: 2B C6              sub         eax,esi
  004089C3: 89 85 08 FF FF FF  mov         dword ptr [ebp+FFFFFF08h],eax
  004089C9: 3B 85 FC FE FF FF  cmp         eax,dword ptr [ebp+FFFFFEFCh]
  004089CF: 76 19              jbe         004089EA
  004089D1: 57                 push        edi
  004089D2: 50                 push        eax
  004089D3: 8B CB              mov         ecx,ebx
  004089D5: FF 15 08 D1 40 00  call        dword ptr ds:[0040D108h]
  004089DB: FF D3              call        ebx
  004089DD: 83 C4 08           add         esp,8
  004089E0: 85 C0              test        eax,eax
  004089E2: 8B 85 08 FF FF FF  mov         eax,dword ptr [ebp+FFFFFF08h]
  004089E8: 74 D7              je          004089C1
  004089EA: 8B B5 F0 FE FF FF  mov         esi,dword ptr [ebp+FFFFFEF0h]
  004089F0: 8B 95 04 FF FF FF  mov         edx,dword ptr [ebp+FFFFFF04h]
  004089F6: 8B CA              mov         ecx,edx
  004089F8: 8B BD FC FE FF FF  mov         edi,dword ptr [ebp+FFFFFEFCh]
  004089FE: 2B CE              sub         ecx,esi
  00408A00: 2B C7              sub         eax,edi
  00408A02: 3B C1              cmp         eax,ecx
  00408A04: 7C 41              jl          00408A47
  00408A06: 8B 85 08 FF FF FF  mov         eax,dword ptr [ebp+FFFFFF08h]
  00408A0C: 3B F8              cmp         edi,eax
  00408A0E: 73 18              jae         00408A28
  00408A10: 8B 8D F4 FE FF FF  mov         ecx,dword ptr [ebp+FFFFFEF4h]
  00408A16: 89 7C 8D 84        mov         dword ptr [ebp+ecx*4-7Ch],edi
  00408A1A: 89 84 8D 0C FF FF  mov         dword ptr [ebp+ecx*4+FFFFFF0Ch],eax
            FF
  00408A21: 41                 inc         ecx
  00408A22: 89 8D F4 FE FF FF  mov         dword ptr [ebp+FFFFFEF4h],ecx
  00408A28: 8B 8D 04 FF FF FF  mov         ecx,dword ptr [ebp+FFFFFF04h]
  00408A2E: 8B BD 00 FF FF FF  mov         edi,dword ptr [ebp+FFFFFF00h]
  00408A34: 3B F1              cmp         esi,ecx
  00408A36: 0F 83 49 FD FF FF  jae         00408785
  00408A3C: 89 B5 FC FE FF FF  mov         dword ptr [ebp+FFFFFEFCh],esi
  00408A42: E9 7B FC FF FF     jmp         004086C2
  00408A47: 3B F2              cmp         esi,edx
  00408A49: 73 18              jae         00408A63
  00408A4B: 8B 85 F4 FE FF FF  mov         eax,dword ptr [ebp+FFFFFEF4h]
  00408A51: 89 74 85 84        mov         dword ptr [ebp+eax*4-7Ch],esi
  00408A55: 89 94 85 0C FF FF  mov         dword ptr [ebp+eax*4+FFFFFF0Ch],edx
            FF
  00408A5C: 40                 inc         eax
  00408A5D: 89 85 F4 FE FF FF  mov         dword ptr [ebp+FFFFFEF4h],eax
  00408A63: 8B 85 08 FF FF FF  mov         eax,dword ptr [ebp+FFFFFF08h]
  00408A69: 8B B5 FC FE FF FF  mov         esi,dword ptr [ebp+FFFFFEFCh]
  00408A6F: 8B BD 00 FF FF FF  mov         edi,dword ptr [ebp+FFFFFF00h]
  00408A75: 3B F0              cmp         esi,eax
  00408A77: 0F 83 08 FD FF FF  jae         00408785
  00408A7D: 8B C8              mov         ecx,eax
  00408A7F: E9 38 FC FF FF     jmp         004086BC
  00408A84: 8B FF              mov         edi,edi
  00408A86: 55                 push        ebp
  00408A87: 8B EC              mov         ebp,esp
  00408A89: 8B 4D 08           mov         ecx,dword ptr [ebp+8]
  00408A8C: 53                 push        ebx
  00408A8D: 8B 5D 10           mov         ebx,dword ptr [ebp+10h]
  00408A90: 56                 push        esi
  00408A91: 8B 75 14           mov         esi,dword ptr [ebp+14h]
  00408A94: 85 F6              test        esi,esi
  00408A96: 75 1E              jne         00408AB6
  00408A98: 85 C9              test        ecx,ecx
  00408A9A: 75 1E              jne         00408ABA
  00408A9C: 39 75 0C           cmp         dword ptr [ebp+0Ch],esi
  00408A9F: 74 27              je          00408AC8
  00408AA1: E8 B5 C2 FF FF     call        00404D5B
  00408AA6: 6A 16              push        16h
  00408AA8: 5E                 pop         esi
  00408AA9: 89 30              mov         dword ptr [eax],esi
  00408AAB: E8 EE C1 FF FF     call        00404C9E
  00408AB0: 8B C6              mov         eax,esi
  00408AB2: 5E                 pop         esi
  00408AB3: 5B                 pop         ebx
  00408AB4: 5D                 pop         ebp
  00408AB5: C3                 ret
  00408AB6: 85 C9              test        ecx,ecx
  00408AB8: 74 E7              je          00408AA1
  00408ABA: 8B 45 0C           mov         eax,dword ptr [ebp+0Ch]
  00408ABD: 85 C0              test        eax,eax
  00408ABF: 74 E0              je          00408AA1
  00408AC1: 85 F6              test        esi,esi
  00408AC3: 75 07              jne         00408ACC
  00408AC5: C6 01 00           mov         byte ptr [ecx],0
  00408AC8: 33 C0              xor         eax,eax
  00408ACA: EB E6              jmp         00408AB2
  00408ACC: 85 DB              test        ebx,ebx
  00408ACE: 75 04              jne         00408AD4
  00408AD0: 88 19              mov         byte ptr [ecx],bl
  00408AD2: EB CD              jmp         00408AA1
  00408AD4: 2B D9              sub         ebx,ecx
  00408AD6: 8B D1              mov         edx,ecx
  00408AD8: 57                 push        edi
  00408AD9: 8B F8              mov         edi,eax
  00408ADB: 83 FE FF           cmp         esi,0FFFFFFFFh
  00408ADE: 75 11              jne         00408AF1
  00408AE0: 8A 04 13           mov         al,byte ptr [ebx+edx]
  00408AE3: 88 02              mov         byte ptr [edx],al
  00408AE5: 42                 inc         edx
  00408AE6: 84 C0              test        al,al
  00408AE8: 74 27              je          00408B11
  00408AEA: 83 EF 01           sub         edi,1
  00408AED: 75 F1              jne         00408AE0
  00408AEF: EB 20              jmp         00408B11
  00408AF1: 8B CE              mov         ecx,esi
  00408AF3: 8A 04 13           mov         al,byte ptr [ebx+edx]
  00408AF6: 88 02              mov         byte ptr [edx],al
  00408AF8: 42                 inc         edx
  00408AF9: 84 C0              test        al,al
  00408AFB: 74 0A              je          00408B07
  00408AFD: 83 EF 01           sub         edi,1
  00408B00: 74 05              je          00408B07
  00408B02: 83 E9 01           sub         ecx,1
  00408B05: 75 EC              jne         00408AF3
  00408B07: 85 C9              test        ecx,ecx
  00408B09: 8B 4D 08           mov         ecx,dword ptr [ebp+8]
  00408B0C: 75 03              jne         00408B11
  00408B0E: C6 02 00           mov         byte ptr [edx],0
  00408B11: 85 FF              test        edi,edi
  00408B13: 5F                 pop         edi
  00408B14: 75 B2              jne         00408AC8
  00408B16: 83 FE FF           cmp         esi,0FFFFFFFFh
  00408B19: 75 0D              jne         00408B28
  00408B1B: 8B 45 0C           mov         eax,dword ptr [ebp+0Ch]
  00408B1E: 6A 50              push        50h
  00408B20: C6 44 01 FF 00     mov         byte ptr [ecx+eax-1],0
  00408B25: 58                 pop         eax
  00408B26: EB 8A              jmp         00408AB2
  00408B28: C6 01 00           mov         byte ptr [ecx],0
  00408B2B: E8 2B C2 FF FF     call        00404D5B
  00408B30: 6A 22              push        22h
  00408B32: E9 71 FF FF FF     jmp         00408AA8
  00408B37: 8B FF              mov         edi,edi
  00408B39: 55                 push        ebp
  00408B3A: 8B EC              mov         ebp,esp
  00408B3C: 5D                 pop         ebp
  00408B3D: E9 42 FF FF FF     jmp         00408A84
  00408B42: CC                 int         3
  00408B43: CC                 int         3
  00408B44: CC                 int         3
  00408B45: CC                 int         3
  00408B46: CC                 int         3
  00408B47: CC                 int         3
  00408B48: CC                 int         3
  00408B49: CC                 int         3
  00408B4A: CC                 int         3
  00408B4B: CC                 int         3
  00408B4C: CC                 int         3
  00408B4D: CC                 int         3
  00408B4E: CC                 int         3
  00408B4F: CC                 int         3
  00408B50: 55                 push        ebp
  00408B51: 8B EC              mov         ebp,esp
  00408B53: 56                 push        esi
  00408B54: 33 C0              xor         eax,eax
  00408B56: 50                 push        eax
  00408B57: 50                 push        eax
  00408B58: 50                 push        eax
  00408B59: 50                 push        eax
  00408B5A: 50                 push        eax
  00408B5B: 50                 push        eax
  00408B5C: 50                 push        eax
  00408B5D: 50                 push        eax
  00408B5E: 8B 55 0C           mov         edx,dword ptr [ebp+0Ch]
  00408B61: 8D 49 00           lea         ecx,[ecx]
  00408B64: 8A 02              mov         al,byte ptr [edx]
  00408B66: 0A C0              or          al,al
  00408B68: 74 09              je          00408B73
  00408B6A: 83 C2 01           add         edx,1
  00408B6D: 0F AB 04 24        bts         dword ptr [esp],eax
  00408B71: EB F1              jmp         00408B64
  00408B73: 8B 75 08           mov         esi,dword ptr [ebp+8]
  00408B76: 8B FF              mov         edi,edi
  00408B78: 8A 06              mov         al,byte ptr [esi]
  00408B7A: 0A C0              or          al,al
  00408B7C: 74 0C              je          00408B8A
  00408B7E: 83 C6 01           add         esi,1
  00408B81: 0F A3 04 24        bt          dword ptr [esp],eax
  00408B85: 73 F1              jae         00408B78
  00408B87: 8D 46 FF           lea         eax,[esi-1]
  00408B8A: 83 C4 20           add         esp,20h
  00408B8D: 5E                 pop         esi
  00408B8E: C9                 leave
  00408B8F: C3                 ret
  00408B90: 8B FF              mov         edi,edi
  00408B92: 55                 push        ebp
  00408B93: 8B EC              mov         ebp,esp
  00408B95: 6A 00              push        0
  00408B97: FF 75 0C           push        dword ptr [ebp+0Ch]
  00408B9A: FF 75 08           push        dword ptr [ebp+8]
  00408B9D: E8 05 00 00 00     call        00408BA7
  00408BA2: 83 C4 0C           add         esp,0Ch
  00408BA5: 5D                 pop         ebp
  00408BA6: C3                 ret
  00408BA7: 8B FF              mov         edi,edi
  00408BA9: 55                 push        ebp
  00408BAA: 8B EC              mov         ebp,esp
  00408BAC: 83 EC 10           sub         esp,10h
  00408BAF: 83 7D 08 00        cmp         dword ptr [ebp+8],0
  00408BB3: 75 14              jne         00408BC9
  00408BB5: E8 A1 C1 FF FF     call        00404D5B
  00408BBA: C7 00 16 00 00 00  mov         dword ptr [eax],16h
  00408BC0: E8 D9 C0 FF FF     call        00404C9E
  00408BC5: 33 C0              xor         eax,eax
  00408BC7: C9                 leave
  00408BC8: C3                 ret
  00408BC9: 56                 push        esi
  00408BCA: 8B 75 0C           mov         esi,dword ptr [ebp+0Ch]
  00408BCD: 85 F6              test        esi,esi
  00408BCF: 75 12              jne         00408BE3
  00408BD1: E8 85 C1 FF FF     call        00404D5B
  00408BD6: C7 00 16 00 00 00  mov         dword ptr [eax],16h
  00408BDC: E8 BD C0 FF FF     call        00404C9E
  00408BE1: EB 05              jmp         00408BE8
  00408BE3: 39 75 08           cmp         dword ptr [ebp+8],esi
  00408BE6: 72 04              jb          00408BEC
  00408BE8: 33 C0              xor         eax,eax
  00408BEA: EB 45              jmp         00408C31
  00408BEC: FF 75 10           push        dword ptr [ebp+10h]
  00408BEF: 8D 4D F0           lea         ecx,[ebp-10h]
  00408BF2: E8 2E B8 FF FF     call        00404425
  00408BF7: 8B 4D F8           mov         ecx,dword ptr [ebp-8]
  00408BFA: 8D 56 FF           lea         edx,[esi-1]
  00408BFD: 83 79 08 00        cmp         dword ptr [ecx+8],0
  00408C01: 74 1C              je          00408C1F
  00408C03: 4A                 dec         edx
  00408C04: 39 55 08           cmp         dword ptr [ebp+8],edx
  00408C07: 77 0A              ja          00408C13
  00408C09: 0F B6 02           movzx       eax,byte ptr [edx]
  00408C0C: F6 44 08 19 04     test        byte ptr [eax+ecx+19h],4
  00408C11: 75 F0              jne         00408C03
  00408C13: 8B C6              mov         eax,esi
  00408C15: 2B C2              sub         eax,edx
  00408C17: 8B D6              mov         edx,esi
  00408C19: 83 E0 01           and         eax,1
  00408C1C: 2B D0              sub         edx,eax
  00408C1E: 4A                 dec         edx
  00408C1F: 80 7D FC 00        cmp         byte ptr [ebp-4],0
  00408C23: 74 0A              je          00408C2F
  00408C25: 8B 4D F0           mov         ecx,dword ptr [ebp-10h]
  00408C28: 83 A1 50 03 00 00  and         dword ptr [ecx+00000350h],0FFFFFFFDh
            FD
  00408C2F: 8B C2              mov         eax,edx
  00408C31: 5E                 pop         esi
  00408C32: C9                 leave
  00408C33: C3                 ret
  00408C34: 8B FF              mov         edi,edi
  00408C36: 55                 push        ebp
  00408C37: 8B EC              mov         ebp,esp
  00408C39: 51                 push        ecx
  00408C3A: 51                 push        ecx
  00408C3B: A1 18 30 41 00     mov         eax,dword ptr ds:[00413018h]
  00408C40: 33 C5              xor         eax,ebp
  00408C42: 89 45 FC           mov         dword ptr [ebp-4],eax
  00408C45: 53                 push        ebx
  00408C46: 56                 push        esi
  00408C47: 8B 75 18           mov         esi,dword ptr [ebp+18h]
  00408C4A: 57                 push        edi
  00408C4B: 85 F6              test        esi,esi
  00408C4D: 7E 14              jle         00408C63
  00408C4F: 56                 push        esi
  00408C50: FF 75 14           push        dword ptr [ebp+14h]
  00408C53: E8 9C 14 00 00     call        0040A0F4
  00408C58: 59                 pop         ecx
  00408C59: 3B C6              cmp         eax,esi
  00408C5B: 59                 pop         ecx
  00408C5C: 8D 70 01           lea         esi,[eax+1]
  00408C5F: 7C 02              jl          00408C63
  00408C61: 8B F0              mov         esi,eax
  00408C63: 8B 7D 24           mov         edi,dword ptr [ebp+24h]
  00408C66: 85 FF              test        edi,edi
  00408C68: 75 0B              jne         00408C75
  00408C6A: 8B 45 08           mov         eax,dword ptr [ebp+8]
  00408C6D: 8B 00              mov         eax,dword ptr [eax]
  00408C6F: 8B 78 08           mov         edi,dword ptr [eax+8]
  00408C72: 89 7D 24           mov         dword ptr [ebp+24h],edi
  00408C75: 33 C0              xor         eax,eax
  00408C77: 39 45 28           cmp         dword ptr [ebp+28h],eax
  00408C7A: 6A 00              push        0
  00408C7C: 6A 00              push        0
  00408C7E: 0F 95 C0           setne       al
  00408C81: 56                 push        esi
  00408C82: FF 75 14           push        dword ptr [ebp+14h]
  00408C85: 8D 04 C5 01 00 00  lea         eax,[eax*8+00000001h]
            00
  00408C8C: 50                 push        eax
  00408C8D: 57                 push        edi
  00408C8E: E8 A3 D3 FF FF     call        00406036
  00408C93: 8B D0              mov         edx,eax
  00408C95: 83 C4 18           add         esp,18h
  00408C98: 89 55 F8           mov         dword ptr [ebp-8],edx
  00408C9B: 85 D2              test        edx,edx
  00408C9D: 0F 84 58 01 00 00  je          00408DFB
  00408CA3: 8D 04 12           lea         eax,[edx+edx]
  00408CA6: 8D 48 08           lea         ecx,[eax+8]
  00408CA9: 3B C1              cmp         eax,ecx
  00408CAB: 1B C0              sbb         eax,eax
  00408CAD: 23 C1              and         eax,ecx
  00408CAF: 74 35              je          00408CE6
  00408CB1: 3D 00 04 00 00     cmp         eax,400h
  00408CB6: 77 13              ja          00408CCB
  00408CB8: E8 63 3A 00 00     call        0040C720
  00408CBD: 8B DC              mov         ebx,esp
  00408CBF: 85 DB              test        ebx,ebx
  00408CC1: 74 1E              je          00408CE1
  00408CC3: C7 03 CC CC 00 00  mov         dword ptr [ebx],0CCCCh
  00408CC9: EB 13              jmp         00408CDE
  00408CCB: 50                 push        eax
  00408CCC: E8 AE E0 FF FF     call        00406D7F
  00408CD1: 8B D8              mov         ebx,eax
  00408CD3: 59                 pop         ecx
  00408CD4: 85 DB              test        ebx,ebx
  00408CD6: 74 09              je          00408CE1
  00408CD8: C7 03 DD DD 00 00  mov         dword ptr [ebx],0DDDDh
  00408CDE: 83 C3 08           add         ebx,8
  00408CE1: 8B 55 F8           mov         edx,dword ptr [ebp-8]
  00408CE4: EB 02              jmp         00408CE8
  00408CE6: 33 DB              xor         ebx,ebx
  00408CE8: 85 DB              test        ebx,ebx
  00408CEA: 0F 84 00 01 00 00  je          00408DF0
  00408CF0: 52                 push        edx
  00408CF1: 53                 push        ebx
  00408CF2: 56                 push        esi
  00408CF3: FF 75 14           push        dword ptr [ebp+14h]
  00408CF6: 6A 01              push        1
  00408CF8: 57                 push        edi
  00408CF9: E8 38 D3 FF FF     call        00406036
  00408CFE: 83 C4 18           add         esp,18h
  00408D01: 85 C0              test        eax,eax
  00408D03: 0F 84 E7 00 00 00  je          00408DF0
  00408D09: 8B 7D F8           mov         edi,dword ptr [ebp-8]
  00408D0C: 33 C0              xor         eax,eax
  00408D0E: 50                 push        eax
  00408D0F: 50                 push        eax
  00408D10: 50                 push        eax
  00408D11: 50                 push        eax
  00408D12: 50                 push        eax
  00408D13: 57                 push        edi
  00408D14: 53                 push        ebx
  00408D15: FF 75 10           push        dword ptr [ebp+10h]
  00408D18: FF 75 0C           push        dword ptr [ebp+0Ch]
  00408D1B: E8 22 E9 FF FF     call        00407642
  00408D20: 8B F0              mov         esi,eax
  00408D22: 85 F6              test        esi,esi
  00408D24: 0F 84 C6 00 00 00  je          00408DF0
  00408D2A: BA 00 04 00 00     mov         edx,400h
  00408D2F: 85 55 10           test        dword ptr [ebp+10h],edx
  00408D32: 74 38              je          00408D6C
  00408D34: 8B 45 20           mov         eax,dword ptr [ebp+20h]
  00408D37: 85 C0              test        eax,eax
  00408D39: 0F 84 B3 00 00 00  je          00408DF2
  00408D3F: 3B F0              cmp         esi,eax
  00408D41: 0F 8F A9 00 00 00  jg          00408DF0
  00408D47: 33 C9              xor         ecx,ecx
  00408D49: 51                 push        ecx
  00408D4A: 51                 push        ecx
  00408D4B: 51                 push        ecx
  00408D4C: 50                 push        eax
  00408D4D: FF 75 1C           push        dword ptr [ebp+1Ch]
  00408D50: 57                 push        edi
  00408D51: 53                 push        ebx
  00408D52: FF 75 10           push        dword ptr [ebp+10h]
  00408D55: FF 75 0C           push        dword ptr [ebp+0Ch]
  00408D58: E8 E5 E8 FF FF     call        00407642
  00408D5D: 8B F0              mov         esi,eax
  00408D5F: 85 F6              test        esi,esi
  00408D61: 0F 85 8B 00 00 00  jne         00408DF2
  00408D67: E9 84 00 00 00     jmp         00408DF0
  00408D6C: 8D 04 36           lea         eax,[esi+esi]
  00408D6F: 8D 48 08           lea         ecx,[eax+8]
  00408D72: 3B C1              cmp         eax,ecx
  00408D74: 1B C0              sbb         eax,eax
  00408D76: 23 C1              and         eax,ecx
  00408D78: 74 2F              je          00408DA9
  00408D7A: 3B C2              cmp         eax,edx
  00408D7C: 77 13              ja          00408D91
  00408D7E: E8 9D 39 00 00     call        0040C720
  00408D83: 8B FC              mov         edi,esp
  00408D85: 85 FF              test        edi,edi
  00408D87: 74 60              je          00408DE9
  00408D89: C7 07 CC CC 00 00  mov         dword ptr [edi],0CCCCh
  00408D8F: EB 13              jmp         00408DA4
  00408D91: 50                 push        eax
  00408D92: E8 E8 DF FF FF     call        00406D7F
  00408D97: 8B F8              mov         edi,eax
  00408D99: 59                 pop         ecx
  00408D9A: 85 FF              test        edi,edi
  00408D9C: 74 4B              je          00408DE9
  00408D9E: C7 07 DD DD 00 00  mov         dword ptr [edi],0DDDDh
  00408DA4: 83 C7 08           add         edi,8
  00408DA7: EB 02              jmp         00408DAB
  00408DA9: 33 FF              xor         edi,edi
  00408DAB: 85 FF              test        edi,edi
  00408DAD: 74 3A              je          00408DE9
  00408DAF: 6A 00              push        0
  00408DB1: 6A 00              push        0
  00408DB3: 6A 00              push        0
  00408DB5: 56                 push        esi
  00408DB6: 57                 push        edi
  00408DB7: FF 75 F8           push        dword ptr [ebp-8]
  00408DBA: 53                 push        ebx
  00408DBB: FF 75 10           push        dword ptr [ebp+10h]
  00408DBE: FF 75 0C           push        dword ptr [ebp+0Ch]
  00408DC1: E8 7C E8 FF FF     call        00407642
  00408DC6: 85 C0              test        eax,eax
  00408DC8: 74 1F              je          00408DE9
  00408DCA: 33 C0              xor         eax,eax
  00408DCC: 50                 push        eax
  00408DCD: 50                 push        eax
  00408DCE: 39 45 20           cmp         dword ptr [ebp+20h],eax
  00408DD1: 75 3A              jne         00408E0D
  00408DD3: 50                 push        eax
  00408DD4: 50                 push        eax
  00408DD5: 56                 push        esi
  00408DD6: 57                 push        edi
  00408DD7: 50                 push        eax
  00408DD8: FF 75 24           push        dword ptr [ebp+24h]
  00408DDB: E8 D2 D2 FF FF     call        004060B2
  00408DE0: 8B F0              mov         esi,eax
  00408DE2: 83 C4 20           add         esp,20h
  00408DE5: 85 F6              test        esi,esi
  00408DE7: 75 2C              jne         00408E15
  00408DE9: 57                 push        edi
  00408DEA: E8 E1 E0 FF FF     call        00406ED0
  00408DEF: 59                 pop         ecx
  00408DF0: 33 F6              xor         esi,esi
  00408DF2: 53                 push        ebx
  00408DF3: E8 D8 E0 FF FF     call        00406ED0
  00408DF8: 59                 pop         ecx
  00408DF9: 8B C6              mov         eax,esi
  00408DFB: 8D 65 EC           lea         esp,[ebp-14h]
  00408DFE: 5F                 pop         edi
  00408DFF: 5E                 pop         esi
  00408E00: 5B                 pop         ebx
  00408E01: 8B 4D FC           mov         ecx,dword ptr [ebp-4]
  00408E04: 33 CD              xor         ecx,ebp
  00408E06: E8 1C 8C FF FF     call        00401A27
  00408E0B: C9                 leave
  00408E0C: C3                 ret
  00408E0D: FF 75 20           push        dword ptr [ebp+20h]
  00408E10: FF 75 1C           push        dword ptr [ebp+1Ch]
  00408E13: EB C0              jmp         00408DD5
  00408E15: 57                 push        edi
  00408E16: E8 B5 E0 FF FF     call        00406ED0
  00408E1B: 59                 pop         ecx
  00408E1C: EB D4              jmp         00408DF2
  00408E1E: 8B FF              mov         edi,edi
  00408E20: 55                 push        ebp
  00408E21: 8B EC              mov         ebp,esp
  00408E23: 83 EC 10           sub         esp,10h
  00408E26: FF 75 08           push        dword ptr [ebp+8]
  00408E29: 8D 4D F0           lea         ecx,[ebp-10h]
  00408E2C: E8 F4 B5 FF FF     call        00404425
  00408E31: FF 75 28           push        dword ptr [ebp+28h]
  00408E34: 8D 45 F4           lea         eax,[ebp-0Ch]
  00408E37: FF 75 24           push        dword ptr [ebp+24h]
  00408E3A: FF 75 20           push        dword ptr [ebp+20h]
  00408E3D: FF 75 1C           push        dword ptr [ebp+1Ch]
  00408E40: FF 75 18           push        dword ptr [ebp+18h]
  00408E43: FF 75 14           push        dword ptr [ebp+14h]
  00408E46: FF 75 10           push        dword ptr [ebp+10h]
  00408E49: FF 75 0C           push        dword ptr [ebp+0Ch]
  00408E4C: 50                 push        eax
  00408E4D: E8 E2 FD FF FF     call        00408C34
  00408E52: 83 C4 24           add         esp,24h
  00408E55: 80 7D FC 00        cmp         byte ptr [ebp-4],0
  00408E59: 74 0A              je          00408E65
  00408E5B: 8B 4D F0           mov         ecx,dword ptr [ebp-10h]
  00408E5E: 83 A1 50 03 00 00  and         dword ptr [ecx+00000350h],0FFFFFFFDh
            FD
  00408E65: C9                 leave
  00408E66: C3                 ret
  00408E67: E8 8C CE FF FF     call        00405CF8
  00408E6C: 33 C9              xor         ecx,ecx
  00408E6E: 84 C0              test        al,al
  00408E70: 0F 94 C1           sete        cl
  00408E73: 8B C1              mov         eax,ecx
  00408E75: C3                 ret
  00408E76: 8B FF              mov         edi,edi
  00408E78: 55                 push        ebp
  00408E79: 8B EC              mov         ebp,esp
  00408E7B: 83 3D DC 3D 41 00  cmp         dword ptr ds:[00413DDCh],0
            00
  00408E82: 75 06              jne         00408E8A
  00408E84: 5D                 pop         ebp
  00408E85: E9 86 12 00 00     jmp         0040A110
  00408E8A: 6A 00              push        0
  00408E8C: FF 75 10           push        dword ptr [ebp+10h]
  00408E8F: FF 75 0C           push        dword ptr [ebp+0Ch]
  00408E92: FF 75 08           push        dword ptr [ebp+8]
  00408E95: E8 05 00 00 00     call        00408E9F
  00408E9A: 83 C4 10           add         esp,10h
  00408E9D: 5D                 pop         ebp
  00408E9E: C3                 ret
  00408E9F: 8B FF              mov         edi,edi
  00408EA1: 55                 push        ebp
  00408EA2: 8B EC              mov         ebp,esp
  00408EA4: 83 EC 10           sub         esp,10h
  00408EA7: 8D 4D F0           lea         ecx,[ebp-10h]
  00408EAA: 53                 push        ebx
  00408EAB: 56                 push        esi
  00408EAC: 57                 push        edi
  00408EAD: FF 75 14           push        dword ptr [ebp+14h]
  00408EB0: E8 70 B5 FF FF     call        00404425
  00408EB5: 8B 45 10           mov         eax,dword ptr [ebp+10h]
  00408EB8: 85 C0              test        eax,eax
  00408EBA: 75 07              jne         00408EC3
  00408EBC: 33 F6              xor         esi,esi
  00408EBE: E9 8D 00 00 00     jmp         00408F50
  00408EC3: 8B 4D 08           mov         ecx,dword ptr [ebp+8]
  00408EC6: 85 C9              test        ecx,ecx
  00408EC8: 74 07              je          00408ED1
  00408ECA: 8B 55 0C           mov         edx,dword ptr [ebp+0Ch]
  00408ECD: 85 D2              test        edx,edx
  00408ECF: 75 17              jne         00408EE8
  00408ED1: E8 85 BE FF FF     call        00404D5B
  00408ED6: C7 00 16 00 00 00  mov         dword ptr [eax],16h
  00408EDC: E8 BD BD FF FF     call        00404C9E
  00408EE1: BE FF FF FF 7F     mov         esi,7FFFFFFFh
  00408EE6: EB 68              jmp         00408F50
  00408EE8: BE FF FF FF 7F     mov         esi,7FFFFFFFh
  00408EED: 3B C6              cmp         eax,esi
  00408EEF: 76 12              jbe         00408F03
  00408EF1: E8 65 BE FF FF     call        00404D5B
  00408EF6: C7 00 16 00 00 00  mov         dword ptr [eax],16h
  00408EFC: E8 9D BD FF FF     call        00404C9E
  00408F01: EB 4D              jmp         00408F50
  00408F03: 8B 7D F4           mov         edi,dword ptr [ebp-0Ch]
  00408F06: 8B 9F A4 00 00 00  mov         ebx,dword ptr [edi+000000A4h]
  00408F0C: 85 DB              test        ebx,ebx
  00408F0E: 75 13              jne         00408F23
  00408F10: 8D 75 F4           lea         esi,[ebp-0Ch]
  00408F13: 56                 push        esi
  00408F14: 50                 push        eax
  00408F15: 52                 push        edx
  00408F16: 51                 push        ecx
  00408F17: E8 61 12 00 00     call        0040A17D
  00408F1C: 83 C4 10           add         esp,10h
  00408F1F: 8B F0              mov         esi,eax
  00408F21: EB 2D              jmp         00408F50
  00408F23: FF 77 10           push        dword ptr [edi+10h]
  00408F26: 50                 push        eax
  00408F27: 52                 push        edx
  00408F28: 50                 push        eax
  00408F29: 51                 push        ecx
  00408F2A: 68 01 10 00 00     push        1001h
  00408F2F: 8D 45 F4           lea         eax,[ebp-0Ch]
  00408F32: 53                 push        ebx
  00408F33: 50                 push        eax
  00408F34: E8 98 15 00 00     call        0040A4D1
  00408F39: 83 C4 20           add         esp,20h
  00408F3C: 85 C0              test        eax,eax
  00408F3E: 75 0D              jne         00408F4D
  00408F40: E8 16 BE FF FF     call        00404D5B
  00408F45: C7 00 16 00 00 00  mov         dword ptr [eax],16h
  00408F4B: EB 03              jmp         00408F50
  00408F4D: 8D 70 FE           lea         esi,[eax-2]
  00408F50: 80 7D FC 00        cmp         byte ptr [ebp-4],0
  00408F54: 74 0A              je          00408F60
  00408F56: 8B 4D F0           mov         ecx,dword ptr [ebp-10h]
  00408F59: 83 A1 50 03 00 00  and         dword ptr [ecx+00000350h],0FFFFFFFDh
            FD
  00408F60: 5F                 pop         edi
  00408F61: 8B C6              mov         eax,esi
  00408F63: 5E                 pop         esi
  00408F64: 5B                 pop         ebx
  00408F65: C9                 leave
  00408F66: C3                 ret
  00408F67: 8B FF              mov         edi,edi
  00408F69: 55                 push        ebp
  00408F6A: 8B EC              mov         ebp,esp
  00408F6C: 83 EC 30           sub         esp,30h
  00408F6F: 53                 push        ebx
  00408F70: 33 DB              xor         ebx,ebx
  00408F72: 56                 push        esi
  00408F73: 8B F3              mov         esi,ebx
  00408F75: 89 5D D0           mov         dword ptr [ebp-30h],ebx
  00408F78: 89 5D D4           mov         dword ptr [ebp-2Ch],ebx
  00408F7B: 89 5D D8           mov         dword ptr [ebp-28h],ebx
  00408F7E: 89 5D DC           mov         dword ptr [ebp-24h],ebx
  00408F81: 89 5D E0           mov         dword ptr [ebp-20h],ebx
  00408F84: 88 5D E4           mov         byte ptr [ebp-1Ch],bl
  00408F87: 89 5D E8           mov         dword ptr [ebp-18h],ebx
  00408F8A: 89 5D EC           mov         dword ptr [ebp-14h],ebx
  00408F8D: 89 75 F0           mov         dword ptr [ebp-10h],esi
  00408F90: 89 5D F4           mov         dword ptr [ebp-0Ch],ebx
  00408F93: 89 5D F8           mov         dword ptr [ebp-8],ebx
  00408F96: 88 5D FC           mov         byte ptr [ebp-4],bl
  00408F99: E8 14 C5 FF FF     call        004054B2
  00408F9E: 50                 push        eax
  00408F9F: 8D 45 D0           lea         eax,[ebp-30h]
  00408FA2: 50                 push        eax
  00408FA3: FF 75 08           push        dword ptr [ebp+8]
  00408FA6: E8 F3 BF FF FF     call        00404F9E
  00408FAB: 83 C4 0C           add         esp,0Ch
  00408FAE: 85 C0              test        eax,eax
  00408FB0: 75 28              jne         00408FDA
  00408FB2: E8 FB C4 FF FF     call        004054B2
  00408FB7: 50                 push        eax
  00408FB8: 8D 45 E8           lea         eax,[ebp-18h]
  00408FBB: 50                 push        eax
  00408FBC: FF 75 0C           push        dword ptr [ebp+0Ch]
  00408FBF: E8 DA BF FF FF     call        00404F9E
  00408FC4: 8B 75 F0           mov         esi,dword ptr [ebp-10h]
  00408FC7: 83 C4 0C           add         esp,0Ch
  00408FCA: 85 C0              test        eax,eax
  00408FCC: 75 0C              jne         00408FDA
  00408FCE: 56                 push        esi
  00408FCF: FF 75 D8           push        dword ptr [ebp-28h]
  00408FD2: FF 15 C4 D0 40 00  call        dword ptr ds:[0040D0C4h]
  00408FD8: 8B D8              mov         ebx,eax
  00408FDA: 80 7D FC 00        cmp         byte ptr [ebp-4],0
  00408FDE: 74 07              je          00408FE7
  00408FE0: 56                 push        esi
  00408FE1: E8 E5 BD FF FF     call        00404DCB
  00408FE6: 59                 pop         ecx
  00408FE7: 80 7D E4 00        cmp         byte ptr [ebp-1Ch],0
  00408FEB: 74 09              je          00408FF6
  00408FED: FF 75 D8           push        dword ptr [ebp-28h]
  00408FF0: E8 D6 BD FF FF     call        00404DCB
  00408FF5: 59                 pop         ecx
  00408FF6: 5E                 pop         esi
  00408FF7: 8B C3              mov         eax,ebx
  00408FF9: 5B                 pop         ebx
  00408FFA: C9                 leave
  00408FFB: C3                 ret
  00408FFC: 8B FF              mov         edi,edi
  00408FFE: 55                 push        ebp
  00408FFF: 8B EC              mov         ebp,esp
  00409001: 8B 4D 10           mov         ecx,dword ptr [ebp+10h]
  00409004: 85 C9              test        ecx,ecx
  00409006: 75 04              jne         0040900C
  00409008: 33 C0              xor         eax,eax
  0040900A: 5D                 pop         ebp
  0040900B: C3                 ret
  0040900C: 53                 push        ebx
  0040900D: 8B 5D 0C           mov         ebx,dword ptr [ebp+0Ch]
  00409010: 56                 push        esi
  00409011: 57                 push        edi
  00409012: 8B 7D 08           mov         edi,dword ptr [ebp+8]
  00409015: 0F B7 17           movzx       edx,word ptr [edi]
  00409018: 8D 42 BF           lea         eax,[edx-41h]
  0040901B: 83 F8 19           cmp         eax,19h
  0040901E: 77 03              ja          00409023
  00409020: 83 C2 20           add         edx,20h
  00409023: 0F B7 33           movzx       esi,word ptr [ebx]
  00409026: 83 C7 02           add         edi,2
  00409029: 8D 46 BF           lea         eax,[esi-41h]
  0040902C: 83 F8 19           cmp         eax,19h
  0040902F: 77 03              ja          00409034
  00409031: 83 C6 20           add         esi,20h
  00409034: 8B C2              mov         eax,edx
  00409036: 83 C3 02           add         ebx,2
  00409039: 2B C6              sub         eax,esi
  0040903B: 75 09              jne         00409046
  0040903D: 85 D2              test        edx,edx
  0040903F: 74 05              je          00409046
  00409041: 83 E9 01           sub         ecx,1
  00409044: 75 CF              jne         00409015
  00409046: 5F                 pop         edi
  00409047: 5E                 pop         esi
  00409048: 5B                 pop         ebx
  00409049: 5D                 pop         ebp
  0040904A: C3                 ret
  0040904B: 8B FF              mov         edi,edi
  0040904D: 55                 push        ebp
  0040904E: 8B EC              mov         ebp,esp
  00409050: 53                 push        ebx
  00409051: 56                 push        esi
  00409052: 57                 push        edi
  00409053: 33 FF              xor         edi,edi
  00409055: BB E3 00 00 00     mov         ebx,0E3h
  0040905A: 8D 04 3B           lea         eax,[ebx+edi]
  0040905D: 99                 cdq
  0040905E: 2B C2              sub         eax,edx
  00409060: 8B F0              mov         esi,eax
  00409062: D1 FE              sar         esi,1
  00409064: 6A 55              push        55h
  00409066: FF 34 F5 20 00 41  push        dword ptr [esi*8+00410020h]
            00
  0040906D: FF 75 08           push        dword ptr [ebp+8]
  00409070: E8 87 FF FF FF     call        00408FFC
  00409075: 83 C4 0C           add         esp,0Ch
  00409078: 85 C0              test        eax,eax
  0040907A: 74 13              je          0040908F
  0040907C: 79 05              jns         00409083
  0040907E: 8D 5E FF           lea         ebx,[esi-1]
  00409081: EB 03              jmp         00409086
  00409083: 8D 7E 01           lea         edi,[esi+1]
  00409086: 3B FB              cmp         edi,ebx
  00409088: 7E D0              jle         0040905A
  0040908A: 83 C8 FF           or          eax,0FFFFFFFFh
  0040908D: EB 07              jmp         00409096
  0040908F: 8B 04 F5 24 00 41  mov         eax,dword ptr [esi*8+00410024h]
            00
  00409096: 5F                 pop         edi
  00409097: 5E                 pop         esi
  00409098: 5B                 pop         ebx
  00409099: 5D                 pop         ebp
  0040909A: C3                 ret
  0040909B: 8B FF              mov         edi,edi
  0040909D: 55                 push        ebp
  0040909E: 8B EC              mov         ebp,esp
  004090A0: 83 7D 08 00        cmp         dword ptr [ebp+8],0
  004090A4: 74 1D              je          004090C3
  004090A6: FF 75 08           push        dword ptr [ebp+8]
  004090A9: E8 9D FF FF FF     call        0040904B
  004090AE: 59                 pop         ecx
  004090AF: 85 C0              test        eax,eax
  004090B1: 78 10              js          004090C3
  004090B3: 3D E4 00 00 00     cmp         eax,0E4h
  004090B8: 73 09              jae         004090C3
  004090BA: 8B 04 C5 00 EF 40  mov         eax,dword ptr [eax*8+0040EF00h]
            00
  004090C1: 5D                 pop         ebp
  004090C2: C3                 ret
  004090C3: 33 C0              xor         eax,eax
  004090C5: 5D                 pop         ebp
  004090C6: C3                 ret
  004090C7: 8B FF              mov         edi,edi
  004090C9: 55                 push        ebp
  004090CA: 8B EC              mov         ebp,esp
  004090CC: 83 7D 08 00        cmp         dword ptr [ebp+8],0
  004090D0: 75 15              jne         004090E7
  004090D2: E8 84 BC FF FF     call        00404D5B
  004090D7: C7 00 16 00 00 00  mov         dword ptr [eax],16h
  004090DD: E8 BC BB FF FF     call        00404C9E
  004090E2: 83 C8 FF           or          eax,0FFFFFFFFh
  004090E5: 5D                 pop         ebp
  004090E6: C3                 ret
  004090E7: FF 75 08           push        dword ptr [ebp+8]
  004090EA: 6A 00              push        0
  004090EC: FF 35 58 42 41 00  push        dword ptr ds:[00414258h]
  004090F2: FF 15 E0 D0 40 00  call        dword ptr ds:[0040D0E0h]
  004090F8: 5D                 pop         ebp
  004090F9: C3                 ret
  004090FA: 8B FF              mov         edi,edi
  004090FC: 55                 push        ebp
  004090FD: 8B EC              mov         ebp,esp
  004090FF: 57                 push        edi
  00409100: 8B 7D 08           mov         edi,dword ptr [ebp+8]
  00409103: 85 FF              test        edi,edi
  00409105: 75 0B              jne         00409112
  00409107: FF 75 0C           push        dword ptr [ebp+0Ch]
  0040910A: E8 70 DC FF FF     call        00406D7F
  0040910F: 59                 pop         ecx
  00409110: EB 24              jmp         00409136
  00409112: 56                 push        esi
  00409113: 8B 75 0C           mov         esi,dword ptr [ebp+0Ch]
  00409116: 85 F6              test        esi,esi
  00409118: 75 09              jne         00409123
  0040911A: 57                 push        edi
  0040911B: E8 AB BC FF FF     call        00404DCB
  00409120: 59                 pop         ecx
  00409121: EB 10              jmp         00409133
  00409123: 83 FE E0           cmp         esi,0FFFFFFE0h
  00409126: 76 25              jbe         0040914D
  00409128: E8 2E BC FF FF     call        00404D5B
  0040912D: C7 00 0C 00 00 00  mov         dword ptr [eax],0Ch
  00409133: 33 C0              xor         eax,eax
  00409135: 5E                 pop         esi
  00409136: 5F                 pop         edi
  00409137: 5D                 pop         ebp
  00409138: C3                 ret
  00409139: E8 B7 AC FF FF     call        00403DF5
  0040913E: 85 C0              test        eax,eax
  00409140: 74 E6              je          00409128
  00409142: 56                 push        esi
  00409143: E8 19 E7 FF FF     call        00407861
  00409148: 59                 pop         ecx
  00409149: 85 C0              test        eax,eax
  0040914B: 74 DB              je          00409128
  0040914D: 56                 push        esi
  0040914E: 57                 push        edi
  0040914F: 6A 00              push        0
  00409151: FF 35 58 42 41 00  push        dword ptr ds:[00414258h]
  00409157: FF 15 E4 D0 40 00  call        dword ptr ds:[0040D0E4h]
  0040915D: 85 C0              test        eax,eax
  0040915F: 74 D8              je          00409139
  00409161: EB D2              jmp         00409135
  00409163: 6A 0C              push        0Ch
  00409165: 68 38 22 41 00     push        412238h
  0040916A: E8 81 86 FF FF     call        004017F0
  0040916F: 33 F6              xor         esi,esi
  00409171: 89 75 E4           mov         dword ptr [ebp-1Ch],esi
  00409174: 8B 45 08           mov         eax,dword ptr [ebp+8]
  00409177: FF 30              push        dword ptr [eax]
  00409179: E8 23 D6 FF FF     call        004067A1
  0040917E: 59                 pop         ecx
  0040917F: 89 75 FC           mov         dword ptr [ebp-4],esi
  00409182: 8B 45 0C           mov         eax,dword ptr [ebp+0Ch]
  00409185: 8B 00              mov         eax,dword ptr [eax]
  00409187: 8B 38              mov         edi,dword ptr [eax]
  00409189: 8B D7              mov         edx,edi
  0040918B: C1 FA 06           sar         edx,6
  0040918E: 8B C7              mov         eax,edi
  00409190: 83 E0 3F           and         eax,3Fh
  00409193: 6B C8 38           imul        ecx,eax,38h
  00409196: 8B 04 95 70 3F 41  mov         eax,dword ptr [edx*4+00413F70h]
            00
  0040919D: F6 44 08 28 01     test        byte ptr [eax+ecx+28h],1
  004091A2: 74 21              je          004091C5
  004091A4: 57                 push        edi
  004091A5: E8 CE D6 FF FF     call        00406878
  004091AA: 59                 pop         ecx
  004091AB: 50                 push        eax
  004091AC: FF 15 E8 D0 40 00  call        dword ptr ds:[0040D0E8h]
  004091B2: 85 C0              test        eax,eax
  004091B4: 75 1D              jne         004091D3
  004091B6: E8 8D BB FF FF     call        00404D48
  004091BB: 8B F0              mov         esi,eax
  004091BD: FF 15 3C D0 40 00  call        dword ptr ds:[0040D03Ch]
  004091C3: 89 06              mov         dword ptr [esi],eax
  004091C5: E8 91 BB FF FF     call        00404D5B
  004091CA: C7 00 09 00 00 00  mov         dword ptr [eax],9
  004091D0: 83 CE FF           or          esi,0FFFFFFFFh
  004091D3: 89 75 E4           mov         dword ptr [ebp-1Ch],esi
  004091D6: C7 45 FC FE FF FF  mov         dword ptr [ebp-4],0FFFFFFFEh
            FF
  004091DD: E8 17 00 00 00     call        004091F9
  004091E2: 8B C6              mov         eax,esi
  004091E4: 8B 4D F0           mov         ecx,dword ptr [ebp-10h]
  004091E7: 64 89 0D 00 00 00  mov         dword ptr fs:[00000000h],ecx
            00
  004091EE: 59                 pop         ecx
  004091EF: 5F                 pop         edi
  004091F0: 5E                 pop         esi
  004091F1: 5B                 pop         ebx
  004091F2: C9                 leave
  004091F3: C2 0C 00           ret         0Ch
  004091F6: 8B 75 E4           mov         esi,dword ptr [ebp-1Ch]
  004091F9: 8B 4D 10           mov         ecx,dword ptr [ebp+10h]
  004091FC: FF 31              push        dword ptr [ecx]
  004091FE: E8 C1 D5 FF FF     call        004067C4
  00409203: 59                 pop         ecx
  00409204: C3                 ret
  00409205: 8B FF              mov         edi,edi
  00409207: 55                 push        ebp
  00409208: 8B EC              mov         ebp,esp
  0040920A: 83 EC 10           sub         esp,10h
  0040920D: 56                 push        esi
  0040920E: 8B 75 08           mov         esi,dword ptr [ebp+8]
  00409211: 83 FE FE           cmp         esi,0FFFFFFFEh
  00409214: 75 0D              jne         00409223
  00409216: E8 40 BB FF FF     call        00404D5B
  0040921B: C7 00 09 00 00 00  mov         dword ptr [eax],9
  00409221: EB 59              jmp         0040927C
  00409223: 85 F6              test        esi,esi
  00409225: 78 45              js          0040926C
  00409227: 3B 35 70 41 41 00  cmp         esi,dword ptr ds:[00414170h]
  0040922D: 73 3D              jae         0040926C
  0040922F: 8B C6              mov         eax,esi
  00409231: 8B D6              mov         edx,esi
  00409233: 83 E0 3F           and         eax,3Fh
  00409236: C1 FA 06           sar         edx,6
  00409239: 6B C8 38           imul        ecx,eax,38h
  0040923C: 8B 04 95 70 3F 41  mov         eax,dword ptr [edx*4+00413F70h]
            00
  00409243: F6 44 08 28 01     test        byte ptr [eax+ecx+28h],1
  00409248: 74 22              je          0040926C
  0040924A: 8D 45 08           lea         eax,[ebp+8]
  0040924D: 89 75 F8           mov         dword ptr [ebp-8],esi
  00409250: 89 45 F4           mov         dword ptr [ebp-0Ch],eax
  00409253: 8D 4D FF           lea         ecx,[ebp-1]
  00409256: 8D 45 F8           lea         eax,[ebp-8]
  00409259: 89 75 F0           mov         dword ptr [ebp-10h],esi
  0040925C: 50                 push        eax
  0040925D: 8D 45 F4           lea         eax,[ebp-0Ch]
  00409260: 50                 push        eax
  00409261: 8D 45 F0           lea         eax,[ebp-10h]
  00409264: 50                 push        eax
  00409265: E8 F9 FE FF FF     call        00409163
  0040926A: EB 13              jmp         0040927F
  0040926C: E8 EA BA FF FF     call        00404D5B
  00409271: C7 00 09 00 00 00  mov         dword ptr [eax],9
  00409277: E8 22 BA FF FF     call        00404C9E
  0040927C: 83 C8 FF           or          eax,0FFFFFFFFh
  0040927F: 5E                 pop         esi
  00409280: C9                 leave
  00409281: C3                 ret
  00409282: 8B FF              mov         edi,edi
  00409284: 55                 push        ebp
  00409285: 8B EC              mov         ebp,esp
  00409287: 81 EC 8C 00 00 00  sub         esp,8Ch
  0040928D: A1 18 30 41 00     mov         eax,dword ptr ds:[00413018h]
  00409292: 33 C5              xor         eax,ebp
  00409294: 89 45 FC           mov         dword ptr [ebp-4],eax
  00409297: 8B 45 0C           mov         eax,dword ptr [ebp+0Ch]
  0040929A: 8B C8              mov         ecx,eax
  0040929C: 8B 55 10           mov         edx,dword ptr [ebp+10h]
  0040929F: 83 E0 3F           and         eax,3Fh
  004092A2: 53                 push        ebx
  004092A3: 56                 push        esi
  004092A4: 6B F0 38           imul        esi,eax,38h
  004092A7: C1 F9 06           sar         ecx,6
  004092AA: 57                 push        edi
  004092AB: 89 55 94           mov         dword ptr [ebp-6Ch],edx
  004092AE: 89 4D B0           mov         dword ptr [ebp-50h],ecx
  004092B1: 8B 04 8D 70 3F 41  mov         eax,dword ptr [ecx*4+00413F70h]
            00
  004092B8: 89 75 B4           mov         dword ptr [ebp-4Ch],esi
  004092BB: 8B 44 06 18        mov         eax,dword ptr [esi+eax+18h]
  004092BF: 8B 75 14           mov         esi,dword ptr [ebp+14h]
  004092C2: 03 F2              add         esi,edx
  004092C4: 89 45 90           mov         dword ptr [ebp-70h],eax
  004092C7: 89 75 9C           mov         dword ptr [ebp-64h],esi
  004092CA: FF 15 EC D0 40 00  call        dword ptr ds:[0040D0ECh]
  004092D0: 33 DB              xor         ebx,ebx
  004092D2: 89 45 88           mov         dword ptr [ebp-78h],eax
  004092D5: 53                 push        ebx
  004092D6: 8D 4D BC           lea         ecx,[ebp-44h]
  004092D9: E8 47 B1 FF FF     call        00404425
  004092DE: 8B 4D C0           mov         ecx,dword ptr [ebp-40h]
  004092E1: 8D 7D A4           lea         edi,[ebp-5Ch]
  004092E4: 33 C0              xor         eax,eax
  004092E6: AB                 stos        dword ptr es:[edi]
  004092E7: 8B 49 08           mov         ecx,dword ptr [ecx+8]
  004092EA: 89 4D 84           mov         dword ptr [ebp-7Ch],ecx
  004092ED: AB                 stos        dword ptr es:[edi]
  004092EE: AB                 stos        dword ptr es:[edi]
  004092EF: 8B 7D 94           mov         edi,dword ptr [ebp-6Ch]
  004092F2: 89 7D DC           mov         dword ptr [ebp-24h],edi
  004092F5: 3B FE              cmp         edi,esi
  004092F7: 0F 83 06 03 00 00  jae         00409603
  004092FD: 8B 75 A8           mov         esi,dword ptr [ebp-58h]
  00409300: 8A 07              mov         al,byte ptr [edi]
  00409302: 88 45 D5           mov         byte ptr [ebp-2Bh],al
  00409305: 8B 45 B0           mov         eax,dword ptr [ebp-50h]
  00409308: 89 5D B8           mov         dword ptr [ebp-48h],ebx
  0040930B: C7 45 D8 01 00 00  mov         dword ptr [ebp-28h],1
            00
  00409312: 8B 04 85 70 3F 41  mov         eax,dword ptr [eax*4+00413F70h]
            00
  00409319: 89 45 D0           mov         dword ptr [ebp-30h],eax
  0040931C: 81 F9 E9 FD 00 00  cmp         ecx,0FDE9h
  00409322: 0F 85 2D 01 00 00  jne         00409455
  00409328: 8B 55 B4           mov         edx,dword ptr [ebp-4Ch]
  0040932B: 83 C0 2E           add         eax,2Eh
  0040932E: 03 C2              add         eax,edx
  00409330: 8B CB              mov         ecx,ebx
  00409332: 89 45 98           mov         dword ptr [ebp-68h],eax
  00409335: 38 1C 08           cmp         byte ptr [eax+ecx],bl
  00409338: 74 06              je          00409340
  0040933A: 41                 inc         ecx
  0040933B: 83 F9 05           cmp         ecx,5
  0040933E: 7C F5              jl          00409335
  00409340: 8B 7D 9C           mov         edi,dword ptr [ebp-64h]
  00409343: 8B 45 DC           mov         eax,dword ptr [ebp-24h]
  00409346: 2B F8              sub         edi,eax
  00409348: 89 4D D8           mov         dword ptr [ebp-28h],ecx
  0040934B: 85 C9              test        ecx,ecx
  0040934D: 0F 8E A2 00 00 00  jle         004093F5
  00409353: 8B 45 D0           mov         eax,dword ptr [ebp-30h]
  00409356: 0F B6 44 02 2E     movzx       eax,byte ptr [edx+eax+2Eh]
  0040935B: 0F BE 80 58 37 41  movsx       eax,byte ptr [eax+00413758h]
            00
  00409362: 40                 inc         eax
  00409363: 89 45 CC           mov         dword ptr [ebp-34h],eax
  00409366: 2B C1              sub         eax,ecx
  00409368: 89 45 D0           mov         dword ptr [ebp-30h],eax
  0040936B: 3B C7              cmp         eax,edi
  0040936D: 0F 8F 0B 02 00 00  jg          0040957E
  00409373: 8B D3              mov         edx,ebx
  00409375: 85 C9              test        ecx,ecx
  00409377: 7E 12              jle         0040938B
  00409379: 8B 75 98           mov         esi,dword ptr [ebp-68h]
  0040937C: 8A 04 16           mov         al,byte ptr [esi+edx]
  0040937F: 88 44 15 F4        mov         byte ptr [ebp+edx-0Ch],al
  00409383: 42                 inc         edx
  00409384: 3B D1              cmp         edx,ecx
  00409386: 7C F4              jl          0040937C
  00409388: 8B 45 D0           mov         eax,dword ptr [ebp-30h]
  0040938B: 8B 7D DC           mov         edi,dword ptr [ebp-24h]
  0040938E: 85 C0              test        eax,eax
  00409390: 7E 15              jle         004093A7
  00409392: FF 75 D0           push        dword ptr [ebp-30h]
  00409395: 8D 45 F4           lea         eax,[ebp-0Ch]
  00409398: 03 C1              add         eax,ecx
  0040939A: 57                 push        edi
  0040939B: 50                 push        eax
  0040939C: E8 AF 92 FF FF     call        00402650
  004093A1: 8B 4D D8           mov         ecx,dword ptr [ebp-28h]
  004093A4: 83 C4 0C           add         esp,0Ch
  004093A7: 85 C9              test        ecx,ecx
  004093A9: 7E 21              jle         004093CC
  004093AB: 8B 55 D8           mov         edx,dword ptr [ebp-28h]
  004093AE: 8B FB              mov         edi,ebx
  004093B0: 8B 75 B4           mov         esi,dword ptr [ebp-4Ch]
  004093B3: 8B 45 B0           mov         eax,dword ptr [ebp-50h]
  004093B6: 8D 0C 3E           lea         ecx,[esi+edi]
  004093B9: 47                 inc         edi
  004093BA: 8B 04 85 70 3F 41  mov         eax,dword ptr [eax*4+00413F70h]
            00
  004093C1: 88 5C 01 2E        mov         byte ptr [ecx+eax+2Eh],bl
  004093C5: 3B FA              cmp         edi,edx
  004093C7: 7C EA              jl          004093B3
  004093C9: 8B 7D DC           mov         edi,dword ptr [ebp-24h]
  004093CC: 8D 45 F4           lea         eax,[ebp-0Ch]
  004093CF: 89 9D 7C FF FF FF  mov         dword ptr [ebp+FFFFFF7Ch],ebx
  004093D5: 89 45 8C           mov         dword ptr [ebp-74h],eax
  004093D8: 8D 8D 7C FF FF FF  lea         ecx,[ebp+FFFFFF7Ch]
  004093DE: 33 C0              xor         eax,eax
  004093E0: 89 5D 80           mov         dword ptr [ebp-80h],ebx
  004093E3: 83 7D CC 04        cmp         dword ptr [ebp-34h],4
  004093E7: 51                 push        ecx
  004093E8: 0F 94 C0           sete        al
  004093EB: 40                 inc         eax
  004093EC: 89 45 D8           mov         dword ptr [ebp-28h],eax
  004093EF: 50                 push        eax
  004093F0: 8D 45 8C           lea         eax,[ebp-74h]
  004093F3: EB 3F              jmp         00409434
  004093F5: 0F B6 00           movzx       eax,byte ptr [eax]
  004093F8: 0F BE 88 58 37 41  movsx       ecx,byte ptr [eax+00413758h]
            00
  004093FF: 41                 inc         ecx
  00409400: 89 4D D0           mov         dword ptr [ebp-30h],ecx
  00409403: 3B CF              cmp         ecx,edi
  00409405: 0F 8F A8 01 00 00  jg          004095B3
  0040940B: 8B 7D DC           mov         edi,dword ptr [ebp-24h]
  0040940E: 33 C0              xor         eax,eax
  00409410: 83 F9 04           cmp         ecx,4
  00409413: 89 9D 74 FF FF FF  mov         dword ptr [ebp+FFFFFF74h],ebx
  00409419: 8D 8D 74 FF FF FF  lea         ecx,[ebp+FFFFFF74h]
  0040941F: 89 9D 78 FF FF FF  mov         dword ptr [ebp+FFFFFF78h],ebx
  00409425: 0F 94 C0           sete        al
  00409428: 89 7D CC           mov         dword ptr [ebp-34h],edi
  0040942B: 40                 inc         eax
  0040942C: 51                 push        ecx
  0040942D: 89 45 D8           mov         dword ptr [ebp-28h],eax
  00409430: 50                 push        eax
  00409431: 8D 45 CC           lea         eax,[ebp-34h]
  00409434: 50                 push        eax
  00409435: 8D 45 B8           lea         eax,[ebp-48h]
  00409438: 50                 push        eax
  00409439: E8 9C 0B 00 00     call        00409FDA
  0040943E: 83 C4 10           add         esp,10h
  00409441: 83 F8 FF           cmp         eax,0FFFFFFFFh
  00409444: 0F 84 B9 01 00 00  je          00409603
  0040944A: 8B 45 D0           mov         eax,dword ptr [ebp-30h]
  0040944D: 48                 dec         eax
  0040944E: 03 F8              add         edi,eax
  00409450: E9 82 00 00 00     jmp         004094D7
  00409455: 8B 4D B4           mov         ecx,dword ptr [ebp-4Ch]
  00409458: 8A 54 01 2D        mov         dl,byte ptr [ecx+eax+2Dh]
  0040945C: F6 C2 04           test        dl,4
  0040945F: 74 1E              je          0040947F
  00409461: 8A 44 01 2E        mov         al,byte ptr [ecx+eax+2Eh]
  00409465: 80 E2 FB           and         dl,0FBh
  00409468: 88 45 EC           mov         byte ptr [ebp-14h],al
  0040946B: 8A 07              mov         al,byte ptr [edi]
  0040946D: 88 45 ED           mov         byte ptr [ebp-13h],al
  00409470: 8B 45 D0           mov         eax,dword ptr [ebp-30h]
  00409473: 6A 02              push        2
  00409475: 88 54 01 2D        mov         byte ptr [ecx+eax+2Dh],dl
  00409479: 8D 45 EC           lea         eax,[ebp-14h]
  0040947C: 50                 push        eax
  0040947D: EB 43              jmp         004094C2
  0040947F: 8A 07              mov         al,byte ptr [edi]
  00409481: 88 45 E3           mov         byte ptr [ebp-1Dh],al
  00409484: E8 D2 D8 FF FF     call        00406D5B
  00409489: 0F B6 4D E3        movzx       ecx,byte ptr [ebp-1Dh]
  0040948D: 66 39 1C 48        cmp         word ptr [eax+ecx*2],bx
  00409491: 7D 2C              jge         004094BF
  00409493: 8D 47 01           lea         eax,[edi+1]
  00409496: 89 45 CC           mov         dword ptr [ebp-34h],eax
  00409499: 3B 45 9C           cmp         eax,dword ptr [ebp-64h]
  0040949C: 0F 83 35 01 00 00  jae         004095D7
  004094A2: 6A 02              push        2
  004094A4: 8D 45 B8           lea         eax,[ebp-48h]
  004094A7: 57                 push        edi
  004094A8: 50                 push        eax
  004094A9: E8 AA F0 FF FF     call        00408558
  004094AE: 83 C4 0C           add         esp,0Ch
  004094B1: 83 F8 FF           cmp         eax,0FFFFFFFFh
  004094B4: 0F 84 49 01 00 00  je          00409603
  004094BA: 8B 7D CC           mov         edi,dword ptr [ebp-34h]
  004094BD: EB 18              jmp         004094D7
  004094BF: 6A 01              push        1
  004094C1: 57                 push        edi
  004094C2: 8D 45 B8           lea         eax,[ebp-48h]
  004094C5: 50                 push        eax
  004094C6: E8 8D F0 FF FF     call        00408558
  004094CB: 83 C4 0C           add         esp,0Ch
  004094CE: 83 F8 FF           cmp         eax,0FFFFFFFFh
  004094D1: 0F 84 2C 01 00 00  je          00409603
  004094D7: 53                 push        ebx
  004094D8: 53                 push        ebx
  004094D9: 6A 05              push        5
  004094DB: 8D 45 E4           lea         eax,[ebp-1Ch]
  004094DE: 47                 inc         edi
  004094DF: 50                 push        eax
  004094E0: FF 75 D8           push        dword ptr [ebp-28h]
  004094E3: 8D 45 B8           lea         eax,[ebp-48h]
  004094E6: 89 7D DC           mov         dword ptr [ebp-24h],edi
  004094E9: 50                 push        eax
  004094EA: 53                 push        ebx
  004094EB: FF 75 88           push        dword ptr [ebp-78h]
  004094EE: E8 BF CB FF FF     call        004060B2
  004094F3: 83 C4 20           add         esp,20h
  004094F6: 89 45 CC           mov         dword ptr [ebp-34h],eax
  004094F9: 85 C0              test        eax,eax
  004094FB: 0F 84 02 01 00 00  je          00409603
  00409501: 53                 push        ebx
  00409502: 8D 4D A0           lea         ecx,[ebp-60h]
  00409505: 51                 push        ecx
  00409506: 50                 push        eax
  00409507: 8D 45 E4           lea         eax,[ebp-1Ch]
  0040950A: 50                 push        eax
  0040950B: FF 75 90           push        dword ptr [ebp-70h]
  0040950E: FF 15 78 D0 40 00  call        dword ptr ds:[0040D078h]
  00409514: 85 C0              test        eax,eax
  00409516: 0F 84 DE 00 00 00  je          004095FA
  0040951C: 8B 75 AC           mov         esi,dword ptr [ebp-54h]
  0040951F: 2B 75 94           sub         esi,dword ptr [ebp-6Ch]
  00409522: 8B 45 CC           mov         eax,dword ptr [ebp-34h]
  00409525: 03 F7              add         esi,edi
  00409527: 89 75 A8           mov         dword ptr [ebp-58h],esi
  0040952A: 39 45 A0           cmp         dword ptr [ebp-60h],eax
  0040952D: 0F 82 D0 00 00 00  jb          00409603
  00409533: 80 7D D5 0A        cmp         byte ptr [ebp-2Bh],0Ah
  00409537: 75 34              jne         0040956D
  00409539: 6A 0D              push        0Dh
  0040953B: 58                 pop         eax
  0040953C: 53                 push        ebx
  0040953D: 66 89 45 D4        mov         word ptr [ebp-2Ch],ax
  00409541: 8D 45 A0           lea         eax,[ebp-60h]
  00409544: 50                 push        eax
  00409545: 6A 01              push        1
  00409547: 8D 45 D4           lea         eax,[ebp-2Ch]
  0040954A: 50                 push        eax
  0040954B: FF 75 90           push        dword ptr [ebp-70h]
  0040954E: FF 15 78 D0 40 00  call        dword ptr ds:[0040D078h]
  00409554: 85 C0              test        eax,eax
  00409556: 0F 84 9E 00 00 00  je          004095FA
  0040955C: 83 7D A0 01        cmp         dword ptr [ebp-60h],1
  00409560: 0F 82 9D 00 00 00  jb          00409603
  00409566: FF 45 AC           inc         dword ptr [ebp-54h]
  00409569: 46                 inc         esi
  0040956A: 89 75 A8           mov         dword ptr [ebp-58h],esi
  0040956D: 3B 7D 9C           cmp         edi,dword ptr [ebp-64h]
  00409570: 0F 83 8D 00 00 00  jae         00409603
  00409576: 8B 4D 84           mov         ecx,dword ptr [ebp-7Ch]
  00409579: E9 82 FD FF FF     jmp         00409300
  0040957E: 85 FF              test        edi,edi
  00409580: 7E 26              jle         004095A8
  00409582: 8B 75 DC           mov         esi,dword ptr [ebp-24h]
  00409585: 8B 45 B0           mov         eax,dword ptr [ebp-50h]
  00409588: 03 D3              add         edx,ebx
  0040958A: 03 D1              add         edx,ecx
  0040958C: 8B 0C 85 70 3F 41  mov         ecx,dword ptr [eax*4+00413F70h]
            00
  00409593: 8A 04 33           mov         al,byte ptr [ebx+esi]
  00409596: 43                 inc         ebx
  00409597: 88 44 0A 2E        mov         byte ptr [edx+ecx+2Eh],al
  0040959B: 8B 4D D8           mov         ecx,dword ptr [ebp-28h]
  0040959E: 8B 55 B4           mov         edx,dword ptr [ebp-4Ch]
  004095A1: 3B DF              cmp         ebx,edi
  004095A3: 7C E0              jl          00409585
  004095A5: 8B 75 A8           mov         esi,dword ptr [ebp-58h]
  004095A8: 03 F7              add         esi,edi
  004095AA: 80 7D C8 00        cmp         byte ptr [ebp-38h],0
  004095AE: 89 75 A8           mov         dword ptr [ebp-58h],esi
  004095B1: EB 53              jmp         00409606
  004095B3: 85 FF              test        edi,edi
  004095B5: 7E F1              jle         004095A8
  004095B7: 8B 75 DC           mov         esi,dword ptr [ebp-24h]
  004095BA: 8B 45 B0           mov         eax,dword ptr [ebp-50h]
  004095BD: 03 D3              add         edx,ebx
  004095BF: 8B 0C 85 70 3F 41  mov         ecx,dword ptr [eax*4+00413F70h]
            00
  004095C6: 8A 04 33           mov         al,byte ptr [ebx+esi]
  004095C9: 43                 inc         ebx
  004095CA: 88 44 0A 2E        mov         byte ptr [edx+ecx+2Eh],al
  004095CE: 8B 55 B4           mov         edx,dword ptr [ebp-4Ch]
  004095D1: 3B DF              cmp         ebx,edi
  004095D3: 7C E5              jl          004095BA
  004095D5: EB CE              jmp         004095A5
  004095D7: 8B 55 B0           mov         edx,dword ptr [ebp-50h]
  004095DA: 8B 4D B4           mov         ecx,dword ptr [ebp-4Ch]
  004095DD: 8A 5D E3           mov         bl,byte ptr [ebp-1Dh]
  004095E0: 8B 04 95 70 3F 41  mov         eax,dword ptr [edx*4+00413F70h]
            00
  004095E7: 88 5C 01 2E        mov         byte ptr [ecx+eax+2Eh],bl
  004095EB: 8B 04 95 70 3F 41  mov         eax,dword ptr [edx*4+00413F70h]
            00
  004095F2: 80 4C 01 2D 04     or          byte ptr [ecx+eax+2Dh],4
  004095F7: 46                 inc         esi
  004095F8: EB B0              jmp         004095AA
  004095FA: FF 15 3C D0 40 00  call        dword ptr ds:[0040D03Ch]
  00409600: 89 45 A4           mov         dword ptr [ebp-5Ch],eax
  00409603: 38 5D C8           cmp         byte ptr [ebp-38h],bl
  00409606: 74 0A              je          00409612
  00409608: 8B 45 BC           mov         eax,dword ptr [ebp-44h]
  0040960B: 83 A0 50 03 00 00  and         dword ptr [eax+00000350h],0FFFFFFFDh
            FD
  00409612: 8B 45 08           mov         eax,dword ptr [ebp+8]
  00409615: 8D 75 A4           lea         esi,[ebp-5Ch]
  00409618: 8B 4D FC           mov         ecx,dword ptr [ebp-4]
  0040961B: 8B F8              mov         edi,eax
  0040961D: 33 CD              xor         ecx,ebp
  0040961F: A5                 movs        dword ptr es:[edi],dword ptr [esi]
  00409620: A5                 movs        dword ptr es:[edi],dword ptr [esi]
  00409621: A5                 movs        dword ptr es:[edi],dword ptr [esi]
  00409622: 5F                 pop         edi
  00409623: 5E                 pop         esi
  00409624: 5B                 pop         ebx
  00409625: E8 FD 83 FF FF     call        00401A27
  0040962A: C9                 leave
  0040962B: C3                 ret
  0040962C: 8B FF              mov         edi,edi
  0040962E: 55                 push        ebp
  0040962F: 8B EC              mov         ebp,esp
  00409631: 51                 push        ecx
  00409632: 53                 push        ebx
  00409633: 56                 push        esi
  00409634: 8B 75 08           mov         esi,dword ptr [ebp+8]
  00409637: 33 C0              xor         eax,eax
  00409639: 57                 push        edi
  0040963A: 8B FE              mov         edi,esi
  0040963C: AB                 stos        dword ptr es:[edi]
  0040963D: AB                 stos        dword ptr es:[edi]
  0040963E: AB                 stos        dword ptr es:[edi]
  0040963F: 8B 7D 0C           mov         edi,dword ptr [ebp+0Ch]
  00409642: 8B 45 10           mov         eax,dword ptr [ebp+10h]
  00409645: 03 C7              add         eax,edi
  00409647: 89 45 FC           mov         dword ptr [ebp-4],eax
  0040964A: 3B F8              cmp         edi,eax
  0040964C: 73 3F              jae         0040968D
  0040964E: 0F B7 1F           movzx       ebx,word ptr [edi]
  00409651: 53                 push        ebx
  00409652: E8 57 0F 00 00     call        0040A5AE
  00409657: 59                 pop         ecx
  00409658: 66 3B C3           cmp         ax,bx
  0040965B: 75 28              jne         00409685
  0040965D: 83 46 04 02        add         dword ptr [esi+4],2
  00409661: 83 FB 0A           cmp         ebx,0Ah
  00409664: 75 15              jne         0040967B
  00409666: 6A 0D              push        0Dh
  00409668: 5B                 pop         ebx
  00409669: 53                 push        ebx
  0040966A: E8 3F 0F 00 00     call        0040A5AE
  0040966F: 59                 pop         ecx
  00409670: 66 3B C3           cmp         ax,bx
  00409673: 75 10              jne         00409685
  00409675: FF 46 04           inc         dword ptr [esi+4]
  00409678: FF 46 08           inc         dword ptr [esi+8]
  0040967B: 83 C7 02           add         edi,2
  0040967E: 3B 7D FC           cmp         edi,dword ptr [ebp-4]
  00409681: 72 CB              jb          0040964E
  00409683: EB 08              jmp         0040968D
  00409685: FF 15 3C D0 40 00  call        dword ptr ds:[0040D03Ch]
  0040968B: 89 06              mov         dword ptr [esi],eax
  0040968D: 5F                 pop         edi
  0040968E: 8B C6              mov         eax,esi
  00409690: 5E                 pop         esi
  00409691: 5B                 pop         ebx
  00409692: C9                 leave
  00409693: C3                 ret
  00409694: 8B FF              mov         edi,edi
  00409696: 55                 push        ebp
  00409697: 8B EC              mov         ebp,esp
  00409699: 51                 push        ecx
  0040969A: 56                 push        esi
  0040969B: 8B 75 08           mov         esi,dword ptr [ebp+8]
  0040969E: 57                 push        edi
  0040969F: 56                 push        esi
  004096A0: E8 15 07 00 00     call        00409DBA
  004096A5: 59                 pop         ecx
  004096A6: 85 C0              test        eax,eax
  004096A8: 74 55              je          004096FF
  004096AA: 8B FE              mov         edi,esi
  004096AC: 83 E6 3F           and         esi,3Fh
  004096AF: C1 FF 06           sar         edi,6
  004096B2: 6B F6 38           imul        esi,esi,38h
  004096B5: 8B 04 BD 70 3F 41  mov         eax,dword ptr [edi*4+00413F70h]
            00
  004096BC: 80 7C 30 28 00     cmp         byte ptr [eax+esi+28h],0
  004096C1: 7D 3C              jge         004096FF
  004096C3: E8 D8 B1 FF FF     call        004048A0
  004096C8: 8B 40 4C           mov         eax,dword ptr [eax+4Ch]
  004096CB: 83 B8 A8 00 00 00  cmp         dword ptr [eax+000000A8h],0
            00
  004096D2: 75 0E              jne         004096E2
  004096D4: 8B 04 BD 70 3F 41  mov         eax,dword ptr [edi*4+00413F70h]
            00
  004096DB: 80 7C 30 29 00     cmp         byte ptr [eax+esi+29h],0
  004096E0: 74 1D              je          004096FF
  004096E2: 8D 45 FC           lea         eax,[ebp-4]
  004096E5: 50                 push        eax
  004096E6: 8B 04 BD 70 3F 41  mov         eax,dword ptr [edi*4+00413F70h]
            00
  004096ED: FF 74 30 18        push        dword ptr [eax+esi+18h]
  004096F1: FF 15 F0 D0 40 00  call        dword ptr ds:[0040D0F0h]
  004096F7: 85 C0              test        eax,eax
  004096F9: 74 04              je          004096FF
  004096FB: B0 01              mov         al,1
  004096FD: EB 02              jmp         00409701
  004096FF: 32 C0              xor         al,al
  00409701: 5F                 pop         edi
  00409702: 5E                 pop         esi
  00409703: C9                 leave
  00409704: C3                 ret
  00409705: 8B FF              mov         edi,edi
  00409707: 55                 push        ebp
  00409708: 8B EC              mov         ebp,esp
  0040970A: B8 0C 14 00 00     mov         eax,140Ch
  0040970F: E8 3C 31 00 00     call        0040C850
  00409714: A1 18 30 41 00     mov         eax,dword ptr ds:[00413018h]
  00409719: 33 C5              xor         eax,ebp
  0040971B: 89 45 FC           mov         dword ptr [ebp-4],eax
  0040971E: 8B 4D 0C           mov         ecx,dword ptr [ebp+0Ch]
  00409721: 8B C1              mov         eax,ecx
  00409723: 8B 55 14           mov         edx,dword ptr [ebp+14h]
  00409726: 83 E1 3F           and         ecx,3Fh
  00409729: C1 F8 06           sar         eax,6
  0040972C: 6B C9 38           imul        ecx,ecx,38h
  0040972F: 53                 push        ebx
  00409730: 8B 5D 08           mov         ebx,dword ptr [ebp+8]
  00409733: 8B 04 85 70 3F 41  mov         eax,dword ptr [eax*4+00413F70h]
            00
  0040973A: 56                 push        esi
  0040973B: 57                 push        edi
  0040973C: 8B FB              mov         edi,ebx
  0040973E: 8B 44 08 18        mov         eax,dword ptr [eax+ecx+18h]
  00409742: 8B 4D 10           mov         ecx,dword ptr [ebp+10h]
  00409745: 03 D1              add         edx,ecx
  00409747: 89 85 F8 EB FF FF  mov         dword ptr [ebp+FFFFEBF8h],eax
  0040974D: 33 C0              xor         eax,eax
  0040974F: AB                 stos        dword ptr es:[edi]
  00409750: 89 95 F4 EB FF FF  mov         dword ptr [ebp+FFFFEBF4h],edx
  00409756: AB                 stos        dword ptr es:[edi]
  00409757: AB                 stos        dword ptr es:[edi]
  00409758: 3B CA              cmp         ecx,edx
  0040975A: 73 73              jae         004097CF
  0040975C: 8B BD F8 EB FF FF  mov         edi,dword ptr [ebp+FFFFEBF8h]
  00409762: 8D B5 FC EB FF FF  lea         esi,[ebp+FFFFEBFCh]
  00409768: 3B CA              cmp         ecx,edx
  0040976A: 73 18              jae         00409784
  0040976C: 8A 01              mov         al,byte ptr [ecx]
  0040976E: 41                 inc         ecx
  0040976F: 3C 0A              cmp         al,0Ah
  00409771: 75 07              jne         0040977A
  00409773: FF 43 08           inc         dword ptr [ebx+8]
  00409776: C6 06 0D           mov         byte ptr [esi],0Dh
  00409779: 46                 inc         esi
  0040977A: 88 06              mov         byte ptr [esi],al
  0040977C: 46                 inc         esi
  0040977D: 8D 45 FB           lea         eax,[ebp-5]
  00409780: 3B F0              cmp         esi,eax
  00409782: 72 E4              jb          00409768
  00409784: 8D 85 FC EB FF FF  lea         eax,[ebp+FFFFEBFCh]
  0040978A: 89 4D 10           mov         dword ptr [ebp+10h],ecx
  0040978D: 2B F0              sub         esi,eax
  0040978F: 8D 85 F8 EB FF FF  lea         eax,[ebp+FFFFEBF8h]
  00409795: 6A 00              push        0
  00409797: 50                 push        eax
  00409798: 56                 push        esi
  00409799: 8D 85 FC EB FF FF  lea         eax,[ebp+FFFFEBFCh]
  0040979F: 50                 push        eax
  004097A0: 57                 push        edi
  004097A1: FF 15 78 D0 40 00  call        dword ptr ds:[0040D078h]
  004097A7: 85 C0              test        eax,eax
  004097A9: 74 1C              je          004097C7
  004097AB: 8B 85 F8 EB FF FF  mov         eax,dword ptr [ebp+FFFFEBF8h]
  004097B1: 01 43 04           add         dword ptr [ebx+4],eax
  004097B4: 3B C6              cmp         eax,esi
  004097B6: 72 17              jb          004097CF
  004097B8: 8B 4D 10           mov         ecx,dword ptr [ebp+10h]
  004097BB: 8B 95 F4 EB FF FF  mov         edx,dword ptr [ebp+FFFFEBF4h]
  004097C1: 3B CA              cmp         ecx,edx
  004097C3: 72 9D              jb          00409762
  004097C5: EB 08              jmp         004097CF
  004097C7: FF 15 3C D0 40 00  call        dword ptr ds:[0040D03Ch]
  004097CD: 89 03              mov         dword ptr [ebx],eax
  004097CF: 8B 4D FC           mov         ecx,dword ptr [ebp-4]
  004097D2: 8B C3              mov         eax,ebx
  004097D4: 5F                 pop         edi
  004097D5: 5E                 pop         esi
  004097D6: 33 CD              xor         ecx,ebp
  004097D8: 5B                 pop         ebx
  004097D9: E8 49 82 FF FF     call        00401A27
  004097DE: C9                 leave
  004097DF: C3                 ret
  004097E0: 8B FF              mov         edi,edi
  004097E2: 55                 push        ebp
  004097E3: 8B EC              mov         ebp,esp
  004097E5: B8 10 14 00 00     mov         eax,1410h
  004097EA: E8 61 30 00 00     call        0040C850
  004097EF: A1 18 30 41 00     mov         eax,dword ptr ds:[00413018h]
  004097F4: 33 C5              xor         eax,ebp
  004097F6: 89 45 FC           mov         dword ptr [ebp-4],eax
  004097F9: 8B 4D 0C           mov         ecx,dword ptr [ebp+0Ch]
  004097FC: 8B C1              mov         eax,ecx
  004097FE: 8B 55 14           mov         edx,dword ptr [ebp+14h]
  00409801: 83 E1 3F           and         ecx,3Fh
  00409804: C1 F8 06           sar         eax,6
  00409807: 6B C9 38           imul        ecx,ecx,38h
  0040980A: 53                 push        ebx
  0040980B: 8B 5D 08           mov         ebx,dword ptr [ebp+8]
  0040980E: 8B 04 85 70 3F 41  mov         eax,dword ptr [eax*4+00413F70h]
            00
  00409815: 56                 push        esi
  00409816: 57                 push        edi
  00409817: 8B FB              mov         edi,ebx
  00409819: 8B 44 08 18        mov         eax,dword ptr [eax+ecx+18h]
  0040981D: 8B 4D 10           mov         ecx,dword ptr [ebp+10h]
  00409820: 03 D1              add         edx,ecx
  00409822: 89 85 F8 EB FF FF  mov         dword ptr [ebp+FFFFEBF8h],eax
  00409828: 33 C0              xor         eax,eax
  0040982A: AB                 stos        dword ptr es:[edi]
  0040982B: 89 95 F0 EB FF FF  mov         dword ptr [ebp+FFFFEBF0h],edx
  00409831: AB                 stos        dword ptr es:[edi]
  00409832: AB                 stos        dword ptr es:[edi]
  00409833: EB 75              jmp         004098AA
  00409835: 8D B5 FC EB FF FF  lea         esi,[ebp+FFFFEBFCh]
  0040983B: 3B CA              cmp         ecx,edx
  0040983D: 73 25              jae         00409864
  0040983F: 0F B7 01           movzx       eax,word ptr [ecx]
  00409842: 83 C1 02           add         ecx,2
  00409845: 83 F8 0A           cmp         eax,0Ah
  00409848: 75 0D              jne         00409857
  0040984A: 83 43 08 02        add         dword ptr [ebx+8],2
  0040984E: 6A 0D              push        0Dh
  00409850: 5F                 pop         edi
  00409851: 66 89 3E           mov         word ptr [esi],di
  00409854: 83 C6 02           add         esi,2
  00409857: 66 89 06           mov         word ptr [esi],ax
  0040985A: 83 C6 02           add         esi,2
  0040985D: 8D 45 FA           lea         eax,[ebp-6]
  00409860: 3B F0              cmp         esi,eax
  00409862: 72 D7              jb          0040983B
  00409864: 8B BD F8 EB FF FF  mov         edi,dword ptr [ebp+FFFFEBF8h]
  0040986A: 8D 85 FC EB FF FF  lea         eax,[ebp+FFFFEBFCh]
  00409870: 2B F0              sub         esi,eax
  00409872: 89 4D 10           mov         dword ptr [ebp+10h],ecx
  00409875: 6A 00              push        0
  00409877: 8D 85 F4 EB FF FF  lea         eax,[ebp+FFFFEBF4h]
  0040987D: 83 E6 FE           and         esi,0FFFFFFFEh
  00409880: 50                 push        eax
  00409881: 56                 push        esi
  00409882: 8D 85 FC EB FF FF  lea         eax,[ebp+FFFFEBFCh]
  00409888: 50                 push        eax
  00409889: 57                 push        edi
  0040988A: FF 15 78 D0 40 00  call        dword ptr ds:[0040D078h]
  00409890: 85 C0              test        eax,eax
  00409892: 74 1C              je          004098B0
  00409894: 8B 85 F4 EB FF FF  mov         eax,dword ptr [ebp+FFFFEBF4h]
  0040989A: 01 43 04           add         dword ptr [ebx+4],eax
  0040989D: 3B C6              cmp         eax,esi
  0040989F: 72 17              jb          004098B8
  004098A1: 8B 4D 10           mov         ecx,dword ptr [ebp+10h]
  004098A4: 8B 95 F0 EB FF FF  mov         edx,dword ptr [ebp+FFFFEBF0h]
  004098AA: 3B CA              cmp         ecx,edx
  004098AC: 72 87              jb          00409835
  004098AE: EB 08              jmp         004098B8
  004098B0: FF 15 3C D0 40 00  call        dword ptr ds:[0040D03Ch]
  004098B6: 89 03              mov         dword ptr [ebx],eax
  004098B8: 8B 4D FC           mov         ecx,dword ptr [ebp-4]
  004098BB: 8B C3              mov         eax,ebx
  004098BD: 5F                 pop         edi
  004098BE: 5E                 pop         esi
  004098BF: 33 CD              xor         ecx,ebp
  004098C1: 5B                 pop         ebx
  004098C2: E8 60 81 FF FF     call        00401A27
  004098C7: C9                 leave
  004098C8: C3                 ret
  004098C9: 8B FF              mov         edi,edi
  004098CB: 55                 push        ebp
  004098CC: 8B EC              mov         ebp,esp
  004098CE: B8 18 14 00 00     mov         eax,1418h
  004098D3: E8 78 2F 00 00     call        0040C850
  004098D8: A1 18 30 41 00     mov         eax,dword ptr ds:[00413018h]
  004098DD: 33 C5              xor         eax,ebp
  004098DF: 89 45 FC           mov         dword ptr [ebp-4],eax
  004098E2: 8B 4D 0C           mov         ecx,dword ptr [ebp+0Ch]
  004098E5: 8B C1              mov         eax,ecx
  004098E7: 8B 55 10           mov         edx,dword ptr [ebp+10h]
  004098EA: 83 E1 3F           and         ecx,3Fh
  004098ED: C1 F8 06           sar         eax,6
  004098F0: 6B C9 38           imul        ecx,ecx,38h
  004098F3: 53                 push        ebx
  004098F4: 56                 push        esi
  004098F5: 8B 04 85 70 3F 41  mov         eax,dword ptr [eax*4+00413F70h]
            00
  004098FC: 8B 75 08           mov         esi,dword ptr [ebp+8]
  004098FF: 57                 push        edi
  00409900: 8B FE              mov         edi,esi
  00409902: 8B 44 08 18        mov         eax,dword ptr [eax+ecx+18h]
  00409906: 8B 4D 14           mov         ecx,dword ptr [ebp+14h]
  00409909: 89 85 F0 EB FF FF  mov         dword ptr [ebp+FFFFEBF0h],eax
  0040990F: 03 CA              add         ecx,edx
  00409911: 33 C0              xor         eax,eax
  00409913: 89 8D F4 EB FF FF  mov         dword ptr [ebp+FFFFEBF4h],ecx
  00409919: AB                 stos        dword ptr es:[edi]
  0040991A: AB                 stos        dword ptr es:[edi]
  0040991B: AB                 stos        dword ptr es:[edi]
  0040991C: 8B FA              mov         edi,edx
  0040991E: 3B D1              cmp         edx,ecx
  00409920: 0F 83 C4 00 00 00  jae         004099EA
  00409926: 8B B5 F4 EB FF FF  mov         esi,dword ptr [ebp+FFFFEBF4h]
  0040992C: 8D 85 50 F9 FF FF  lea         eax,[ebp+FFFFF950h]
  00409932: 3B FE              cmp         edi,esi
  00409934: 73 21              jae         00409957
  00409936: 0F B7 0F           movzx       ecx,word ptr [edi]
  00409939: 83 C7 02           add         edi,2
  0040993C: 83 F9 0A           cmp         ecx,0Ah
  0040993F: 75 09              jne         0040994A
  00409941: 6A 0D              push        0Dh
  00409943: 5A                 pop         edx
  00409944: 66 89 10           mov         word ptr [eax],dx
  00409947: 83 C0 02           add         eax,2
  0040994A: 66 89 08           mov         word ptr [eax],cx
  0040994D: 83 C0 02           add         eax,2
  00409950: 8D 4D F8           lea         ecx,[ebp-8]
  00409953: 3B C1              cmp         eax,ecx
  00409955: 72 DB              jb          00409932
  00409957: 6A 00              push        0
  00409959: 6A 00              push        0
  0040995B: 68 55 0D 00 00     push        0D55h
  00409960: 8D 8D F8 EB FF FF  lea         ecx,[ebp+FFFFEBF8h]
  00409966: 51                 push        ecx
  00409967: 8D 8D 50 F9 FF FF  lea         ecx,[ebp+FFFFF950h]
  0040996D: 2B C1              sub         eax,ecx
  0040996F: D1 F8              sar         eax,1
  00409971: 50                 push        eax
  00409972: 8B C1              mov         eax,ecx
  00409974: 50                 push        eax
  00409975: 6A 00              push        0
  00409977: 68 E9 FD 00 00     push        0FDE9h
  0040997C: E8 31 C7 FF FF     call        004060B2
  00409981: 8B 75 08           mov         esi,dword ptr [ebp+8]
  00409984: 83 C4 20           add         esp,20h
  00409987: 89 85 E8 EB FF FF  mov         dword ptr [ebp+FFFFEBE8h],eax
  0040998D: 85 C0              test        eax,eax
  0040998F: 74 51              je          004099E2
  00409991: 33 DB              xor         ebx,ebx
  00409993: 85 C0              test        eax,eax
  00409995: 74 35              je          004099CC
  00409997: 6A 00              push        0
  00409999: 8D 8D EC EB FF FF  lea         ecx,[ebp+FFFFEBECh]
  0040999F: 2B C3              sub         eax,ebx
  004099A1: 51                 push        ecx
  004099A2: 50                 push        eax
  004099A3: 8D 85 F8 EB FF FF  lea         eax,[ebp+FFFFEBF8h]
  004099A9: 03 C3              add         eax,ebx
  004099AB: 50                 push        eax
  004099AC: FF B5 F0 EB FF FF  push        dword ptr [ebp+FFFFEBF0h]
  004099B2: FF 15 78 D0 40 00  call        dword ptr ds:[0040D078h]
  004099B8: 85 C0              test        eax,eax
  004099BA: 74 26              je          004099E2
  004099BC: 03 9D EC EB FF FF  add         ebx,dword ptr [ebp+FFFFEBECh]
  004099C2: 8B 85 E8 EB FF FF  mov         eax,dword ptr [ebp+FFFFEBE8h]
  004099C8: 3B D8              cmp         ebx,eax
  004099CA: 72 CB              jb          00409997
  004099CC: 8B C7              mov         eax,edi
  004099CE: 2B 45 10           sub         eax,dword ptr [ebp+10h]
  004099D1: 89 46 04           mov         dword ptr [esi+4],eax
  004099D4: 3B BD F4 EB FF FF  cmp         edi,dword ptr [ebp+FFFFEBF4h]
  004099DA: 0F 82 46 FF FF FF  jb          00409926
  004099E0: EB 08              jmp         004099EA
  004099E2: FF 15 3C D0 40 00  call        dword ptr ds:[0040D03Ch]
  004099E8: 89 06              mov         dword ptr [esi],eax
  004099EA: 8B 4D FC           mov         ecx,dword ptr [ebp-4]
  004099ED: 8B C6              mov         eax,esi
  004099EF: 5F                 pop         edi
  004099F0: 5E                 pop         esi
  004099F1: 33 CD              xor         ecx,ebp
  004099F3: 5B                 pop         ebx
  004099F4: E8 2E 80 FF FF     call        00401A27
  004099F9: C9                 leave
  004099FA: C3                 ret
  004099FB: 6A 10              push        10h
  004099FD: 68 58 22 41 00     push        412258h
  00409A02: E8 E9 7D FF FF     call        004017F0
  00409A07: 8B 75 08           mov         esi,dword ptr [ebp+8]
  00409A0A: 83 FE FE           cmp         esi,0FFFFFFFEh
  00409A0D: 75 18              jne         00409A27
  00409A0F: E8 34 B3 FF FF     call        00404D48
  00409A14: 83 20 00           and         dword ptr [eax],0
  00409A17: E8 3F B3 FF FF     call        00404D5B
  00409A1C: C7 00 09 00 00 00  mov         dword ptr [eax],9
  00409A22: E9 B3 00 00 00     jmp         00409ADA
  00409A27: 85 F6              test        esi,esi
  00409A29: 0F 88 93 00 00 00  js          00409AC2
  00409A2F: 3B 35 70 41 41 00  cmp         esi,dword ptr ds:[00414170h]
  00409A35: 0F 83 87 00 00 00  jae         00409AC2
  00409A3B: 8B DE              mov         ebx,esi
  00409A3D: C1 FB 06           sar         ebx,6
  00409A40: 8B C6              mov         eax,esi
  00409A42: 83 E0 3F           and         eax,3Fh
  00409A45: 6B C8 38           imul        ecx,eax,38h
  00409A48: 89 4D E0           mov         dword ptr [ebp-20h],ecx
  00409A4B: 8B 04 9D 70 3F 41  mov         eax,dword ptr [ebx*4+00413F70h]
            00
  00409A52: F6 44 08 28 01     test        byte ptr [eax+ecx+28h],1
  00409A57: 74 69              je          00409AC2
  00409A59: 56                 push        esi
  00409A5A: E8 42 CD FF FF     call        004067A1
  00409A5F: 59                 pop         ecx
  00409A60: 83 CF FF           or          edi,0FFFFFFFFh
  00409A63: 89 7D E4           mov         dword ptr [ebp-1Ch],edi
  00409A66: 83 65 FC 00        and         dword ptr [ebp-4],0
  00409A6A: 8B 04 9D 70 3F 41  mov         eax,dword ptr [ebx*4+00413F70h]
            00
  00409A71: 8B 4D E0           mov         ecx,dword ptr [ebp-20h]
  00409A74: F6 44 08 28 01     test        byte ptr [eax+ecx+28h],1
  00409A79: 75 15              jne         00409A90
  00409A7B: E8 DB B2 FF FF     call        00404D5B
  00409A80: C7 00 09 00 00 00  mov         dword ptr [eax],9
  00409A86: E8 BD B2 FF FF     call        00404D48
  00409A8B: 83 20 00           and         dword ptr [eax],0
  00409A8E: EB 14              jmp         00409AA4
  00409A90: FF 75 10           push        dword ptr [ebp+10h]
  00409A93: FF 75 0C           push        dword ptr [ebp+0Ch]
  00409A96: 56                 push        esi
  00409A97: E8 51 00 00 00     call        00409AED
  00409A9C: 83 C4 0C           add         esp,0Ch
  00409A9F: 8B F8              mov         edi,eax
  00409AA1: 89 7D E4           mov         dword ptr [ebp-1Ch],edi
  00409AA4: C7 45 FC FE FF FF  mov         dword ptr [ebp-4],0FFFFFFFEh
            FF
  00409AAB: E8 0A 00 00 00     call        00409ABA
  00409AB0: 8B C7              mov         eax,edi
  00409AB2: EB 29              jmp         00409ADD
  00409AB4: 8B 75 08           mov         esi,dword ptr [ebp+8]
  00409AB7: 8B 7D E4           mov         edi,dword ptr [ebp-1Ch]
  00409ABA: 56                 push        esi
  00409ABB: E8 04 CD FF FF     call        004067C4
  00409AC0: 59                 pop         ecx
  00409AC1: C3                 ret
  00409AC2: E8 81 B2 FF FF     call        00404D48
  00409AC7: 83 20 00           and         dword ptr [eax],0
  00409ACA: E8 8C B2 FF FF     call        00404D5B
  00409ACF: C7 00 09 00 00 00  mov         dword ptr [eax],9
  00409AD5: E8 C4 B1 FF FF     call        00404C9E
  00409ADA: 83 C8 FF           or          eax,0FFFFFFFFh
  00409ADD: 8B 4D F0           mov         ecx,dword ptr [ebp-10h]
  00409AE0: 64 89 0D 00 00 00  mov         dword ptr fs:[00000000h],ecx
            00
  00409AE7: 59                 pop         ecx
  00409AE8: 5F                 pop         edi
  00409AE9: 5E                 pop         esi
  00409AEA: 5B                 pop         ebx
  00409AEB: C9                 leave
  00409AEC: C3                 ret
  00409AED: 8B FF              mov         edi,edi
  00409AEF: 55                 push        ebp
  00409AF0: 8B EC              mov         ebp,esp
  00409AF2: 83 EC 28           sub         esp,28h
  00409AF5: 8B 4D 10           mov         ecx,dword ptr [ebp+10h]
  00409AF8: 8B 45 0C           mov         eax,dword ptr [ebp+0Ch]
  00409AFB: 89 45 FC           mov         dword ptr [ebp-4],eax
  00409AFE: 89 4D F0           mov         dword ptr [ebp-10h],ecx
  00409B01: 53                 push        ebx
  00409B02: 56                 push        esi
  00409B03: 8B 75 08           mov         esi,dword ptr [ebp+8]
  00409B06: 57                 push        edi
  00409B07: 85 C9              test        ecx,ecx
  00409B09: 0F 84 B9 01 00 00  je          00409CC8
  00409B0F: 85 C0              test        eax,eax
  00409B11: 75 20              jne         00409B33
  00409B13: E8 30 B2 FF FF     call        00404D48
  00409B18: 83 20 00           and         dword ptr [eax],0
  00409B1B: E8 3B B2 FF FF     call        00404D5B
  00409B20: C7 00 16 00 00 00  mov         dword ptr [eax],16h
  00409B26: E8 73 B1 FF FF     call        00404C9E
  00409B2B: 83 C8 FF           or          eax,0FFFFFFFFh
  00409B2E: E9 97 01 00 00     jmp         00409CCA
  00409B33: 8B C6              mov         eax,esi
  00409B35: 8B D6              mov         edx,esi
  00409B37: C1 FA 06           sar         edx,6
  00409B3A: 83 E0 3F           and         eax,3Fh
  00409B3D: 6B F8 38           imul        edi,eax,38h
  00409B40: 89 55 F8           mov         dword ptr [ebp-8],edx
  00409B43: 8B 14 95 70 3F 41  mov         edx,dword ptr [edx*4+00413F70h]
            00
  00409B4A: 89 7D F4           mov         dword ptr [ebp-0Ch],edi
  00409B4D: 8A 5C 3A 29        mov         bl,byte ptr [edx+edi+29h]
  00409B51: 80 FB 02           cmp         bl,2
  00409B54: 74 05              je          00409B5B
  00409B56: 80 FB 01           cmp         bl,1
  00409B59: 75 08              jne         00409B63
  00409B5B: 8B C1              mov         eax,ecx
  00409B5D: F7 D0              not         eax
  00409B5F: A8 01              test        al,1
  00409B61: 74 B0              je          00409B13
  00409B63: F6 44 3A 28 20     test        byte ptr [edx+edi+28h],20h
  00409B68: 74 0F              je          00409B79
  00409B6A: 6A 02              push        2
  00409B6C: 6A 00              push        0
  00409B6E: 6A 00              push        0
  00409B70: 56                 push        esi
  00409B71: E8 1D 0A 00 00     call        0040A593
  00409B76: 83 C4 10           add         esp,10h
  00409B79: 33 C0              xor         eax,eax
  00409B7B: 8D 7D E4           lea         edi,[ebp-1Ch]
  00409B7E: AB                 stos        dword ptr es:[edi]
  00409B7F: 56                 push        esi
  00409B80: AB                 stos        dword ptr es:[edi]
  00409B81: AB                 stos        dword ptr es:[edi]
  00409B82: E8 0D FB FF FF     call        00409694
  00409B87: 59                 pop         ecx
  00409B88: 84 C0              test        al,al
  00409B8A: 74 3F              je          00409BCB
  00409B8C: 84 DB              test        bl,bl
  00409B8E: 74 25              je          00409BB5
  00409B90: FE CB              dec         bl
  00409B92: 80 FB 01           cmp         bl,1
  00409B95: 8B 5D FC           mov         ebx,dword ptr [ebp-4]
  00409B98: 0F 87 BC 00 00 00  ja          00409C5A
  00409B9E: FF 75 F0           push        dword ptr [ebp-10h]
  00409BA1: 8D 45 D8           lea         eax,[ebp-28h]
  00409BA4: 53                 push        ebx
  00409BA5: 50                 push        eax
  00409BA6: E8 81 FA FF FF     call        0040962C
  00409BAB: 83 C4 0C           add         esp,0Ch
  00409BAE: 8B F0              mov         esi,eax
  00409BB0: E9 9F 00 00 00     jmp         00409C54
  00409BB5: FF 75 F0           push        dword ptr [ebp-10h]
  00409BB8: 8B 5D FC           mov         ebx,dword ptr [ebp-4]
  00409BBB: 8D 45 D8           lea         eax,[ebp-28h]
  00409BBE: 53                 push        ebx
  00409BBF: 56                 push        esi
  00409BC0: 50                 push        eax
  00409BC1: E8 BC F6 FF FF     call        00409282
  00409BC6: 83 C4 10           add         esp,10h
  00409BC9: EB E3              jmp         00409BAE
  00409BCB: 8B 4D F8           mov         ecx,dword ptr [ebp-8]
  00409BCE: 8B 55 F4           mov         edx,dword ptr [ebp-0Ch]
  00409BD1: 8B 04 8D 70 3F 41  mov         eax,dword ptr [ecx*4+00413F70h]
            00
  00409BD8: 80 7C 10 28 00     cmp         byte ptr [eax+edx+28h],0
  00409BDD: 7D 45              jge         00409C24
  00409BDF: 0F BE C3           movsx       eax,bl
  00409BE2: 8B 5D FC           mov         ebx,dword ptr [ebp-4]
  00409BE5: 83 E8 00           sub         eax,0
  00409BE8: 74 2A              je          00409C14
  00409BEA: 83 E8 01           sub         eax,1
  00409BED: 74 15              je          00409C04
  00409BEF: 83 E8 01           sub         eax,1
  00409BF2: 75 6C              jne         00409C60
  00409BF4: FF 75 F0           push        dword ptr [ebp-10h]
  00409BF7: 8D 45 D8           lea         eax,[ebp-28h]
  00409BFA: 53                 push        ebx
  00409BFB: 56                 push        esi
  00409BFC: 50                 push        eax
  00409BFD: E8 DE FB FF FF     call        004097E0
  00409C02: EB C2              jmp         00409BC6
  00409C04: FF 75 F0           push        dword ptr [ebp-10h]
  00409C07: 8D 45 D8           lea         eax,[ebp-28h]
  00409C0A: 53                 push        ebx
  00409C0B: 56                 push        esi
  00409C0C: 50                 push        eax
  00409C0D: E8 B7 FC FF FF     call        004098C9
  00409C12: EB B2              jmp         00409BC6
  00409C14: FF 75 F0           push        dword ptr [ebp-10h]
  00409C17: 8D 45 D8           lea         eax,[ebp-28h]
  00409C1A: 53                 push        ebx
  00409C1B: 56                 push        esi
  00409C1C: 50                 push        eax
  00409C1D: E8 E3 FA FF FF     call        00409705
  00409C22: EB A2              jmp         00409BC6
  00409C24: 8B 4C 10 18        mov         ecx,dword ptr [eax+edx+18h]
  00409C28: 8D 7D D8           lea         edi,[ebp-28h]
  00409C2B: 8B 5D FC           mov         ebx,dword ptr [ebp-4]
  00409C2E: 33 C0              xor         eax,eax
  00409C30: AB                 stos        dword ptr es:[edi]
  00409C31: 6A 00              push        0
  00409C33: AB                 stos        dword ptr es:[edi]
  00409C34: AB                 stos        dword ptr es:[edi]
  00409C35: 8D 45 DC           lea         eax,[ebp-24h]
  00409C38: 50                 push        eax
  00409C39: FF 75 F0           push        dword ptr [ebp-10h]
  00409C3C: 53                 push        ebx
  00409C3D: 51                 push        ecx
  00409C3E: FF 15 78 D0 40 00  call        dword ptr ds:[0040D078h]
  00409C44: 85 C0              test        eax,eax
  00409C46: 75 09              jne         00409C51
  00409C48: FF 15 3C D0 40 00  call        dword ptr ds:[0040D03Ch]
  00409C4E: 89 45 D8           mov         dword ptr [ebp-28h],eax
  00409C51: 8D 75 D8           lea         esi,[ebp-28h]
  00409C54: 8D 7D E4           lea         edi,[ebp-1Ch]
  00409C57: A5                 movs        dword ptr es:[edi],dword ptr [esi]
  00409C58: A5                 movs        dword ptr es:[edi],dword ptr [esi]
  00409C59: A5                 movs        dword ptr es:[edi],dword ptr [esi]
  00409C5A: 8B 4D F8           mov         ecx,dword ptr [ebp-8]
  00409C5D: 8B 55 F4           mov         edx,dword ptr [ebp-0Ch]
  00409C60: 8B 45 E8           mov         eax,dword ptr [ebp-18h]
  00409C63: 85 C0              test        eax,eax
  00409C65: 75 5C              jne         00409CC3
  00409C67: 8B 45 E4           mov         eax,dword ptr [ebp-1Ch]
  00409C6A: 85 C0              test        eax,eax
  00409C6C: 74 2A              je          00409C98
  00409C6E: 6A 05              push        5
  00409C70: 5E                 pop         esi
  00409C71: 3B C6              cmp         eax,esi
  00409C73: 75 17              jne         00409C8C
  00409C75: E8 E1 B0 FF FF     call        00404D5B
  00409C7A: C7 00 09 00 00 00  mov         dword ptr [eax],9
  00409C80: E8 C3 B0 FF FF     call        00404D48
  00409C85: 89 30              mov         dword ptr [eax],esi
  00409C87: E9 9F FE FF FF     jmp         00409B2B
  00409C8C: 50                 push        eax
  00409C8D: E8 93 B0 FF FF     call        00404D25
  00409C92: 59                 pop         ecx
  00409C93: E9 93 FE FF FF     jmp         00409B2B
  00409C98: 8B 04 8D 70 3F 41  mov         eax,dword ptr [ecx*4+00413F70h]
            00
  00409C9F: F6 44 10 28 40     test        byte ptr [eax+edx+28h],40h
  00409CA4: 74 05              je          00409CAB
  00409CA6: 80 3B 1A           cmp         byte ptr [ebx],1Ah
  00409CA9: 74 1D              je          00409CC8
  00409CAB: E8 AB B0 FF FF     call        00404D5B
  00409CB0: C7 00 1C 00 00 00  mov         dword ptr [eax],1Ch
  00409CB6: E8 8D B0 FF FF     call        00404D48
  00409CBB: 83 20 00           and         dword ptr [eax],0
  00409CBE: E9 68 FE FF FF     jmp         00409B2B
  00409CC3: 2B 45 EC           sub         eax,dword ptr [ebp-14h]
  00409CC6: EB 02              jmp         00409CCA
  00409CC8: 33 C0              xor         eax,eax
  00409CCA: 5F                 pop         edi
  00409CCB: 5E                 pop         esi
  00409CCC: 5B                 pop         ebx
  00409CCD: C9                 leave
  00409CCE: C3                 ret
  00409CCF: 6A 10              push        10h
  00409CD1: 68 78 22 41 00     push        412278h
  00409CD6: E8 15 7B FF FF     call        004017F0
  00409CDB: 83 65 E4 00        and         dword ptr [ebp-1Ch],0
  00409CDF: 6A 08              push        8
  00409CE1: E8 DD C8 FF FF     call        004065C3
  00409CE6: 59                 pop         ecx
  00409CE7: 83 65 FC 00        and         dword ptr [ebp-4],0
  00409CEB: 6A 03              push        3
  00409CED: 5E                 pop         esi
  00409CEE: 89 75 E0           mov         dword ptr [ebp-20h],esi
  00409CF1: 3B 35 70 42 41 00  cmp         esi,dword ptr ds:[00414270h]
  00409CF7: 74 59              je          00409D52
  00409CF9: A1 74 42 41 00     mov         eax,dword ptr ds:[00414274h]
  00409CFE: 8B 04 B0           mov         eax,dword ptr [eax+esi*4]
  00409D01: 85 C0              test        eax,eax
  00409D03: 74 4A              je          00409D4F
  00409D05: 8B 40 0C           mov         eax,dword ptr [eax+0Ch]
  00409D08: 90                 nop
  00409D09: C1 E8 0D           shr         eax,0Dh
  00409D0C: A8 01              test        al,1
  00409D0E: 74 16              je          00409D26
  00409D10: A1 74 42 41 00     mov         eax,dword ptr ds:[00414274h]
  00409D15: FF 34 B0           push        dword ptr [eax+esi*4]
  00409D18: E8 3A 09 00 00     call        0040A657
  00409D1D: 59                 pop         ecx
  00409D1E: 83 F8 FF           cmp         eax,0FFFFFFFFh
  00409D21: 74 03              je          00409D26
  00409D23: FF 45 E4           inc         dword ptr [ebp-1Ch]
  00409D26: A1 74 42 41 00     mov         eax,dword ptr ds:[00414274h]
  00409D2B: 8B 04 B0           mov         eax,dword ptr [eax+esi*4]
  00409D2E: 83 C0 20           add         eax,20h
  00409D31: 50                 push        eax
  00409D32: FF 15 4C D0 40 00  call        dword ptr ds:[0040D04Ch]
  00409D38: A1 74 42 41 00     mov         eax,dword ptr ds:[00414274h]
  00409D3D: FF 34 B0           push        dword ptr [eax+esi*4]
  00409D40: E8 86 B0 FF FF     call        00404DCB
  00409D45: 59                 pop         ecx
  00409D46: A1 74 42 41 00     mov         eax,dword ptr ds:[00414274h]
  00409D4B: 83 24 B0 00        and         dword ptr [eax+esi*4],0
  00409D4F: 46                 inc         esi
  00409D50: EB 9C              jmp         00409CEE
  00409D52: C7 45 FC FE FF FF  mov         dword ptr [ebp-4],0FFFFFFFEh
            FF
  00409D59: E8 13 00 00 00     call        00409D71
  00409D5E: 8B 45 E4           mov         eax,dword ptr [ebp-1Ch]
  00409D61: 8B 4D F0           mov         ecx,dword ptr [ebp-10h]
  00409D64: 64 89 0D 00 00 00  mov         dword ptr fs:[00000000h],ecx
            00
  00409D6B: 59                 pop         ecx
  00409D6C: 5F                 pop         edi
  00409D6D: 5E                 pop         esi
  00409D6E: 5B                 pop         ebx
  00409D6F: C9                 leave
  00409D70: C3                 ret
  00409D71: 6A 08              push        8
  00409D73: E8 93 C8 FF FF     call        0040660B
  00409D78: 59                 pop         ecx
  00409D79: C3                 ret
  00409D7A: 8B FF              mov         edi,edi
  00409D7C: 55                 push        ebp
  00409D7D: 8B EC              mov         ebp,esp
  00409D7F: 56                 push        esi
  00409D80: 8B 75 08           mov         esi,dword ptr [ebp+8]
  00409D83: 57                 push        edi
  00409D84: 8D 7E 0C           lea         edi,[esi+0Ch]
  00409D87: 8B 07              mov         eax,dword ptr [edi]
  00409D89: 90                 nop
  00409D8A: C1 E8 0D           shr         eax,0Dh
  00409D8D: A8 01              test        al,1
  00409D8F: 74 25              je          00409DB6
  00409D91: 8B 07              mov         eax,dword ptr [edi]
  00409D93: 90                 nop
  00409D94: C1 E8 06           shr         eax,6
  00409D97: A8 01              test        al,1
  00409D99: 74 1B              je          00409DB6
  00409D9B: FF 76 04           push        dword ptr [esi+4]
  00409D9E: E8 28 B0 FF FF     call        00404DCB
  00409DA3: 59                 pop         ecx
  00409DA4: B8 BF FE FF FF     mov         eax,0FFFFFEBFh
  00409DA9: F0 21 07           lock and    dword ptr [edi],eax
  00409DAC: 33 C0              xor         eax,eax
  00409DAE: 89 46 04           mov         dword ptr [esi+4],eax
  00409DB1: 89 06              mov         dword ptr [esi],eax
  00409DB3: 89 46 08           mov         dword ptr [esi+8],eax
  00409DB6: 5F                 pop         edi
  00409DB7: 5E                 pop         esi
  00409DB8: 5D                 pop         ebp
  00409DB9: C3                 ret
  00409DBA: 8B FF              mov         edi,edi
  00409DBC: 55                 push        ebp
  00409DBD: 8B EC              mov         ebp,esp
  00409DBF: 8B 4D 08           mov         ecx,dword ptr [ebp+8]
  00409DC2: 83 F9 FE           cmp         ecx,0FFFFFFFEh
  00409DC5: 75 0D              jne         00409DD4
  00409DC7: E8 8F AF FF FF     call        00404D5B
  00409DCC: C7 00 09 00 00 00  mov         dword ptr [eax],9
  00409DD2: EB 38              jmp         00409E0C
  00409DD4: 85 C9              test        ecx,ecx
  00409DD6: 78 24              js          00409DFC
  00409DD8: 3B 0D 70 41 41 00  cmp         ecx,dword ptr ds:[00414170h]
  00409DDE: 73 1C              jae         00409DFC
  00409DE0: 8B C1              mov         eax,ecx
  00409DE2: 83 E1 3F           and         ecx,3Fh
  00409DE5: C1 F8 06           sar         eax,6
  00409DE8: 6B C9 38           imul        ecx,ecx,38h
  00409DEB: 8B 04 85 70 3F 41  mov         eax,dword ptr [eax*4+00413F70h]
            00
  00409DF2: 0F B6 44 08 28     movzx       eax,byte ptr [eax+ecx+28h]
  00409DF7: 83 E0 40           and         eax,40h
  00409DFA: 5D                 pop         ebp
  00409DFB: C3                 ret
  00409DFC: E8 5A AF FF FF     call        00404D5B
  00409E01: C7 00 09 00 00 00  mov         dword ptr [eax],9
  00409E07: E8 92 AE FF FF     call        00404C9E
  00409E0C: 33 C0              xor         eax,eax
  00409E0E: 5D                 pop         ebp
  00409E0F: C3                 ret
  00409E10: 6A 08              push        8
  00409E12: 68 98 22 41 00     push        412298h
  00409E17: E8 D4 79 FF FF     call        004017F0
  00409E1C: 83 3D C4 38 41 00  cmp         dword ptr ds:[004138C4h],1
            01
  00409E23: 7C 5B              jl          00409E80
  00409E25: 8B 45 08           mov         eax,dword ptr [ebp+8]
  00409E28: A8 40              test        al,40h
  00409E2A: 74 4A              je          00409E76
  00409E2C: 83 3D 50 37 41 00  cmp         dword ptr ds:[00413750h],0
            00
  00409E33: 74 41              je          00409E76
  00409E35: 83 65 FC 00        and         dword ptr [ebp-4],0
  00409E39: 0F AE 55 08        ldmxcsr     dword ptr [ebp+8]
  00409E3D: C7 45 FC FE FF FF  mov         dword ptr [ebp-4],0FFFFFFFEh
            FF
  00409E44: EB 3A              jmp         00409E80
  00409E46: 8B 45 EC           mov         eax,dword ptr [ebp-14h]
  00409E49: 8B 00              mov         eax,dword ptr [eax]
  00409E4B: 81 38 05 00 00 C0  cmp         dword ptr [eax],0C0000005h
  00409E51: 74 0B              je          00409E5E
  00409E53: 81 38 1D 00 00 C0  cmp         dword ptr [eax],0C000001Dh
  00409E59: 74 03              je          00409E5E
  00409E5B: 33 C0              xor         eax,eax
  00409E5D: C3                 ret
  00409E5E: 33 C0              xor         eax,eax
  00409E60: 40                 inc         eax
  00409E61: C3                 ret
  00409E62: 8B 65 E8           mov         esp,dword ptr [ebp-18h]
  00409E65: 83 25 50 37 41 00  and         dword ptr ds:[00413750h],0
            00
  00409E6C: 83 65 08 BF        and         dword ptr [ebp+8],0FFFFFFBFh
  00409E70: 0F AE 55 08        ldmxcsr     dword ptr [ebp+8]
  00409E74: EB C7              jmp         00409E3D
  00409E76: 83 E0 BF           and         eax,0FFFFFFBFh
  00409E79: 89 45 08           mov         dword ptr [ebp+8],eax
  00409E7C: 0F AE 55 08        ldmxcsr     dword ptr [ebp+8]
  00409E80: 8B 4D F0           mov         ecx,dword ptr [ebp-10h]
  00409E83: 64 89 0D 00 00 00  mov         dword ptr fs:[00000000h],ecx
            00
  00409E8A: 59                 pop         ecx
  00409E8B: 5F                 pop         edi
  00409E8C: 5E                 pop         esi
  00409E8D: 5B                 pop         ebx
  00409E8E: C9                 leave
  00409E8F: C3                 ret
  00409E90: 8B FF              mov         edi,edi
  00409E92: 55                 push        ebp
  00409E93: 8B EC              mov         ebp,esp
  00409E95: 51                 push        ecx
  00409E96: DD 7D FC           fnstsw      word ptr [ebp-4]
  00409E99: DB E2              fnclex
  00409E9B: 0F BF 45 FC        movsx       eax,word ptr [ebp-4]
  00409E9F: C9                 leave
  00409EA0: C3                 ret
  00409EA1: 8B FF              mov         edi,edi
  00409EA3: 55                 push        ebp
  00409EA4: 8B EC              mov         ebp,esp
  00409EA6: 51                 push        ecx
  00409EA7: 51                 push        ecx
  00409EA8: 9B                 wait
  00409EA9: D9 7D FC           fnstcw      word ptr [ebp-4]
  00409EAC: 8B 4D 0C           mov         ecx,dword ptr [ebp+0Ch]
  00409EAF: 8B 45 08           mov         eax,dword ptr [ebp+8]
  00409EB2: F7 D1              not         ecx
  00409EB4: 66 23 4D FC        and         cx,word ptr [ebp-4]
  00409EB8: 23 45 0C           and         eax,dword ptr [ebp+0Ch]
  00409EBB: 66 0B C8           or          cx,ax
  00409EBE: 66 89 4D F8        mov         word ptr [ebp-8],cx
  00409EC2: D9 6D F8           fldcw       word ptr [ebp-8]
  00409EC5: 0F BF 45 FC        movsx       eax,word ptr [ebp-4]
  00409EC9: C9                 leave
  00409ECA: C3                 ret
  00409ECB: 8B FF              mov         edi,edi
  00409ECD: 55                 push        ebp
  00409ECE: 8B EC              mov         ebp,esp
  00409ED0: 8B 4D 08           mov         ecx,dword ptr [ebp+8]
  00409ED3: 83 EC 0C           sub         esp,0Ch
  00409ED6: F6 C1 01           test        cl,1
  00409ED9: 74 0A              je          00409EE5
  00409EDB: DB 2D 70 0F 41 00  fld         tbyte ptr ds:[00410F70h]
  00409EE1: DB 5D FC           fistp       dword ptr [ebp-4]
  00409EE4: 9B                 wait
  00409EE5: F6 C1 08           test        cl,8
  00409EE8: 74 10              je          00409EFA
  00409EEA: 9B                 wait
  00409EEB: DF E0              fnstsw      ax
  00409EED: DB 2D 70 0F 41 00  fld         tbyte ptr ds:[00410F70h]
  00409EF3: DD 5D F4           fstp        qword ptr [ebp-0Ch]
  00409EF6: 9B                 wait
  00409EF7: 9B                 wait
  00409EF8: DF E0              fnstsw      ax
  00409EFA: F6 C1 10           test        cl,10h
  00409EFD: 74 0A              je          00409F09
  00409EFF: DB 2D 7C 0F 41 00  fld         tbyte ptr ds:[00410F7Ch]
  00409F05: DD 5D F4           fstp        qword ptr [ebp-0Ch]
  00409F08: 9B                 wait
  00409F09: F6 C1 04           test        cl,4
  00409F0C: 74 09              je          00409F17
  00409F0E: D9 EE              fldz
  00409F10: D9 E8              fld1
  00409F12: DE F1              fdivrp      st(1),st
  00409F14: DD D8              fstp        st(0)
  00409F16: 9B                 wait
  00409F17: F6 C1 20           test        cl,20h
  00409F1A: 74 06              je          00409F22
  00409F1C: D9 EB              fldpi
  00409F1E: DD 5D F4           fstp        qword ptr [ebp-0Ch]
  00409F21: 9B                 wait
  00409F22: C9                 leave
  00409F23: C3                 ret
  00409F24: 8B FF              mov         edi,edi
  00409F26: 55                 push        ebp
  00409F27: 8B EC              mov         ebp,esp
  00409F29: 51                 push        ecx
  00409F2A: 9B                 wait
  00409F2B: DD 7D FC           fnstsw      word ptr [ebp-4]
  00409F2E: 0F BF 45 FC        movsx       eax,word ptr [ebp-4]
  00409F32: C9                 leave
  00409F33: C3                 ret
  00409F34: 8B FF              mov         edi,edi
  00409F36: 55                 push        ebp
  00409F37: 8B EC              mov         ebp,esp
  00409F39: 83 EC 10           sub         esp,10h
  00409F3C: FF 75 0C           push        dword ptr [ebp+0Ch]
  00409F3F: 8D 4D F0           lea         ecx,[ebp-10h]
  00409F42: E8 DE A4 FF FF     call        00404425
  00409F47: 8B 45 F4           mov         eax,dword ptr [ebp-0Ch]
  00409F4A: 68 00 80 00 00     push        8000h
  00409F4F: FF 75 08           push        dword ptr [ebp+8]
  00409F52: FF 30              push        dword ptr [eax]
  00409F54: E8 E6 9D FF FF     call        00403D3F
  00409F59: 83 C4 0C           add         esp,0Ch
  00409F5C: 80 7D FC 00        cmp         byte ptr [ebp-4],0
  00409F60: 74 0A              je          00409F6C
  00409F62: 8B 4D F0           mov         ecx,dword ptr [ebp-10h]
  00409F65: 83 A1 50 03 00 00  and         dword ptr [ecx+00000350h],0FFFFFFFDh
            FD
  00409F6C: C9                 leave
  00409F6D: C3                 ret
  00409F6E: 8B FF              mov         edi,edi
  00409F70: 55                 push        ebp
  00409F71: 8B EC              mov         ebp,esp
  00409F73: 8B 4D 08           mov         ecx,dword ptr [ebp+8]
  00409F76: 80 39 00           cmp         byte ptr [ecx],0
  00409F79: 75 05              jne         00409F80
  00409F7B: 33 C0              xor         eax,eax
  00409F7D: 40                 inc         eax
  00409F7E: EB 16              jmp         00409F96
  00409F80: 80 79 01 00        cmp         byte ptr [ecx+1],0
  00409F84: 75 05              jne         00409F8B
  00409F86: 6A 02              push        2
  00409F88: 58                 pop         eax
  00409F89: EB 0B              jmp         00409F96
  00409F8B: 33 C0              xor         eax,eax
  00409F8D: 38 41 02           cmp         byte ptr [ecx+2],al
  00409F90: 0F 95 C0           setne       al
  00409F93: 83 C0 03           add         eax,3
  00409F96: 5D                 pop         ebp
  00409F97: C2 04 00           ret         4
  00409F9A: 8B FF              mov         edi,edi
  00409F9C: 55                 push        ebp
  00409F9D: 8B EC              mov         ebp,esp
  00409F9F: 51                 push        ecx
  00409FA0: FF 75 14           push        dword ptr [ebp+14h]
  00409FA3: 8D 45 FC           lea         eax,[ebp-4]
  00409FA6: FF 75 10           push        dword ptr [ebp+10h]
  00409FA9: FF 75 0C           push        dword ptr [ebp+0Ch]
  00409FAC: 50                 push        eax
  00409FAD: E8 29 07 00 00     call        0040A6DB
  00409FB2: 8B D0              mov         edx,eax
  00409FB4: 83 C4 10           add         esp,10h
  00409FB7: 83 FA 04           cmp         edx,4
  00409FBA: 77 1A              ja          00409FD6
  00409FBC: 8B 4D FC           mov         ecx,dword ptr [ebp-4]
  00409FBF: 81 F9 FF FF 00 00  cmp         ecx,0FFFFh
  00409FC5: 76 05              jbe         00409FCC
  00409FC7: B9 FD FF 00 00     mov         ecx,0FFFDh
  00409FCC: 8B 45 08           mov         eax,dword ptr [ebp+8]
  00409FCF: 85 C0              test        eax,eax
  00409FD1: 74 03              je          00409FD6
  00409FD3: 66 89 08           mov         word ptr [eax],cx
  00409FD6: 8B C2              mov         eax,edx
  00409FD8: C9                 leave
  00409FD9: C3                 ret
  00409FDA: 8B FF              mov         edi,edi
  00409FDC: 55                 push        ebp
  00409FDD: 8B EC              mov         ebp,esp
  00409FDF: 51                 push        ecx
  00409FE0: 51                 push        ecx
  00409FE1: 83 7D 08 00        cmp         dword ptr [ebp+8],0
  00409FE5: 53                 push        ebx
  00409FE6: 56                 push        esi
  00409FE7: 57                 push        edi
  00409FE8: 8B 7D 0C           mov         edi,dword ptr [ebp+0Ch]
  00409FEB: 8B 3F              mov         edi,dword ptr [edi]
  00409FED: 0F 84 9C 00 00 00  je          0040A08F
  00409FF3: 8B 5D 10           mov         ebx,dword ptr [ebp+10h]
  00409FF6: 8B 75 08           mov         esi,dword ptr [ebp+8]
  00409FF9: 85 DB              test        ebx,ebx
  00409FFB: 74 68              je          0040A065
  00409FFD: 57                 push        edi
  00409FFE: 8D 4D FF           lea         ecx,[ebp-1]
  0040A001: E8 68 FF FF FF     call        00409F6E
  0040A006: FF 75 14           push        dword ptr [ebp+14h]
  0040A009: 50                 push        eax
  0040A00A: 8D 45 F8           lea         eax,[ebp-8]
  0040A00D: 57                 push        edi
  0040A00E: 50                 push        eax
  0040A00F: E8 C7 06 00 00     call        0040A6DB
  0040A014: 8B D0              mov         edx,eax
  0040A016: 83 C4 10           add         esp,10h
  0040A019: 83 FA FF           cmp         edx,0FFFFFFFFh
  0040A01C: 74 5C              je          0040A07A
  0040A01E: 85 D2              test        edx,edx
  0040A020: 74 4F              je          0040A071
  0040A022: 8B 4D F8           mov         ecx,dword ptr [ebp-8]
  0040A025: 81 F9 FF FF 00 00  cmp         ecx,0FFFFh
  0040A02B: 76 2B              jbe         0040A058
  0040A02D: 83 FB 01           cmp         ebx,1
  0040A030: 76 33              jbe         0040A065
  0040A032: 81 E9 00 00 01 00  sub         ecx,10000h
  0040A038: 4B                 dec         ebx
  0040A039: 8B C1              mov         eax,ecx
  0040A03B: 89 4D F8           mov         dword ptr [ebp-8],ecx
  0040A03E: C1 E8 0A           shr         eax,0Ah
  0040A041: 81 E1 FF 03 00 00  and         ecx,3FFh
  0040A047: 0D 00 D8 00 00     or          eax,0D800h
  0040A04C: 66 89 06           mov         word ptr [esi],ax
  0040A04F: 83 C6 02           add         esi,2
  0040A052: 81 C9 00 DC 00 00  or          ecx,0DC00h
  0040A058: 66 89 0E           mov         word ptr [esi],cx
  0040A05B: 03 FA              add         edi,edx
  0040A05D: 83 C6 02           add         esi,2
  0040A060: 83 EB 01           sub         ebx,1
  0040A063: 75 98              jne         00409FFD
  0040A065: 8B 5D 0C           mov         ebx,dword ptr [ebp+0Ch]
  0040A068: 2B 75 08           sub         esi,dword ptr [ebp+8]
  0040A06B: D1 FE              sar         esi,1
  0040A06D: 89 3B              mov         dword ptr [ebx],edi
  0040A06F: EB 59              jmp         0040A0CA
  0040A071: 33 FF              xor         edi,edi
  0040A073: 33 C0              xor         eax,eax
  0040A075: 66 89 06           mov         word ptr [esi],ax
  0040A078: EB EB              jmp         0040A065
  0040A07A: 8B 45 0C           mov         eax,dword ptr [ebp+0Ch]
  0040A07D: 89 38              mov         dword ptr [eax],edi
  0040A07F: E8 D7 AC FF FF     call        00404D5B
  0040A084: C7 00 2A 00 00 00  mov         dword ptr [eax],2Ah
  0040A08A: 83 C8 FF           or          eax,0FFFFFFFFh
  0040A08D: EB 3D              jmp         0040A0CC
  0040A08F: 33 DB              xor         ebx,ebx
  0040A091: EB 0D              jmp         0040A0A0
  0040A093: 85 F6              test        esi,esi
  0040A095: 74 3A              je          0040A0D1
  0040A097: 83 FE 04           cmp         esi,4
  0040A09A: 75 01              jne         0040A09D
  0040A09C: 43                 inc         ebx
  0040A09D: 03 FE              add         edi,esi
  0040A09F: 43                 inc         ebx
  0040A0A0: 57                 push        edi
  0040A0A1: 8D 4D FF           lea         ecx,[ebp-1]
  0040A0A4: E8 C5 FE FF FF     call        00409F6E
  0040A0A9: FF 75 14           push        dword ptr [ebp+14h]
  0040A0AC: 50                 push        eax
  0040A0AD: 57                 push        edi
  0040A0AE: 6A 00              push        0
  0040A0B0: E8 26 06 00 00     call        0040A6DB
  0040A0B5: 8B F0              mov         esi,eax
  0040A0B7: 83 C4 10           add         esp,10h
  0040A0BA: 83 FE FF           cmp         esi,0FFFFFFFFh
  0040A0BD: 75 D4              jne         0040A093
  0040A0BF: E8 97 AC FF FF     call        00404D5B
  0040A0C4: C7 00 2A 00 00 00  mov         dword ptr [eax],2Ah
  0040A0CA: 8B C6              mov         eax,esi
  0040A0CC: 5F                 pop         edi
  0040A0CD: 5E                 pop         esi
  0040A0CE: 5B                 pop         ebx
  0040A0CF: C9                 leave
  0040A0D0: C3                 ret
  0040A0D1: 8B C3              mov         eax,ebx
  0040A0D3: EB F7              jmp         0040A0CC
  0040A0D5: 8B FF              mov         edi,edi
  0040A0D7: 55                 push        ebp
  0040A0D8: 8B EC              mov         ebp,esp
  0040A0DA: 8B 45 08           mov         eax,dword ptr [ebp+8]
  0040A0DD: 83 20 00           and         dword ptr [eax],0
  0040A0E0: 83 60 04 00        and         dword ptr [eax+4],0
  0040A0E4: E8 72 AC FF FF     call        00404D5B
  0040A0E9: C7 00 2A 00 00 00  mov         dword ptr [eax],2Ah
  0040A0EF: 83 C8 FF           or          eax,0FFFFFFFFh
  0040A0F2: 5D                 pop         ebp
  0040A0F3: C3                 ret
  0040A0F4: 8B FF              mov         edi,edi
  0040A0F6: 55                 push        ebp
  0040A0F7: 8B EC              mov         ebp,esp
  0040A0F9: 8B 4D 08           mov         ecx,dword ptr [ebp+8]
  0040A0FC: 33 C0              xor         eax,eax
  0040A0FE: 38 01              cmp         byte ptr [ecx],al
  0040A100: 74 0C              je          0040A10E
  0040A102: 3B 45 0C           cmp         eax,dword ptr [ebp+0Ch]
  0040A105: 74 07              je          0040A10E
  0040A107: 40                 inc         eax
  0040A108: 80 3C 08 00        cmp         byte ptr [eax+ecx],0
  0040A10C: 75 F4              jne         0040A102
  0040A10E: 5D                 pop         ebp
  0040A10F: C3                 ret
  0040A110: 8B FF              mov         edi,edi
  0040A112: 55                 push        ebp
  0040A113: 8B EC              mov         ebp,esp
  0040A115: 83 3D DC 3D 41 00  cmp         dword ptr ds:[00413DDCh],0
            00
  0040A11C: 56                 push        esi
  0040A11D: 75 48              jne         0040A167
  0040A11F: 83 7D 08 00        cmp         dword ptr [ebp+8],0
  0040A123: 75 17              jne         0040A13C
  0040A125: E8 31 AC FF FF     call        00404D5B
  0040A12A: C7 00 16 00 00 00  mov         dword ptr [eax],16h
  0040A130: E8 69 AB FF FF     call        00404C9E
  0040A135: B8 FF FF FF 7F     mov         eax,7FFFFFFFh
  0040A13A: EB 3E              jmp         0040A17A
  0040A13C: 83 7D 0C 00        cmp         dword ptr [ebp+0Ch],0
  0040A140: 74 E3              je          0040A125
  0040A142: BE FF FF FF 7F     mov         esi,7FFFFFFFh
  0040A147: 39 75 10           cmp         dword ptr [ebp+10h],esi
  0040A14A: 76 14              jbe         0040A160
  0040A14C: E8 0A AC FF FF     call        00404D5B
  0040A151: C7 00 16 00 00 00  mov         dword ptr [eax],16h
  0040A157: E8 42 AB FF FF     call        00404C9E
  0040A15C: 8B C6              mov         eax,esi
  0040A15E: EB 1A              jmp         0040A17A
  0040A160: 5E                 pop         esi
  0040A161: 5D                 pop         ebp
  0040A162: E9 59 09 00 00     jmp         0040AAC0
  0040A167: 6A 00              push        0
  0040A169: FF 75 10           push        dword ptr [ebp+10h]
  0040A16C: FF 75 0C           push        dword ptr [ebp+0Ch]
  0040A16F: FF 75 08           push        dword ptr [ebp+8]
  0040A172: E8 06 00 00 00     call        0040A17D
  0040A177: 83 C4 10           add         esp,10h
  0040A17A: 5E                 pop         esi
  0040A17B: 5D                 pop         ebp
  0040A17C: C3                 ret
  0040A17D: 8B FF              mov         edi,edi
  0040A17F: 55                 push        ebp
  0040A180: 8B EC              mov         ebp,esp
  0040A182: 83 EC 14           sub         esp,14h
  0040A185: 57                 push        edi
  0040A186: 8B 7D 08           mov         edi,dword ptr [ebp+8]
  0040A189: 85 FF              test        edi,edi
  0040A18B: 75 1A              jne         0040A1A7
  0040A18D: E8 C9 AB FF FF     call        00404D5B
  0040A192: C7 00 16 00 00 00  mov         dword ptr [eax],16h
  0040A198: E8 01 AB FF FF     call        00404C9E
  0040A19D: B8 FF FF FF 7F     mov         eax,7FFFFFFFh
  0040A1A2: E9 9C 00 00 00     jmp         0040A243
  0040A1A7: 53                 push        ebx
  0040A1A8: 8B 5D 0C           mov         ebx,dword ptr [ebp+0Ch]
  0040A1AB: 85 DB              test        ebx,ebx
  0040A1AD: 75 17              jne         0040A1C6
  0040A1AF: E8 A7 AB FF FF     call        00404D5B
  0040A1B4: C7 00 16 00 00 00  mov         dword ptr [eax],16h
  0040A1BA: E8 DF AA FF FF     call        00404C9E
  0040A1BF: B8 FF FF FF 7F     mov         eax,7FFFFFFFh
  0040A1C4: EB 7C              jmp         0040A242
  0040A1C6: 56                 push        esi
  0040A1C7: 8B 75 10           mov         esi,dword ptr [ebp+10h]
  0040A1CA: 81 FE FF FF FF 7F  cmp         esi,7FFFFFFFh
  0040A1D0: 76 17              jbe         0040A1E9
  0040A1D2: E8 84 AB FF FF     call        00404D5B
  0040A1D7: C7 00 16 00 00 00  mov         dword ptr [eax],16h
  0040A1DD: E8 BC AA FF FF     call        00404C9E
  0040A1E2: B8 FF FF FF 7F     mov         eax,7FFFFFFFh
  0040A1E7: EB 58              jmp         0040A241
  0040A1E9: 85 F6              test        esi,esi
  0040A1EB: 75 04              jne         0040A1F1
  0040A1ED: 33 C0              xor         eax,eax
  0040A1EF: EB 50              jmp         0040A241
  0040A1F1: FF 75 14           push        dword ptr [ebp+14h]
  0040A1F4: 8D 4D EC           lea         ecx,[ebp-14h]
  0040A1F7: E8 29 A2 FF FF     call        00404425
  0040A1FC: 8B 45 F0           mov         eax,dword ptr [ebp-10h]
  0040A1FF: 8B 88 94 00 00 00  mov         ecx,dword ptr [eax+00000094h]
  0040A205: 89 4D FC           mov         dword ptr [ebp-4],ecx
  0040A208: 0F B6 07           movzx       eax,byte ptr [edi]
  0040A20B: 47                 inc         edi
  0040A20C: 8B 55 FC           mov         edx,dword ptr [ebp-4]
  0040A20F: 0F B6 0C 08        movzx       ecx,byte ptr [eax+ecx]
  0040A213: 8A 03              mov         al,byte ptr [ebx]
  0040A215: 43                 inc         ebx
  0040A216: 0F B6 C0           movzx       eax,al
  0040A219: 0F B6 04 10        movzx       eax,byte ptr [eax+edx]
  0040A21D: 8B D1              mov         edx,ecx
  0040A21F: 2B D0              sub         edx,eax
  0040A221: 75 0C              jne         0040A22F
  0040A223: 85 C9              test        ecx,ecx
  0040A225: 74 08              je          0040A22F
  0040A227: 8B 4D FC           mov         ecx,dword ptr [ebp-4]
  0040A22A: 83 EE 01           sub         esi,1
  0040A22D: 75 D9              jne         0040A208
  0040A22F: 80 7D F8 00        cmp         byte ptr [ebp-8],0
  0040A233: 74 0A              je          0040A23F
  0040A235: 8B 4D EC           mov         ecx,dword ptr [ebp-14h]
  0040A238: 83 A1 50 03 00 00  and         dword ptr [ecx+00000350h],0FFFFFFFDh
            FD
  0040A23F: 8B C2              mov         eax,edx
  0040A241: 5E                 pop         esi
  0040A242: 5B                 pop         ebx
  0040A243: 5F                 pop         edi
  0040A244: C9                 leave
  0040A245: C3                 ret
  0040A246: 8B FF              mov         edi,edi
  0040A248: 55                 push        ebp
  0040A249: 8B EC              mov         ebp,esp
  0040A24B: 83 EC 2C           sub         esp,2Ch
  0040A24E: A1 18 30 41 00     mov         eax,dword ptr ds:[00413018h]
  0040A253: 33 C5              xor         eax,ebp
  0040A255: 89 45 FC           mov         dword ptr [ebp-4],eax
  0040A258: 8B 45 08           mov         eax,dword ptr [ebp+8]
  0040A25B: 53                 push        ebx
  0040A25C: 56                 push        esi
  0040A25D: 8B 75 18           mov         esi,dword ptr [ebp+18h]
  0040A260: 89 45 D8           mov         dword ptr [ebp-28h],eax
  0040A263: 8B 45 0C           mov         eax,dword ptr [ebp+0Ch]
  0040A266: 89 45 D4           mov         dword ptr [ebp-2Ch],eax
  0040A269: 8B 45 1C           mov         eax,dword ptr [ebp+1Ch]
  0040A26C: 89 45 DC           mov         dword ptr [ebp-24h],eax
  0040A26F: 57                 push        edi
  0040A270: 8B 7D 14           mov         edi,dword ptr [ebp+14h]
  0040A273: 89 7D E0           mov         dword ptr [ebp-20h],edi
  0040A276: 85 F6              test        esi,esi
  0040A278: 7E 10              jle         0040A28A
  0040A27A: 56                 push        esi
  0040A27B: 57                 push        edi
  0040A27C: E8 73 FE FF FF     call        0040A0F4
  0040A281: 59                 pop         ecx
  0040A282: 8B F0              mov         esi,eax
  0040A284: 8B 45 DC           mov         eax,dword ptr [ebp-24h]
  0040A287: 59                 pop         ecx
  0040A288: EB 09              jmp         0040A293
  0040A28A: 83 FE FF           cmp         esi,0FFFFFFFFh
  0040A28D: 0F 8C 2A 02 00 00  jl          0040A4BD
  0040A293: 8B 5D 20           mov         ebx,dword ptr [ebp+20h]
  0040A296: 85 DB              test        ebx,ebx
  0040A298: 7E 0D              jle         0040A2A7
  0040A29A: 53                 push        ebx
  0040A29B: 50                 push        eax
  0040A29C: E8 53 FE FF FF     call        0040A0F4
  0040A2A1: 59                 pop         ecx
  0040A2A2: 59                 pop         ecx
  0040A2A3: 8B D8              mov         ebx,eax
  0040A2A5: EB 09              jmp         0040A2B0
  0040A2A7: 83 FB FF           cmp         ebx,0FFFFFFFFh
  0040A2AA: 0F 8C 0D 02 00 00  jl          0040A4BD
  0040A2B0: 8B 45 24           mov         eax,dword ptr [ebp+24h]
  0040A2B3: 85 C0              test        eax,eax
  0040A2B5: 75 0B              jne         0040A2C2
  0040A2B7: 8B 45 D8           mov         eax,dword ptr [ebp-28h]
  0040A2BA: 8B 00              mov         eax,dword ptr [eax]
  0040A2BC: 8B 40 08           mov         eax,dword ptr [eax+8]
  0040A2BF: 89 45 24           mov         dword ptr [ebp+24h],eax
  0040A2C2: 85 F6              test        esi,esi
  0040A2C4: 74 08              je          0040A2CE
  0040A2C6: 85 DB              test        ebx,ebx
  0040A2C8: 0F 85 9C 00 00 00  jne         0040A36A
  0040A2CE: 3B F3              cmp         esi,ebx
  0040A2D0: 0F 84 E0 01 00 00  je          0040A4B6
  0040A2D6: 83 FB 01           cmp         ebx,1
  0040A2D9: 0F 8F 83 00 00 00  jg          0040A362
  0040A2DF: 83 FE 01           cmp         esi,1
  0040A2E2: 7F 43              jg          0040A327
  0040A2E4: 8D 4D E8           lea         ecx,[ebp-18h]
  0040A2E7: 51                 push        ecx
  0040A2E8: 50                 push        eax
  0040A2E9: FF 15 B0 D0 40 00  call        dword ptr ds:[0040D0B0h]
  0040A2EF: 85 C0              test        eax,eax
  0040A2F1: 0F 84 C6 01 00 00  je          0040A4BD
  0040A2F7: 85 F6              test        esi,esi
  0040A2F9: 7E 34              jle         0040A32F
  0040A2FB: 83 7D E8 02        cmp         dword ptr [ebp-18h],2
  0040A2FF: 72 26              jb          0040A327
  0040A301: 80 7D EE 00        cmp         byte ptr [ebp-12h],0
  0040A305: 8D 45 EE           lea         eax,[ebp-12h]
  0040A308: 74 1D              je          0040A327
  0040A30A: 8A 48 01           mov         cl,byte ptr [eax+1]
  0040A30D: 84 C9              test        cl,cl
  0040A30F: 74 16              je          0040A327
  0040A311: 8A 17              mov         dl,byte ptr [edi]
  0040A313: 3A 10              cmp         dl,byte ptr [eax]
  0040A315: 72 08              jb          0040A31F
  0040A317: 3A D1              cmp         dl,cl
  0040A319: 0F 86 97 01 00 00  jbe         0040A4B6
  0040A31F: 83 C0 02           add         eax,2
  0040A322: 80 38 00           cmp         byte ptr [eax],0
  0040A325: 75 E3              jne         0040A30A
  0040A327: 6A 03              push        3
  0040A329: 58                 pop         eax
  0040A32A: E9 90 01 00 00     jmp         0040A4BF
  0040A32F: 85 DB              test        ebx,ebx
  0040A331: 7E 37              jle         0040A36A
  0040A333: 83 7D E8 02        cmp         dword ptr [ebp-18h],2
  0040A337: 72 29              jb          0040A362
  0040A339: 80 7D EE 00        cmp         byte ptr [ebp-12h],0
  0040A33D: 8D 45 EE           lea         eax,[ebp-12h]
  0040A340: 74 20              je          0040A362
  0040A342: 8B 75 DC           mov         esi,dword ptr [ebp-24h]
  0040A345: 8A 48 01           mov         cl,byte ptr [eax+1]
  0040A348: 84 C9              test        cl,cl
  0040A34A: 74 16              je          0040A362
  0040A34C: 8A 16              mov         dl,byte ptr [esi]
  0040A34E: 3A 10              cmp         dl,byte ptr [eax]
  0040A350: 72 08              jb          0040A35A
  0040A352: 3A D1              cmp         dl,cl
  0040A354: 0F 86 5C 01 00 00  jbe         0040A4B6
  0040A35A: 83 C0 02           add         eax,2
  0040A35D: 80 38 00           cmp         byte ptr [eax],0
  0040A360: 75 E3              jne         0040A345
  0040A362: 33 C0              xor         eax,eax
  0040A364: 40                 inc         eax
  0040A365: E9 55 01 00 00     jmp         0040A4BF
  0040A36A: 33 FF              xor         edi,edi
  0040A36C: 57                 push        edi
  0040A36D: 57                 push        edi
  0040A36E: 56                 push        esi
  0040A36F: FF 75 E0           push        dword ptr [ebp-20h]
  0040A372: 6A 09              push        9
  0040A374: FF 75 24           push        dword ptr [ebp+24h]
  0040A377: E8 BA BC FF FF     call        00406036
  0040A37C: 83 C4 18           add         esp,18h
  0040A37F: 89 45 D8           mov         dword ptr [ebp-28h],eax
  0040A382: 85 C0              test        eax,eax
  0040A384: 0F 84 33 01 00 00  je          0040A4BD
  0040A38A: 8D 0C 00           lea         ecx,[eax+eax]
  0040A38D: 8D 51 08           lea         edx,[ecx+8]
  0040A390: 3B CA              cmp         ecx,edx
  0040A392: 1B C0              sbb         eax,eax
  0040A394: 23 C2              and         eax,edx
  0040A396: 74 41              je          0040A3D9
  0040A398: 3D 00 04 00 00     cmp         eax,400h
  0040A39D: 77 1A              ja          0040A3B9
  0040A39F: E8 7C 23 00 00     call        0040C720
  0040A3A4: 8B C4              mov         eax,esp
  0040A3A6: 89 45 E4           mov         dword ptr [ebp-1Ch],eax
  0040A3A9: 85 C0              test        eax,eax
  0040A3AB: 0F 84 F7 00 00 00  je          0040A4A8
  0040A3B1: C7 00 CC CC 00 00  mov         dword ptr [eax],0CCCCh
  0040A3B7: EB 18              jmp         0040A3D1
  0040A3B9: 50                 push        eax
  0040A3BA: E8 C0 C9 FF FF     call        00406D7F
  0040A3BF: 89 45 E4           mov         dword ptr [ebp-1Ch],eax
  0040A3C2: 59                 pop         ecx
  0040A3C3: 85 C0              test        eax,eax
  0040A3C5: 0F 84 DD 00 00 00  je          0040A4A8
  0040A3CB: C7 00 DD DD 00 00  mov         dword ptr [eax],0DDDDh
  0040A3D1: 83 C0 08           add         eax,8
  0040A3D4: 89 45 E4           mov         dword ptr [ebp-1Ch],eax
  0040A3D7: EB 05              jmp         0040A3DE
  0040A3D9: 8B C7              mov         eax,edi
  0040A3DB: 89 7D E4           mov         dword ptr [ebp-1Ch],edi
  0040A3DE: 85 C0              test        eax,eax
  0040A3E0: 0F 84 C2 00 00 00  je          0040A4A8
  0040A3E6: FF 75 D8           push        dword ptr [ebp-28h]
  0040A3E9: 50                 push        eax
  0040A3EA: 56                 push        esi
  0040A3EB: FF 75 E0           push        dword ptr [ebp-20h]
  0040A3EE: 8B 75 24           mov         esi,dword ptr [ebp+24h]
  0040A3F1: 6A 01              push        1
  0040A3F3: 56                 push        esi
  0040A3F4: E8 3D BC FF FF     call        00406036
  0040A3F9: 83 C4 18           add         esp,18h
  0040A3FC: 85 C0              test        eax,eax
  0040A3FE: 0F 84 A4 00 00 00  je          0040A4A8
  0040A404: 57                 push        edi
  0040A405: 57                 push        edi
  0040A406: 53                 push        ebx
  0040A407: FF 75 DC           push        dword ptr [ebp-24h]
  0040A40A: 6A 09              push        9
  0040A40C: 56                 push        esi
  0040A40D: E8 24 BC FF FF     call        00406036
  0040A412: 83 C4 18           add         esp,18h
  0040A415: 89 45 E0           mov         dword ptr [ebp-20h],eax
  0040A418: 85 C0              test        eax,eax
  0040A41A: 0F 84 88 00 00 00  je          0040A4A8
  0040A420: 8D 0C 00           lea         ecx,[eax+eax]
  0040A423: 8D 51 08           lea         edx,[ecx+8]
  0040A426: 3B CA              cmp         ecx,edx
  0040A428: 1B C0              sbb         eax,eax
  0040A42A: 23 C2              and         eax,edx
  0040A42C: 74 32              je          0040A460
  0040A42E: 3D 00 04 00 00     cmp         eax,400h
  0040A433: 77 13              ja          0040A448
  0040A435: E8 E6 22 00 00     call        0040C720
  0040A43A: 8B F4              mov         esi,esp
  0040A43C: 85 F6              test        esi,esi
  0040A43E: 74 5C              je          0040A49C
  0040A440: C7 06 CC CC 00 00  mov         dword ptr [esi],0CCCCh
  0040A446: EB 13              jmp         0040A45B
  0040A448: 50                 push        eax
  0040A449: E8 31 C9 FF FF     call        00406D7F
  0040A44E: 8B F0              mov         esi,eax
  0040A450: 59                 pop         ecx
  0040A451: 85 F6              test        esi,esi
  0040A453: 74 47              je          0040A49C
  0040A455: C7 06 DD DD 00 00  mov         dword ptr [esi],0DDDDh
  0040A45B: 83 C6 08           add         esi,8
  0040A45E: EB 02              jmp         0040A462
  0040A460: 8B F7              mov         esi,edi
  0040A462: 85 F6              test        esi,esi
  0040A464: 74 36              je          0040A49C
  0040A466: FF 75 E0           push        dword ptr [ebp-20h]
  0040A469: 56                 push        esi
  0040A46A: 53                 push        ebx
  0040A46B: FF 75 DC           push        dword ptr [ebp-24h]
  0040A46E: 6A 01              push        1
  0040A470: FF 75 24           push        dword ptr [ebp+24h]
  0040A473: E8 BE BB FF FF     call        00406036
  0040A478: 83 C4 18           add         esp,18h
  0040A47B: 85 C0              test        eax,eax
  0040A47D: 74 1D              je          0040A49C
  0040A47F: 8B 5D E4           mov         ebx,dword ptr [ebp-1Ch]
  0040A482: 57                 push        edi
  0040A483: 57                 push        edi
  0040A484: 57                 push        edi
  0040A485: FF 75 E0           push        dword ptr [ebp-20h]
  0040A488: 56                 push        esi
  0040A489: FF 75 D8           push        dword ptr [ebp-28h]
  0040A48C: 53                 push        ebx
  0040A48D: FF 75 10           push        dword ptr [ebp+10h]
  0040A490: FF 75 D4           push        dword ptr [ebp-2Ch]
  0040A493: E8 03 D0 FF FF     call        0040749B
  0040A498: 8B F8              mov         edi,eax
  0040A49A: EB 03              jmp         0040A49F
  0040A49C: 8B 5D E4           mov         ebx,dword ptr [ebp-1Ch]
  0040A49F: 56                 push        esi
  0040A4A0: E8 2B CA FF FF     call        00406ED0
  0040A4A5: 59                 pop         ecx
  0040A4A6: EB 03              jmp         0040A4AB
  0040A4A8: 8B 5D E4           mov         ebx,dword ptr [ebp-1Ch]
  0040A4AB: 53                 push        ebx
  0040A4AC: E8 1F CA FF FF     call        00406ED0
  0040A4B1: 59                 pop         ecx
  0040A4B2: 8B C7              mov         eax,edi
  0040A4B4: EB 09              jmp         0040A4BF
  0040A4B6: 6A 02              push        2
  0040A4B8: E9 6C FE FF FF     jmp         0040A329
  0040A4BD: 33 C0              xor         eax,eax
  0040A4BF: 8D 65 C8           lea         esp,[ebp-38h]
  0040A4C2: 5F                 pop         edi
  0040A4C3: 5E                 pop         esi
  0040A4C4: 5B                 pop         ebx
  0040A4C5: 8B 4D FC           mov         ecx,dword ptr [ebp-4]
  0040A4C8: 33 CD              xor         ecx,ebp
  0040A4CA: E8 58 75 FF FF     call        00401A27
  0040A4CF: C9                 leave
  0040A4D0: C3                 ret
  0040A4D1: 8B FF              mov         edi,edi
  0040A4D3: 55                 push        ebp
  0040A4D4: 8B EC              mov         ebp,esp
  0040A4D6: 83 EC 10           sub         esp,10h
  0040A4D9: FF 75 08           push        dword ptr [ebp+8]
  0040A4DC: 8D 4D F0           lea         ecx,[ebp-10h]
  0040A4DF: E8 41 9F FF FF     call        00404425
  0040A4E4: FF 75 24           push        dword ptr [ebp+24h]
  0040A4E7: 8D 45 F4           lea         eax,[ebp-0Ch]
  0040A4EA: FF 75 20           push        dword ptr [ebp+20h]
  0040A4ED: FF 75 1C           push        dword ptr [ebp+1Ch]
  0040A4F0: FF 75 18           push        dword ptr [ebp+18h]
  0040A4F3: FF 75 14           push        dword ptr [ebp+14h]
  0040A4F6: FF 75 10           push        dword ptr [ebp+10h]
  0040A4F9: FF 75 0C           push        dword ptr [ebp+0Ch]
  0040A4FC: 50                 push        eax
  0040A4FD: E8 44 FD FF FF     call        0040A246
  0040A502: 83 C4 20           add         esp,20h
  0040A505: 80 7D FC 00        cmp         byte ptr [ebp-4],0
  0040A509: 74 0A              je          0040A515
  0040A50B: 8B 4D F0           mov         ecx,dword ptr [ebp-10h]
  0040A50E: 83 A1 50 03 00 00  and         dword ptr [ecx+00000350h],0FFFFFFFDh
            FD
  0040A515: C9                 leave
  0040A516: C3                 ret
  0040A517: 8B FF              mov         edi,edi
  0040A519: 55                 push        ebp
  0040A51A: 8B EC              mov         ebp,esp
  0040A51C: 51                 push        ecx
  0040A51D: 51                 push        ecx
  0040A51E: 56                 push        esi
  0040A51F: 8B 75 08           mov         esi,dword ptr [ebp+8]
  0040A522: 57                 push        edi
  0040A523: 56                 push        esi
  0040A524: E8 4F C3 FF FF     call        00406878
  0040A529: 83 CF FF           or          edi,0FFFFFFFFh
  0040A52C: 59                 pop         ecx
  0040A52D: 3B C7              cmp         eax,edi
  0040A52F: 75 11              jne         0040A542
  0040A531: E8 25 A8 FF FF     call        00404D5B
  0040A536: C7 00 09 00 00 00  mov         dword ptr [eax],9
  0040A53C: 8B C7              mov         eax,edi
  0040A53E: 8B D7              mov         edx,edi
  0040A540: EB 4D              jmp         0040A58F
  0040A542: FF 75 14           push        dword ptr [ebp+14h]
  0040A545: 8D 4D F8           lea         ecx,[ebp-8]
  0040A548: 51                 push        ecx
  0040A549: FF 75 10           push        dword ptr [ebp+10h]
  0040A54C: FF 75 0C           push        dword ptr [ebp+0Ch]
  0040A54F: 50                 push        eax
  0040A550: FF 15 F4 D0 40 00  call        dword ptr ds:[0040D0F4h]
  0040A556: 85 C0              test        eax,eax
  0040A558: 75 0F              jne         0040A569
  0040A55A: FF 15 3C D0 40 00  call        dword ptr ds:[0040D03Ch]
  0040A560: 50                 push        eax
  0040A561: E8 BF A7 FF FF     call        00404D25
  0040A566: 59                 pop         ecx
  0040A567: EB D3              jmp         0040A53C
  0040A569: 8B 45 F8           mov         eax,dword ptr [ebp-8]
  0040A56C: 8B 55 FC           mov         edx,dword ptr [ebp-4]
  0040A56F: 23 C2              and         eax,edx
  0040A571: 3B C7              cmp         eax,edi
  0040A573: 74 C7              je          0040A53C
  0040A575: 8B 45 F8           mov         eax,dword ptr [ebp-8]
  0040A578: 8B CE              mov         ecx,esi
  0040A57A: 83 E6 3F           and         esi,3Fh
  0040A57D: C1 F9 06           sar         ecx,6
  0040A580: 6B F6 38           imul        esi,esi,38h
  0040A583: 8B 0C 8D 70 3F 41  mov         ecx,dword ptr [ecx*4+00413F70h]
            00
  0040A58A: 80 64 31 28 FD     and         byte ptr [ecx+esi+28h],0FDh
  0040A58F: 5F                 pop         edi
  0040A590: 5E                 pop         esi
  0040A591: C9                 leave
  0040A592: C3                 ret
  0040A593: 8B FF              mov         edi,edi
  0040A595: 55                 push        ebp
  0040A596: 8B EC              mov         ebp,esp
  0040A598: FF 75 14           push        dword ptr [ebp+14h]
  0040A59B: FF 75 10           push        dword ptr [ebp+10h]
  0040A59E: FF 75 0C           push        dword ptr [ebp+0Ch]
  0040A5A1: FF 75 08           push        dword ptr [ebp+8]
  0040A5A4: E8 6E FF FF FF     call        0040A517
  0040A5A9: 83 C4 10           add         esp,10h
  0040A5AC: 5D                 pop         ebp
  0040A5AD: C3                 ret
  0040A5AE: 8B FF              mov         edi,edi
  0040A5B0: 55                 push        ebp
  0040A5B1: 8B EC              mov         ebp,esp
  0040A5B3: 51                 push        ecx
  0040A5B4: E8 87 05 00 00     call        0040AB40
  0040A5B9: 85 C0              test        eax,eax
  0040A5BB: 74 1C              je          0040A5D9
  0040A5BD: 8D 45 FC           lea         eax,[ebp-4]
  0040A5C0: 50                 push        eax
  0040A5C1: 8D 45 08           lea         eax,[ebp+8]
  0040A5C4: 6A 01              push        1
  0040A5C6: 50                 push        eax
  0040A5C7: E8 AA 05 00 00     call        0040AB76
  0040A5CC: 83 C4 0C           add         esp,0Ch
  0040A5CF: 85 C0              test        eax,eax
  0040A5D1: 74 06              je          0040A5D9
  0040A5D3: 66 8B 45 08        mov         ax,word ptr [ebp+8]
  0040A5D7: C9                 leave
  0040A5D8: C3                 ret
  0040A5D9: B8 FF FF 00 00     mov         eax,0FFFFh
  0040A5DE: C9                 leave
  0040A5DF: C3                 ret
  0040A5E0: 8B FF              mov         edi,edi
  0040A5E2: 55                 push        ebp
  0040A5E3: 8B EC              mov         ebp,esp
  0040A5E5: 56                 push        esi
  0040A5E6: 8B 75 08           mov         esi,dword ptr [ebp+8]
  0040A5E9: 85 F6              test        esi,esi
  0040A5EB: 75 15              jne         0040A602
  0040A5ED: E8 69 A7 FF FF     call        00404D5B
  0040A5F2: C7 00 16 00 00 00  mov         dword ptr [eax],16h
  0040A5F8: E8 A1 A6 FF FF     call        00404C9E
  0040A5FD: 83 C8 FF           or          eax,0FFFFFFFFh
  0040A600: EB 52              jmp         0040A654
  0040A602: 8B 46 0C           mov         eax,dword ptr [esi+0Ch]
  0040A605: 57                 push        edi
  0040A606: 83 CF FF           or          edi,0FFFFFFFFh
  0040A609: 90                 nop
  0040A60A: C1 E8 0D           shr         eax,0Dh
  0040A60D: A8 01              test        al,1
  0040A60F: 74 39              je          0040A64A
  0040A611: 56                 push        esi
  0040A612: E8 C7 D7 FF FF     call        00407DDE
  0040A617: 56                 push        esi
  0040A618: 8B F8              mov         edi,eax
  0040A61A: E8 5B F7 FF FF     call        00409D7A
  0040A61F: 56                 push        esi
  0040A620: E8 A7 DF FF FF     call        004085CC
  0040A625: 50                 push        eax
  0040A626: E8 2C 06 00 00     call        0040AC57
  0040A62B: 83 C4 10           add         esp,10h
  0040A62E: 85 C0              test        eax,eax
  0040A630: 79 05              jns         0040A637
  0040A632: 83 CF FF           or          edi,0FFFFFFFFh
  0040A635: EB 13              jmp         0040A64A
  0040A637: 83 7E 1C 00        cmp         dword ptr [esi+1Ch],0
  0040A63B: 74 0D              je          0040A64A
  0040A63D: FF 76 1C           push        dword ptr [esi+1Ch]
  0040A640: E8 86 A7 FF FF     call        00404DCB
  0040A645: 83 66 1C 00        and         dword ptr [esi+1Ch],0
  0040A649: 59                 pop         ecx
  0040A64A: 56                 push        esi
  0040A64B: E8 30 07 00 00     call        0040AD80
  0040A650: 59                 pop         ecx
  0040A651: 8B C7              mov         eax,edi
  0040A653: 5F                 pop         edi
  0040A654: 5E                 pop         esi
  0040A655: 5D                 pop         ebp
  0040A656: C3                 ret
  0040A657: 6A 10              push        10h
  0040A659: 68 B8 22 41 00     push        4122B8h
  0040A65E: E8 8D 71 FF FF     call        004017F0
  0040A663: 8B 75 08           mov         esi,dword ptr [ebp+8]
  0040A666: 89 75 E0           mov         dword ptr [ebp-20h],esi
  0040A669: 85 F6              test        esi,esi
  0040A66B: 75 15              jne         0040A682
  0040A66D: E8 E9 A6 FF FF     call        00404D5B
  0040A672: C7 00 16 00 00 00  mov         dword ptr [eax],16h
  0040A678: E8 21 A6 FF FF     call        00404C9E
  0040A67D: 83 C8 FF           or          eax,0FFFFFFFFh
  0040A680: EB 3C              jmp         0040A6BE
  0040A682: 8B 46 0C           mov         eax,dword ptr [esi+0Ch]
  0040A685: 90                 nop
  0040A686: C1 E8 0C           shr         eax,0Ch
  0040A689: 56                 push        esi
  0040A68A: A8 01              test        al,1
  0040A68C: 74 08              je          0040A696
  0040A68E: E8 ED 06 00 00     call        0040AD80
  0040A693: 59                 pop         ecx
  0040A694: EB E7              jmp         0040A67D
  0040A696: 83 65 E4 00        and         dword ptr [ebp-1Ch],0
  0040A69A: E8 09 D9 FF FF     call        00407FA8
  0040A69F: 59                 pop         ecx
  0040A6A0: 83 65 FC 00        and         dword ptr [ebp-4],0
  0040A6A4: 56                 push        esi
  0040A6A5: E8 36 FF FF FF     call        0040A5E0
  0040A6AA: 59                 pop         ecx
  0040A6AB: 8B F0              mov         esi,eax
  0040A6AD: 89 75 E4           mov         dword ptr [ebp-1Ch],esi
  0040A6B0: C7 45 FC FE FF FF  mov         dword ptr [ebp-4],0FFFFFFFEh
            FF
  0040A6B7: E8 15 00 00 00     call        0040A6D1
  0040A6BC: 8B C6              mov         eax,esi
  0040A6BE: 8B 4D F0           mov         ecx,dword ptr [ebp-10h]
  0040A6C1: 64 89 0D 00 00 00  mov         dword ptr fs:[00000000h],ecx
            00
  0040A6C8: 59                 pop         ecx
  0040A6C9: 5F                 pop         edi
  0040A6CA: 5E                 pop         esi
  0040A6CB: 5B                 pop         ebx
  0040A6CC: C9                 leave
  0040A6CD: C3                 ret
  0040A6CE: 8B 75 E4           mov         esi,dword ptr [ebp-1Ch]
  0040A6D1: FF 75 E0           push        dword ptr [ebp-20h]
  0040A6D4: E8 E3 D8 FF FF     call        00407FBC
  0040A6D9: 59                 pop         ecx
  0040A6DA: C3                 ret
  0040A6DB: 8B FF              mov         edi,edi
  0040A6DD: 55                 push        ebp
  0040A6DE: 8B EC              mov         ebp,esp
  0040A6E0: 83 EC 24           sub         esp,24h
  0040A6E3: A1 18 30 41 00     mov         eax,dword ptr ds:[00413018h]
  0040A6E8: 33 C5              xor         eax,ebp
  0040A6EA: 89 45 FC           mov         dword ptr [ebp-4],eax
  0040A6ED: 8B 4D 08           mov         ecx,dword ptr [ebp+8]
  0040A6F0: 53                 push        ebx
  0040A6F1: 8B 5D 0C           mov         ebx,dword ptr [ebp+0Ch]
  0040A6F4: 56                 push        esi
  0040A6F5: 8B 75 14           mov         esi,dword ptr [ebp+14h]
  0040A6F8: 89 5D DC           mov         dword ptr [ebp-24h],ebx
  0040A6FB: 57                 push        edi
  0040A6FC: 8B FB              mov         edi,ebx
  0040A6FE: 85 F6              test        esi,esi
  0040A700: 75 05              jne         0040A707
  0040A702: BE 88 42 41 00     mov         esi,414288h
  0040A707: 33 D2              xor         edx,edx
  0040A709: 42                 inc         edx
  0040A70A: 85 DB              test        ebx,ebx
  0040A70C: 75 09              jne         0040A717
  0040A70E: BB 8A D5 40 00     mov         ebx,40D58Ah
  0040A713: 8B C2              mov         eax,edx
  0040A715: EB 03              jmp         0040A71A
  0040A717: 8B 45 10           mov         eax,dword ptr [ebp+10h]
  0040A71A: F7 DF              neg         edi
  0040A71C: 89 45 E4           mov         dword ptr [ebp-1Ch],eax
  0040A71F: 1B FF              sbb         edi,edi
  0040A721: 23 F9              and         edi,ecx
  0040A723: 85 C0              test        eax,eax
  0040A725: 75 08              jne         0040A72F
  0040A727: 6A FE              push        0FFFFFFFEh
  0040A729: 58                 pop         eax
  0040A72A: E9 44 01 00 00     jmp         0040A873
  0040A72F: 33 C0              xor         eax,eax
  0040A731: 66 39 46 06        cmp         word ptr [esi+6],ax
  0040A735: 75 64              jne         0040A79B
  0040A737: 8A 0B              mov         cl,byte ptr [ebx]
  0040A739: 43                 inc         ebx
  0040A73A: 88 4D EE           mov         byte ptr [ebp-12h],cl
  0040A73D: 84 C9              test        cl,cl
  0040A73F: 78 15              js          0040A756
  0040A741: 85 FF              test        edi,edi
  0040A743: 74 05              je          0040A74A
  0040A745: 0F B6 C1           movzx       eax,cl
  0040A748: 89 07              mov         dword ptr [edi],eax
  0040A74A: 33 C0              xor         eax,eax
  0040A74C: 84 C9              test        cl,cl
  0040A74E: 0F 95 C0           setne       al
  0040A751: E9 1D 01 00 00     jmp         0040A873
  0040A756: 8A C1              mov         al,cl
  0040A758: 24 E0              and         al,0E0h
  0040A75A: 3C C0              cmp         al,0C0h
  0040A75C: 75 04              jne         0040A762
  0040A75E: B0 02              mov         al,2
  0040A760: EB 1A              jmp         0040A77C
  0040A762: 8A C1              mov         al,cl
  0040A764: 24 F0              and         al,0F0h
  0040A766: 3C E0              cmp         al,0E0h
  0040A768: 75 04              jne         0040A76E
  0040A76A: B0 03              mov         al,3
  0040A76C: EB 0E              jmp         0040A77C
  0040A76E: 8A C1              mov         al,cl
  0040A770: 24 F8              and         al,0F8h
  0040A772: 3C F0              cmp         al,0F0h
  0040A774: 0F 85 F2 00 00 00  jne         0040A86C
  0040A77A: B0 04              mov         al,4
  0040A77C: 88 45 EF           mov         byte ptr [ebp-11h],al
  0040A77F: 88 45 ED           mov         byte ptr [ebp-13h],al
  0040A782: 6A 07              push        7
  0040A784: 0F B6 C0           movzx       eax,al
  0040A787: 59                 pop         ecx
  0040A788: 2B C8              sub         ecx,eax
  0040A78A: 0F B6 45 EE        movzx       eax,byte ptr [ebp-12h]
  0040A78E: 8A 6D ED           mov         ch,byte ptr [ebp-13h]
  0040A791: D3 E2              shl         edx,cl
  0040A793: 8A 4D EF           mov         cl,byte ptr [ebp-11h]
  0040A796: 4A                 dec         edx
  0040A797: 23 D0              and         edx,eax
  0040A799: EB 25              jmp         0040A7C0
  0040A79B: 8A 4E 04           mov         cl,byte ptr [esi+4]
  0040A79E: 8B 16              mov         edx,dword ptr [esi]
  0040A7A0: 8A C1              mov         al,cl
  0040A7A2: 8A 6E 06           mov         ch,byte ptr [esi+6]
  0040A7A5: 2C 02              sub         al,2
  0040A7A7: 3C 02              cmp         al,2
  0040A7A9: 0F 87 BD 00 00 00  ja          0040A86C
  0040A7AF: 80 FD 01           cmp         ch,1
  0040A7B2: 0F 82 B4 00 00 00  jb          0040A86C
  0040A7B8: 3A E9              cmp         ch,cl
  0040A7BA: 0F 83 AC 00 00 00  jae         0040A86C
  0040A7C0: 0F B6 C5           movzx       eax,ch
  0040A7C3: 89 45 E0           mov         dword ptr [ebp-20h],eax
  0040A7C6: 8B 45 E4           mov         eax,dword ptr [ebp-1Ch]
  0040A7C9: 39 45 E0           cmp         dword ptr [ebp-20h],eax
  0040A7CC: 73 06              jae         0040A7D4
  0040A7CE: 8B 45 E0           mov         eax,dword ptr [ebp-20h]
  0040A7D1: 89 45 E4           mov         dword ptr [ebp-1Ch],eax
  0040A7D4: 8B 45 DC           mov         eax,dword ptr [ebp-24h]
  0040A7D7: 89 5D E8           mov         dword ptr [ebp-18h],ebx
  0040A7DA: 29 45 E8           sub         dword ptr [ebp-18h],eax
  0040A7DD: EB 19              jmp         0040A7F8
  0040A7DF: 8A 23              mov         ah,byte ptr [ebx]
  0040A7E1: 43                 inc         ebx
  0040A7E2: FF 45 E8           inc         dword ptr [ebp-18h]
  0040A7E5: 8A C4              mov         al,ah
  0040A7E7: 24 C0              and         al,0C0h
  0040A7E9: 3C 80              cmp         al,80h
  0040A7EB: 75 7F              jne         0040A86C
  0040A7ED: 0F B6 C4           movzx       eax,ah
  0040A7F0: 83 E0 3F           and         eax,3Fh
  0040A7F3: C1 E2 06           shl         edx,6
  0040A7F6: 0B D0              or          edx,eax
  0040A7F8: 8B 45 E4           mov         eax,dword ptr [ebp-1Ch]
  0040A7FB: 39 45 E8           cmp         dword ptr [ebp-18h],eax
  0040A7FE: 72 DF              jb          0040A7DF
  0040A800: 8B 5D E0           mov         ebx,dword ptr [ebp-20h]
  0040A803: 3B C3              cmp         eax,ebx
  0040A805: 73 18              jae         0040A81F
  0040A807: 2A 6D E4           sub         ch,byte ptr [ebp-1Ch]
  0040A80A: 0F B6 C1           movzx       eax,cl
  0040A80D: 66 89 46 04        mov         word ptr [esi+4],ax
  0040A811: 0F B6 C5           movzx       eax,ch
  0040A814: 89 16              mov         dword ptr [esi],edx
  0040A816: 66 89 46 06        mov         word ptr [esi+6],ax
  0040A81A: E9 08 FF FF FF     jmp         0040A727
  0040A81F: 81 FA 00 D8 00 00  cmp         edx,0D800h
  0040A825: 72 08              jb          0040A82F
  0040A827: 81 FA FF DF 00 00  cmp         edx,0DFFFh
  0040A82D: 76 3D              jbe         0040A86C
  0040A82F: 81 FA FF FF 10 00  cmp         edx,10FFFFh
  0040A835: 77 35              ja          0040A86C
  0040A837: 0F B6 C1           movzx       eax,cl
  0040A83A: C7 45 F0 80 00 00  mov         dword ptr [ebp-10h],80h
            00
  0040A841: C7 45 F4 00 08 00  mov         dword ptr [ebp-0Ch],800h
            00
  0040A848: C7 45 F8 00 00 01  mov         dword ptr [ebp-8],10000h
            00
  0040A84F: 3B 54 85 E8        cmp         edx,dword ptr [ebp+eax*4-18h]
  0040A853: 72 17              jb          0040A86C
  0040A855: 85 FF              test        edi,edi
  0040A857: 74 02              je          0040A85B
  0040A859: 89 17              mov         dword ptr [edi],edx
  0040A85B: 83 26 00           and         dword ptr [esi],0
  0040A85E: 83 66 04 00        and         dword ptr [esi+4],0
  0040A862: F7 DA              neg         edx
  0040A864: 1B D2              sbb         edx,edx
  0040A866: 23 D3              and         edx,ebx
  0040A868: 8B C2              mov         eax,edx
  0040A86A: EB 07              jmp         0040A873
  0040A86C: 56                 push        esi
  0040A86D: E8 63 F8 FF FF     call        0040A0D5
  0040A872: 59                 pop         ecx
  0040A873: 8B 4D FC           mov         ecx,dword ptr [ebp-4]
  0040A876: 5F                 pop         edi
  0040A877: 5E                 pop         esi
  0040A878: 33 CD              xor         ecx,ebp
  0040A87A: 5B                 pop         ebx
  0040A87B: E8 A7 71 FF FF     call        00401A27
  0040A880: C9                 leave
  0040A881: C3                 ret
  0040A882: CC                 int         3
  0040A883: CC                 int         3
  0040A884: CC                 int         3
  0040A885: CC                 int         3
  0040A886: CC                 int         3
  0040A887: CC                 int         3
  0040A888: CC                 int         3
  0040A889: CC                 int         3
  0040A88A: CC                 int         3
  0040A88B: CC                 int         3
  0040A88C: CC                 int         3
  0040A88D: CC                 int         3
  0040A88E: CC                 int         3
  0040A88F: CC                 int         3
  0040A890: 83 3D A8 42 41 00  cmp         dword ptr ds:[004142A8h],0
            00
  0040A897: 74 32              je          0040A8CB
  0040A899: 83 EC 08           sub         esp,8
  0040A89C: 0F AE 5C 24 04     stmxcsr     dword ptr [esp+4]
  0040A8A1: 8B 44 24 04        mov         eax,dword ptr [esp+4]
  0040A8A5: 25 80 7F 00 00     and         eax,7F80h
  0040A8AA: 3D 80 1F 00 00     cmp         eax,1F80h
  0040A8AF: 75 0F              jne         0040A8C0
  0040A8B1: D9 3C 24           fnstcw      word ptr [esp]
  0040A8B4: 66 8B 04 24        mov         ax,word ptr [esp]
  0040A8B8: 66 83 E0 7F        and         ax,7Fh
  0040A8BC: 66 83 F8 7F        cmp         ax,7Fh
  0040A8C0: 8D 64 24 08        lea         esp,[esp+8]
  0040A8C4: 75 05              jne         0040A8CB
  0040A8C6: E9 05 05 00 00     jmp         0040ADD0
  0040A8CB: 83 EC 0C           sub         esp,0Ch
  0040A8CE: DD 14 24           fst         qword ptr [esp]
  0040A8D1: E8 82 0C 00 00     call        0040B558
  0040A8D6: E8 0D 00 00 00     call        0040A8E8
  0040A8DB: 83 C4 0C           add         esp,0Ch
  0040A8DE: C3                 ret
  0040A8DF: 8D 54 24 04        lea         edx,[esp+4]
  0040A8E3: E8 2D 0C 00 00     call        0040B515
  0040A8E8: 52                 push        edx
  0040A8E9: 9B                 wait
  0040A8EA: D9 3C 24           fnstcw      word ptr [esp]
  0040A8ED: 74 4C              je          0040A93B
  0040A8EF: 8B 44 24 0C        mov         eax,dword ptr [esp+0Ch]
  0040A8F3: 66 81 3C 24 7F 02  cmp         word ptr [esp],27Fh
  0040A8F9: 74 06              je          0040A901
  0040A8FB: D9 2D A8 11 41 00  fldcw       word ptr ds:[004111A8h]
  0040A901: A9 00 00 F0 7F     test        eax,7FF00000h
  0040A906: 74 5E              je          0040A966
  0040A908: A9 00 00 00 80     test        eax,80000000h
  0040A90D: 75 41              jne         0040A950
  0040A90F: D9 EC              fldlg2
  0040A911: D9 C9              fxch        st(1)
  0040A913: D9 F1              fyl2x
  0040A915: 83 3D 90 42 41 00  cmp         dword ptr ds:[00414290h],0
            00
  0040A91C: 0F 85 4C 0C 00 00  jne         0040B56E
  0040A922: 8D 0D 90 0F 41 00  lea         ecx,ds:[00410F90h]
  0040A928: BA 1B 00 00 00     mov         edx,1Bh
  0040A92D: E9 49 0C 00 00     jmp         0040B57B
  0040A932: A9 00 00 00 80     test        eax,80000000h
  0040A937: 75 17              jne         0040A950
  0040A939: EB D4              jmp         0040A90F
  0040A93B: A9 FF FF 0F 00     test        eax,0FFFFFh
  0040A940: 75 1D              jne         0040A95F
  0040A942: 83 7C 24 08 00     cmp         dword ptr [esp+8],0
  0040A947: 75 16              jne         0040A95F
  0040A949: 25 00 00 00 80     and         eax,80000000h
  0040A94E: 74 C5              je          0040A915
  0040A950: DD D8              fstp        st(0)
  0040A952: DB 2D 60 11 41 00  fld         tbyte ptr ds:[00411160h]
  0040A958: B8 01 00 00 00     mov         eax,1
  0040A95D: EB 22              jmp         0040A981
  0040A95F: E8 98 0B 00 00     call        0040B4FC
  0040A964: EB 1B              jmp         0040A981
  0040A966: A9 FF FF 0F 00     test        eax,0FFFFFh
  0040A96B: 75 C5              jne         0040A932
  0040A96D: 83 7C 24 08 00     cmp         dword ptr [esp+8],0
  0040A972: 75 BE              jne         0040A932
  0040A974: DD D8              fstp        st(0)
  0040A976: DB 2D 0A 11 41 00  fld         tbyte ptr ds:[0041110Ah]
  0040A97C: B8 02 00 00 00     mov         eax,2
  0040A981: 83 3D 90 42 41 00  cmp         dword ptr ds:[00414290h],0
            00
  0040A988: 0F 85 E0 0B 00 00  jne         0040B56E
  0040A98E: 8D 0D 90 0F 41 00  lea         ecx,ds:[00410F90h]
  0040A994: BA 1B 00 00 00     mov         edx,1Bh
  0040A999: E8 D9 0C 00 00     call        0040B677
  0040A99E: 5A                 pop         edx
  0040A99F: C3                 ret
  0040A9A0: 83 3D A8 42 41 00  cmp         dword ptr ds:[004142A8h],0
            00
  0040A9A7: 0F 84 FA 0E 00 00  je          0040B8A7
  0040A9AD: 83 EC 08           sub         esp,8
  0040A9B0: 0F AE 5C 24 04     stmxcsr     dword ptr [esp+4]
  0040A9B5: 8B 44 24 04        mov         eax,dword ptr [esp+4]
  0040A9B9: 25 80 7F 00 00     and         eax,7F80h
  0040A9BE: 3D 80 1F 00 00     cmp         eax,1F80h
  0040A9C3: 75 0F              jne         0040A9D4
  0040A9C5: D9 3C 24           fnstcw      word ptr [esp]
  0040A9C8: 66 8B 04 24        mov         ax,word ptr [esp]
  0040A9CC: 66 83 E0 7F        and         ax,7Fh
  0040A9D0: 66 83 F8 7F        cmp         ax,7Fh
  0040A9D4: 8D 64 24 08        lea         esp,[esp+8]
  0040A9D8: 0F 85 C9 0E 00 00  jne         0040B8A7
  0040A9DE: EB 00              jmp         0040A9E0
  0040A9E0: F3 0F 7E 44 24 04  movq        xmm0,mmword ptr [esp+4]
  0040A9E6: 66 0F 28 15 B0 0F  movapd      xmm2,xmmword ptr ds:[00410FB0h]
            41 00
  0040A9EE: 66 0F 28 C8        movapd      xmm1,xmm0
  0040A9F2: 66 0F 28 F8        movapd      xmm7,xmm0
  0040A9F6: 66 0F 73 D0 34     psrlq       xmm0,34h
  0040A9FB: 66 0F 7E C0        movd        eax,xmm0
  0040A9FF: 66 0F 54 05 D0 0F  andpd       xmm0,xmmword ptr ds:[00410FD0h]
            41 00
  0040AA07: 66 0F FA D0        psubd       xmm2,xmm0
  0040AA0B: 66 0F D3 CA        psrlq       xmm1,xmm2
  0040AA0F: A9 00 08 00 00     test        eax,800h
  0040AA14: 74 4C              je          0040AA62
  0040AA16: 3D FF 0B 00 00     cmp         eax,0BFFh
  0040AA1B: 7C 7D              jl          0040AA9A
  0040AA1D: 66 0F F3 CA        psllq       xmm1,xmm2
  0040AA21: 3D 32 0C 00 00     cmp         eax,0C32h
  0040AA26: 7F 0B              jg          0040AA33
  0040AA28: 66 0F D6 4C 24 04  movq        mmword ptr [esp+4],xmm1
  0040AA2E: DD 44 24 04        fld         qword ptr [esp+4]
  0040AA32: C3                 ret
  0040AA33: 66 0F 2E FF        ucomisd     xmm7,xmm7
  0040AA37: 7B 24              jnp         0040AA5D
  0040AA39: BA EC 03 00 00     mov         edx,3ECh
  0040AA3E: 83 EC 10           sub         esp,10h
  0040AA41: 89 54 24 0C        mov         dword ptr [esp+0Ch],edx
  0040AA45: 8B D4              mov         edx,esp
  0040AA47: 83 C2 14           add         edx,14h
  0040AA4A: 89 54 24 08        mov         dword ptr [esp+8],edx
  0040AA4E: 89 54 24 04        mov         dword ptr [esp+4],edx
  0040AA52: 89 14 24           mov         dword ptr [esp],edx
  0040AA55: E8 59 0C 00 00     call        0040B6B3
  0040AA5A: 83 C4 10           add         esp,10h
  0040AA5D: DD 44 24 04        fld         qword ptr [esp+4]
  0040AA61: C3                 ret
  0040AA62: F3 0F 7E 44 24 04  movq        xmm0,mmword ptr [esp+4]
  0040AA68: 66 0F F3 CA        psllq       xmm1,xmm2
  0040AA6C: 66 0F 28 D8        movapd      xmm3,xmm0
  0040AA70: 66 0F C2 C1 06     cmpnlepd    xmm0,xmm1
  0040AA75: 3D FF 03 00 00     cmp         eax,3FFh
  0040AA7A: 7C 25              jl          0040AAA1
  0040AA7C: 3D 32 04 00 00     cmp         eax,432h
  0040AA81: 7F B0              jg          0040AA33
  0040AA83: 66 0F 54 05 A0 0F  andpd       xmm0,xmmword ptr ds:[00410FA0h]
            41 00
  0040AA8B: F2 0F 58 C8        addsd       xmm1,xmm0
  0040AA8F: 66 0F D6 4C 24 04  movq        mmword ptr [esp+4],xmm1
  0040AA95: DD 44 24 04        fld         qword ptr [esp+4]
  0040AA99: C3                 ret
  0040AA9A: DD 05 E0 0F 41 00  fld         qword ptr ds:[00410FE0h]
  0040AAA0: C3                 ret
  0040AAA1: 66 0F C2 1D C0 0F  cmpnlepd    xmm3,xmmword ptr ds:[00410FC0h]
            41 00 06
  0040AAAA: 66 0F 54 1D A0 0F  andpd       xmm3,xmmword ptr ds:[00410FA0h]
            41 00
  0040AAB2: 66 0F D6 5C 24 04  movq        mmword ptr [esp+4],xmm3
  0040AAB8: DD 44 24 04        fld         qword ptr [esp+4]
  0040AABC: C3                 ret
  0040AABD: CC                 int         3
  0040AABE: CC                 int         3
  0040AABF: CC                 int         3
  0040AAC0: 55                 push        ebp
  0040AAC1: 8B EC              mov         ebp,esp
  0040AAC3: 57                 push        edi
  0040AAC4: 56                 push        esi
  0040AAC5: 53                 push        ebx
  0040AAC6: 8B 4D 10           mov         ecx,dword ptr [ebp+10h]
  0040AAC9: 0B C9              or          ecx,ecx
  0040AACB: 74 4D              je          0040AB1A
  0040AACD: 8B 75 08           mov         esi,dword ptr [ebp+8]
  0040AAD0: 8B 7D 0C           mov         edi,dword ptr [ebp+0Ch]
  0040AAD3: B7 41              mov         bh,41h
  0040AAD5: B3 5A              mov         bl,5Ah
  0040AAD7: B6 20              mov         dh,20h
  0040AAD9: 8D 49 00           lea         ecx,[ecx]
  0040AADC: 8A 26              mov         ah,byte ptr [esi]
  0040AADE: 0A E4              or          ah,ah
  0040AAE0: 8A 07              mov         al,byte ptr [edi]
  0040AAE2: 74 27              je          0040AB0B
  0040AAE4: 0A C0              or          al,al
  0040AAE6: 74 23              je          0040AB0B
  0040AAE8: 83 C6 01           add         esi,1
  0040AAEB: 83 C7 01           add         edi,1
  0040AAEE: 3A E7              cmp         ah,bh
  0040AAF0: 72 06              jb          0040AAF8
  0040AAF2: 3A E3              cmp         ah,bl
  0040AAF4: 77 02              ja          0040AAF8
  0040AAF6: 02 E6              add         ah,dh
  0040AAF8: 3A C7              cmp         al,bh
  0040AAFA: 72 06              jb          0040AB02
  0040AAFC: 3A C3              cmp         al,bl
  0040AAFE: 77 02              ja          0040AB02
  0040AB00: 02 C6              add         al,dh
  0040AB02: 3A E0              cmp         ah,al
  0040AB04: 75 0B              jne         0040AB11
  0040AB06: 83 E9 01           sub         ecx,1
  0040AB09: 75 D1              jne         0040AADC
  0040AB0B: 33 C9              xor         ecx,ecx
  0040AB0D: 3A E0              cmp         ah,al
  0040AB0F: 74 09              je          0040AB1A
  0040AB11: B9 FF FF FF FF     mov         ecx,0FFFFFFFFh
  0040AB16: 72 02              jb          0040AB1A
  0040AB18: F7 D9              neg         ecx
  0040AB1A: 8B C1              mov         eax,ecx
  0040AB1C: 5B                 pop         ebx
  0040AB1D: 5E                 pop         esi
  0040AB1E: 5F                 pop         edi
  0040AB1F: C9                 leave
  0040AB20: C3                 ret
  0040AB21: 33 C0              xor         eax,eax
  0040AB23: 50                 push        eax
  0040AB24: 50                 push        eax
  0040AB25: 6A 03              push        3
  0040AB27: 50                 push        eax
  0040AB28: 6A 03              push        3
  0040AB2A: 68 00 00 00 40     push        40000000h
  0040AB2F: 68 E8 0F 41 00     push        410FE8h
  0040AB34: FF 15 F8 D0 40 00  call        dword ptr ds:[0040D0F8h]
  0040AB3A: A3 60 38 41 00     mov         dword ptr ds:[00413860h],eax
  0040AB3F: C3                 ret
  0040AB40: 8B 0D 60 38 41 00  mov         ecx,dword ptr ds:[00413860h]
  0040AB46: 83 F9 FE           cmp         ecx,0FFFFFFFEh
  0040AB49: 75 0B              jne         0040AB56
  0040AB4B: E8 D1 FF FF FF     call        0040AB21
  0040AB50: 8B 0D 60 38 41 00  mov         ecx,dword ptr ds:[00413860h]
  0040AB56: 33 C0              xor         eax,eax
  0040AB58: 83 F9 FF           cmp         ecx,0FFFFFFFFh
  0040AB5B: 0F 95 C0           setne       al
  0040AB5E: C3                 ret
  0040AB5F: A1 60 38 41 00     mov         eax,dword ptr ds:[00413860h]
  0040AB64: 83 F8 FF           cmp         eax,0FFFFFFFFh
  0040AB67: 74 0C              je          0040AB75
  0040AB69: 83 F8 FE           cmp         eax,0FFFFFFFEh
  0040AB6C: 74 07              je          0040AB75
  0040AB6E: 50                 push        eax
  0040AB6F: FF 15 FC D0 40 00  call        dword ptr ds:[0040D0FCh]
  0040AB75: C3                 ret
  0040AB76: 8B FF              mov         edi,edi
  0040AB78: 55                 push        ebp
  0040AB79: 8B EC              mov         ebp,esp
  0040AB7B: 56                 push        esi
  0040AB7C: 6A 00              push        0
  0040AB7E: FF 75 10           push        dword ptr [ebp+10h]
  0040AB81: FF 75 0C           push        dword ptr [ebp+0Ch]
  0040AB84: FF 75 08           push        dword ptr [ebp+8]
  0040AB87: FF 35 60 38 41 00  push        dword ptr ds:[00413860h]
  0040AB8D: FF 15 34 D0 40 00  call        dword ptr ds:[0040D034h]
  0040AB93: 8B F0              mov         esi,eax
  0040AB95: 85 F6              test        esi,esi
  0040AB97: 75 2D              jne         0040ABC6
  0040AB99: FF 15 3C D0 40 00  call        dword ptr ds:[0040D03Ch]
  0040AB9F: 83 F8 06           cmp         eax,6
  0040ABA2: 75 22              jne         0040ABC6
  0040ABA4: E8 B6 FF FF FF     call        0040AB5F
  0040ABA9: E8 73 FF FF FF     call        0040AB21
  0040ABAE: 56                 push        esi
  0040ABAF: FF 75 10           push        dword ptr [ebp+10h]
  0040ABB2: FF 75 0C           push        dword ptr [ebp+0Ch]
  0040ABB5: FF 75 08           push        dword ptr [ebp+8]
  0040ABB8: FF 35 60 38 41 00  push        dword ptr ds:[00413860h]
  0040ABBE: FF 15 34 D0 40 00  call        dword ptr ds:[0040D034h]
  0040ABC4: 8B F0              mov         esi,eax
  0040ABC6: 8B C6              mov         eax,esi
  0040ABC8: 5E                 pop         esi
  0040ABC9: 5D                 pop         ebp
  0040ABCA: C3                 ret
  0040ABCB: 6A 0C              push        0Ch
  0040ABCD: 68 D8 22 41 00     push        4122D8h
  0040ABD2: E8 19 6C FF FF     call        004017F0
  0040ABD7: 83 65 E4 00        and         dword ptr [ebp-1Ch],0
  0040ABDB: 8B 45 08           mov         eax,dword ptr [ebp+8]
  0040ABDE: FF 30              push        dword ptr [eax]
  0040ABE0: E8 BC BB FF FF     call        004067A1
  0040ABE5: 59                 pop         ecx
  0040ABE6: 83 65 FC 00        and         dword ptr [ebp-4],0
  0040ABEA: 8B 45 0C           mov         eax,dword ptr [ebp+0Ch]
  0040ABED: 8B 00              mov         eax,dword ptr [eax]
  0040ABEF: 8B 30              mov         esi,dword ptr [eax]
  0040ABF1: 8B D6              mov         edx,esi
  0040ABF3: C1 FA 06           sar         edx,6
  0040ABF6: 8B C6              mov         eax,esi
  0040ABF8: 83 E0 3F           and         eax,3Fh
  0040ABFB: 6B C8 38           imul        ecx,eax,38h
  0040ABFE: 8B 04 95 70 3F 41  mov         eax,dword ptr [edx*4+00413F70h]
            00
  0040AC05: F6 44 08 28 01     test        byte ptr [eax+ecx+28h],1
  0040AC0A: 74 0B              je          0040AC17
  0040AC0C: 56                 push        esi
  0040AC0D: E8 D2 00 00 00     call        0040ACE4
  0040AC12: 59                 pop         ecx
  0040AC13: 8B F0              mov         esi,eax
  0040AC15: EB 0E              jmp         0040AC25
  0040AC17: E8 3F A1 FF FF     call        00404D5B
  0040AC1C: C7 00 09 00 00 00  mov         dword ptr [eax],9
  0040AC22: 83 CE FF           or          esi,0FFFFFFFFh
  0040AC25: 89 75 E4           mov         dword ptr [ebp-1Ch],esi
  0040AC28: C7 45 FC FE FF FF  mov         dword ptr [ebp-4],0FFFFFFFEh
            FF
  0040AC2F: E8 17 00 00 00     call        0040AC4B
  0040AC34: 8B C6              mov         eax,esi
  0040AC36: 8B 4D F0           mov         ecx,dword ptr [ebp-10h]
  0040AC39: 64 89 0D 00 00 00  mov         dword ptr fs:[00000000h],ecx
            00
  0040AC40: 59                 pop         ecx
  0040AC41: 5F                 pop         edi
  0040AC42: 5E                 pop         esi
  0040AC43: 5B                 pop         ebx
  0040AC44: C9                 leave
  0040AC45: C2 0C 00           ret         0Ch
  0040AC48: 8B 75 E4           mov         esi,dword ptr [ebp-1Ch]
  0040AC4B: 8B 45 10           mov         eax,dword ptr [ebp+10h]
  0040AC4E: FF 30              push        dword ptr [eax]
  0040AC50: E8 6F BB FF FF     call        004067C4
  0040AC55: 59                 pop         ecx
  0040AC56: C3                 ret
  0040AC57: 8B FF              mov         edi,edi
  0040AC59: 55                 push        ebp
  0040AC5A: 8B EC              mov         ebp,esp
  0040AC5C: 83 EC 10           sub         esp,10h
  0040AC5F: 56                 push        esi
  0040AC60: 8B 75 08           mov         esi,dword ptr [ebp+8]
  0040AC63: 83 FE FE           cmp         esi,0FFFFFFFEh
  0040AC66: 75 15              jne         0040AC7D
  0040AC68: E8 DB A0 FF FF     call        00404D48
  0040AC6D: 83 20 00           and         dword ptr [eax],0
  0040AC70: E8 E6 A0 FF FF     call        00404D5B
  0040AC75: C7 00 09 00 00 00  mov         dword ptr [eax],9
  0040AC7B: EB 61              jmp         0040ACDE
  0040AC7D: 85 F6              test        esi,esi
  0040AC7F: 78 45              js          0040ACC6
  0040AC81: 3B 35 70 41 41 00  cmp         esi,dword ptr ds:[00414170h]
  0040AC87: 73 3D              jae         0040ACC6
  0040AC89: 8B C6              mov         eax,esi
  0040AC8B: 8B D6              mov         edx,esi
  0040AC8D: 83 E0 3F           and         eax,3Fh
  0040AC90: C1 FA 06           sar         edx,6
  0040AC93: 6B C8 38           imul        ecx,eax,38h
  0040AC96: 8B 04 95 70 3F 41  mov         eax,dword ptr [edx*4+00413F70h]
            00
  0040AC9D: F6 44 08 28 01     test        byte ptr [eax+ecx+28h],1
  0040ACA2: 74 22              je          0040ACC6
  0040ACA4: 8D 45 08           lea         eax,[ebp+8]
  0040ACA7: 89 75 F8           mov         dword ptr [ebp-8],esi
  0040ACAA: 89 45 F4           mov         dword ptr [ebp-0Ch],eax
  0040ACAD: 8D 4D FF           lea         ecx,[ebp-1]
  0040ACB0: 8D 45 F8           lea         eax,[ebp-8]
  0040ACB3: 89 75 F0           mov         dword ptr [ebp-10h],esi
  0040ACB6: 50                 push        eax
  0040ACB7: 8D 45 F4           lea         eax,[ebp-0Ch]
  0040ACBA: 50                 push        eax
  0040ACBB: 8D 45 F0           lea         eax,[ebp-10h]
  0040ACBE: 50                 push        eax
  0040ACBF: E8 07 FF FF FF     call        0040ABCB
  0040ACC4: EB 1B              jmp         0040ACE1
  0040ACC6: E8 7D A0 FF FF     call        00404D48
  0040ACCB: 83 20 00           and         dword ptr [eax],0
  0040ACCE: E8 88 A0 FF FF     call        00404D5B
  0040ACD3: C7 00 09 00 00 00  mov         dword ptr [eax],9
  0040ACD9: E8 C0 9F FF FF     call        00404C9E
  0040ACDE: 83 C8 FF           or          eax,0FFFFFFFFh
  0040ACE1: 5E                 pop         esi
  0040ACE2: C9                 leave
  0040ACE3: C3                 ret
  0040ACE4: 8B FF              mov         edi,edi
  0040ACE6: 55                 push        ebp
  0040ACE7: 8B EC              mov         ebp,esp
  0040ACE9: 56                 push        esi
  0040ACEA: 57                 push        edi
  0040ACEB: 8B 7D 08           mov         edi,dword ptr [ebp+8]
  0040ACEE: 57                 push        edi
  0040ACEF: E8 84 BB FF FF     call        00406878
  0040ACF4: 59                 pop         ecx
  0040ACF5: 83 F8 FF           cmp         eax,0FFFFFFFFh
  0040ACF8: 75 04              jne         0040ACFE
  0040ACFA: 33 F6              xor         esi,esi
  0040ACFC: EB 4E              jmp         0040AD4C
  0040ACFE: A1 70 3F 41 00     mov         eax,dword ptr ds:[00413F70h]
  0040AD03: 83 FF 01           cmp         edi,1
  0040AD06: 75 09              jne         0040AD11
  0040AD08: F6 80 98 00 00 00  test        byte ptr [eax+00000098h],1
            01
  0040AD0F: 75 0B              jne         0040AD1C
  0040AD11: 83 FF 02           cmp         edi,2
  0040AD14: 75 1C              jne         0040AD32
  0040AD16: F6 40 60 01        test        byte ptr [eax+60h],1
  0040AD1A: 74 16              je          0040AD32
  0040AD1C: 6A 02              push        2
  0040AD1E: E8 55 BB FF FF     call        00406878
  0040AD23: 6A 01              push        1
  0040AD25: 8B F0              mov         esi,eax
  0040AD27: E8 4C BB FF FF     call        00406878
  0040AD2C: 59                 pop         ecx
  0040AD2D: 59                 pop         ecx
  0040AD2E: 3B C6              cmp         eax,esi
  0040AD30: 74 C8              je          0040ACFA
  0040AD32: 57                 push        edi
  0040AD33: E8 40 BB FF FF     call        00406878
  0040AD38: 59                 pop         ecx
  0040AD39: 50                 push        eax
  0040AD3A: FF 15 FC D0 40 00  call        dword ptr ds:[0040D0FCh]
  0040AD40: 85 C0              test        eax,eax
  0040AD42: 75 B6              jne         0040ACFA
  0040AD44: FF 15 3C D0 40 00  call        dword ptr ds:[0040D03Ch]
  0040AD4A: 8B F0              mov         esi,eax
  0040AD4C: 57                 push        edi
  0040AD4D: E8 95 BA FF FF     call        004067E7
  0040AD52: 59                 pop         ecx
  0040AD53: 8B CF              mov         ecx,edi
  0040AD55: 83 E7 3F           and         edi,3Fh
  0040AD58: C1 F9 06           sar         ecx,6
  0040AD5B: 6B D7 38           imul        edx,edi,38h
  0040AD5E: 8B 0C 8D 70 3F 41  mov         ecx,dword ptr [ecx*4+00413F70h]
            00
  0040AD65: C6 44 11 28 00     mov         byte ptr [ecx+edx+28h],0
  0040AD6A: 85 F6              test        esi,esi
  0040AD6C: 74 0C              je          0040AD7A
  0040AD6E: 56                 push        esi
  0040AD6F: E8 B1 9F FF FF     call        00404D25
  0040AD74: 59                 pop         ecx
  0040AD75: 83 C8 FF           or          eax,0FFFFFFFFh
  0040AD78: EB 02              jmp         0040AD7C
  0040AD7A: 33 C0              xor         eax,eax
  0040AD7C: 5F                 pop         edi
  0040AD7D: 5E                 pop         esi
  0040AD7E: 5D                 pop         ebp
  0040AD7F: C3                 ret
  0040AD80: 8B FF              mov         edi,edi
  0040AD82: 55                 push        ebp
  0040AD83: 8B EC              mov         ebp,esp
  0040AD85: 8B 45 08           mov         eax,dword ptr [ebp+8]
  0040AD88: 33 C9              xor         ecx,ecx
  0040AD8A: 89 08              mov         dword ptr [eax],ecx
  0040AD8C: 8B 45 08           mov         eax,dword ptr [ebp+8]
  0040AD8F: 89 48 04           mov         dword ptr [eax+4],ecx
  0040AD92: 8B 45 08           mov         eax,dword ptr [ebp+8]
  0040AD95: 89 48 08           mov         dword ptr [eax+8],ecx
  0040AD98: 8B 45 08           mov         eax,dword ptr [ebp+8]
  0040AD9B: 83 48 10 FF        or          dword ptr [eax+10h],0FFFFFFFFh
  0040AD9F: 8B 45 08           mov         eax,dword ptr [ebp+8]
  0040ADA2: 89 48 14           mov         dword ptr [eax+14h],ecx
  0040ADA5: 8B 45 08           mov         eax,dword ptr [ebp+8]
  0040ADA8: 89 48 18           mov         dword ptr [eax+18h],ecx
  0040ADAB: 8B 45 08           mov         eax,dword ptr [ebp+8]
  0040ADAE: 89 48 1C           mov         dword ptr [eax+1Ch],ecx
  0040ADB1: 8B 45 08           mov         eax,dword ptr [ebp+8]
  0040ADB4: 83 C0 0C           add         eax,0Ch
  0040ADB7: 87 08              xchg        ecx,dword ptr [eax]
  0040ADB9: 5D                 pop         ebp
  0040ADBA: C3                 ret
  0040ADBB: 6A 0A              push        0Ah
  0040ADBD: FF 15 24 D0 40 00  call        dword ptr ds:[0040D024h]
  0040ADC3: A3 A8 42 41 00     mov         dword ptr ds:[004142A8h],eax
  0040ADC8: 33 C0              xor         eax,eax
  0040ADCA: C3                 ret
  0040ADCB: CC                 int         3
  0040ADCC: CC                 int         3
  0040ADCD: CC                 int         3
  0040ADCE: CC                 int         3
  0040ADCF: CC                 int         3
  0040ADD0: 55                 push        ebp
  0040ADD1: 8B EC              mov         ebp,esp
  0040ADD3: 83 EC 08           sub         esp,8
  0040ADD6: 83 E4 F0           and         esp,0FFFFFFF0h
  0040ADD9: DD 1C 24           fstp        qword ptr [esp]
  0040ADDC: F3 0F 7E 04 24     movq        xmm0,mmword ptr [esp]
  0040ADE1: E8 08 00 00 00     call        0040ADEE
  0040ADE6: C9                 leave
  0040ADE7: C3                 ret
  0040ADE8: 66 0F 12 44 24 04  movlpd      xmm0,qword ptr [esp+4]
  0040ADEE: BA 00 00 00 00     mov         edx,0
  0040ADF3: 66 0F 28 E8        movapd      xmm5,xmm0
  0040ADF7: 66 0F 14 C0        unpcklpd    xmm0,xmm0
  0040ADFB: 66 0F 73 D5 34     psrlq       xmm5,34h
  0040AE00: 66 0F C5 CD 00     pextrw      ecx,xmm5,0
  0040AE05: 66 0F 28 0D 00 10  movapd      xmm1,xmmword ptr ds:[00411000h]
            41 00
  0040AE0D: 66 0F 28 15 10 10  movapd      xmm2,xmmword ptr ds:[00411010h]
            41 00
  0040AE15: 66 0F 28 1D 70 10  movapd      xmm3,xmmword ptr ds:[00411070h]
            41 00
  0040AE1D: 66 0F 28 25 20 10  movapd      xmm4,xmmword ptr ds:[00411020h]
            41 00
  0040AE25: 66 0F 28 35 30 10  movapd      xmm6,xmmword ptr ds:[00411030h]
            41 00
  0040AE2D: 66 0F 54 C1        andpd       xmm0,xmm1
  0040AE31: 66 0F 56 C3        orpd        xmm0,xmm3
  0040AE35: 66 0F 58 E0        addpd       xmm4,xmm0
  0040AE39: 66 0F C5 C4 00     pextrw      eax,xmm4,0
  0040AE3E: 25 F0 07 00 00     and         eax,7F0h
  0040AE43: 66 0F 28 A0 30 16  movapd      xmm4,xmmword ptr [eax+00411630h]
            41 00
  0040AE4B: 66 0F 28 B8 20 12  movapd      xmm7,xmmword ptr [eax+00411220h]
            41 00
  0040AE53: 66 0F 54 F0        andpd       xmm6,xmm0
  0040AE57: 66 0F 5C C6        subpd       xmm0,xmm6
  0040AE5B: 66 0F 59 F4        mulpd       xmm6,xmm4
  0040AE5F: 66 0F 5C F2        subpd       xmm6,xmm2
  0040AE63: F2 0F 58 FE        addsd       xmm7,xmm6
  0040AE67: 66 0F 59 C4        mulpd       xmm0,xmm4
  0040AE6B: 66 0F 28 E0        movapd      xmm4,xmm0
  0040AE6F: 66 0F 58 C6        addpd       xmm0,xmm6
  0040AE73: 81 E1 FF 0F 00 00  and         ecx,0FFFh
  0040AE79: 83 E9 01           sub         ecx,1
  0040AE7C: 81 F9 FD 07 00 00  cmp         ecx,7FDh
  0040AE82: 0F 87 BE 00 00 00  ja          0040AF46
  0040AE88: 81 E9 FE 03 00 00  sub         ecx,3FEh
  0040AE8E: 03 CA              add         ecx,edx
  0040AE90: F2 0F 2A F1        cvtsi2sd    xmm6,ecx
  0040AE94: 66 0F 14 F6        unpcklpd    xmm6,xmm6
  0040AE98: C1 E1 0A           shl         ecx,0Ah
  0040AE9B: 03 C1              add         eax,ecx
  0040AE9D: B9 10 00 00 00     mov         ecx,10h
  0040AEA2: BA 00 00 00 00     mov         edx,0
  0040AEA7: 83 F8 00           cmp         eax,0
  0040AEAA: 0F 44 D1           cmove       edx,ecx
  0040AEAD: 66 0F 28 0D C0 10  movapd      xmm1,xmmword ptr ds:[004110C0h]
            41 00
  0040AEB5: 66 0F 28 D8        movapd      xmm3,xmm0
  0040AEB9: 66 0F 28 15 D0 10  movapd      xmm2,xmmword ptr ds:[004110D0h]
            41 00
  0040AEC1: 66 0F 59 C8        mulpd       xmm1,xmm0
  0040AEC5: 66 0F 59 DB        mulpd       xmm3,xmm3
  0040AEC9: 66 0F 58 CA        addpd       xmm1,xmm2
  0040AECD: 66 0F 28 15 E0 10  movapd      xmm2,xmmword ptr ds:[004110E0h]
            41 00
  0040AED5: F2 0F 59 DB        mulsd       xmm3,xmm3
  0040AED9: 66 0F 28 2D 40 10  movapd      xmm5,xmmword ptr ds:[00411040h]
            41 00
  0040AEE1: 66 0F 59 F5        mulpd       xmm6,xmm5
  0040AEE5: 66 0F 28 AA 50 10  movapd      xmm5,xmmword ptr [edx+00411050h]
            41 00
  0040AEED: 66 0F 54 E5        andpd       xmm4,xmm5
  0040AEF1: 66 0F 58 FE        addpd       xmm7,xmm6
  0040AEF5: 66 0F 58 FC        addpd       xmm7,xmm4
  0040AEF9: 66 0F 59 C8        mulpd       xmm1,xmm0
  0040AEFD: F2 0F 59 D8        mulsd       xmm3,xmm0
  0040AF01: 66 0F 58 CA        addpd       xmm1,xmm2
  0040AF05: 66 0F 28 15 F0 10  movapd      xmm2,xmmword ptr ds:[004110F0h]
            41 00
  0040AF0D: 66 0F 59 D0        mulpd       xmm2,xmm0
  0040AF11: 66 0F 28 F7        movapd      xmm6,xmm7
  0040AF15: 66 0F 15 F6        unpckhpd    xmm6,xmm6
  0040AF19: 66 0F 59 CB        mulpd       xmm1,xmm3
  0040AF1D: 83 EC 10           sub         esp,10h
  0040AF20: 66 0F 28 C1        movapd      xmm0,xmm1
  0040AF24: 66 0F 58 CA        addpd       xmm1,xmm2
  0040AF28: 66 0F 15 C0        unpckhpd    xmm0,xmm0
  0040AF2C: F2 0F 58 C1        addsd       xmm0,xmm1
  0040AF30: F2 0F 58 C6        addsd       xmm0,xmm6
  0040AF34: F2 0F 58 C7        addsd       xmm0,xmm7
  0040AF38: 66 0F 13 44 24 04  movlpd      qword ptr [esp+4],xmm0
  0040AF3E: DD 44 24 04        fld         qword ptr [esp+4]
  0040AF42: 83 C4 10           add         esp,10h
  0040AF45: C3                 ret
  0040AF46: 66 0F 12 44 24 04  movlpd      xmm0,qword ptr [esp+4]
  0040AF4C: 66 0F 28 0D 80 10  movapd      xmm1,xmmword ptr ds:[00411080h]
            41 00
  0040AF54: F2 0F C2 C8 00     cmpeqsd     xmm1,xmm0
  0040AF59: 66 0F C5 C1 00     pextrw      eax,xmm1,0
  0040AF5E: 83 F8 00           cmp         eax,0
  0040AF61: 77 48              ja          0040AFAB
  0040AF63: 83 F9 FF           cmp         ecx,0FFFFFFFFh
  0040AF66: 74 5E              je          0040AFC6
  0040AF68: 81 F9 FE 07 00 00  cmp         ecx,7FEh
  0040AF6E: 77 6C              ja          0040AFDC
  0040AF70: 66 0F 12 44 24 04  movlpd      xmm0,qword ptr [esp+4]
  0040AF76: 66 0F 28 0D 00 10  movapd      xmm1,xmmword ptr ds:[00411000h]
            41 00
  0040AF7E: 66 0F 28 15 70 10  movapd      xmm2,xmmword ptr ds:[00411070h]
            41 00
  0040AF86: 66 0F 54 C1        andpd       xmm0,xmm1
  0040AF8A: 66 0F 56 C2        orpd        xmm0,xmm2
  0040AF8E: F2 0F C2 D0 00     cmpeqsd     xmm2,xmm0
  0040AF93: 66 0F C5 C2 00     pextrw      eax,xmm2,0
  0040AF98: 83 F8 00           cmp         eax,0
  0040AF9B: 74 07              je          0040AFA4
  0040AF9D: DD 05 A8 10 41 00  fld         qword ptr ds:[004110A8h]
  0040AFA3: C3                 ret
  0040AFA4: BA E9 03 00 00     mov         edx,3E9h
  0040AFA9: EB 4F              jmp         0040AFFA
  0040AFAB: 66 0F 12 15 70 10  movlpd      xmm2,qword ptr ds:[00411070h]
            41 00
  0040AFB3: F2 0F 5E D0        divsd       xmm2,xmm0
  0040AFB7: 66 0F 12 0D A0 10  movlpd      xmm1,qword ptr ds:[004110A0h]
            41 00
  0040AFBF: BA 08 00 00 00     mov         edx,8
  0040AFC4: EB 34              jmp         0040AFFA
  0040AFC6: 66 0F 12 0D 90 10  movlpd      xmm1,qword ptr ds:[00411090h]
            41 00
  0040AFCE: F2 0F 59 C1        mulsd       xmm0,xmm1
  0040AFD2: BA CC FF FF FF     mov         edx,0FFFFFFCCh
  0040AFD7: E9 17 FE FF FF     jmp         0040ADF3
  0040AFDC: 83 C1 01           add         ecx,1
  0040AFDF: 81 E1 FF 07 00 00  and         ecx,7FFh
  0040AFE5: 81 F9 FF 07 00 00  cmp         ecx,7FFh
  0040AFEB: 73 3A              jae         0040B027
  0040AFED: 66 0F 57 C9        xorpd       xmm1,xmm1
  0040AFF1: F2 0F 5E C9        divsd       xmm1,xmm1
  0040AFF5: BA 09 00 00 00     mov         edx,9
  0040AFFA: 83 EC 1C           sub         esp,1Ch
  0040AFFD: 66 0F 13 4C 24 10  movlpd      qword ptr [esp+10h],xmm1
  0040B003: 89 54 24 0C        mov         dword ptr [esp+0Ch],edx
  0040B007: 8B D4              mov         edx,esp
  0040B009: 83 C2 10           add         edx,10h
  0040B00C: 89 54 24 08        mov         dword ptr [esp+8],edx
  0040B010: 83 C2 10           add         edx,10h
  0040B013: 89 54 24 04        mov         dword ptr [esp+4],edx
  0040B017: 89 14 24           mov         dword ptr [esp],edx
  0040B01A: E8 94 06 00 00     call        0040B6B3
  0040B01F: DD 44 24 10        fld         qword ptr [esp+10h]
  0040B023: 83 C4 1C           add         esp,1Ch
  0040B026: C3                 ret
  0040B027: 66 0F 12 54 24 04  movlpd      xmm2,qword ptr [esp+4]
  0040B02D: 66 0F 12 44 24 04  movlpd      xmm0,qword ptr [esp+4]
  0040B033: 66 0F 7E D0        movd        eax,xmm2
  0040B037: 66 0F 73 D2 20     psrlq       xmm2,20h
  0040B03C: 66 0F 7E D1        movd        ecx,xmm2
  0040B040: 81 E1 FF FF 0F 00  and         ecx,0FFFFFh
  0040B046: 0B C1              or          eax,ecx
  0040B048: 83 F8 00           cmp         eax,0
  0040B04B: 74 A0              je          0040AFED
  0040B04D: BA E9 03 00 00     mov         edx,3E9h
  0040B052: EB A6              jmp         0040AFFA
  0040B054: 8D A4 24 00 00 00  lea         esp,[esp+00000000h]
            00
  0040B05B: EB 03              jmp         0040B060
  0040B05D: CC                 int         3
  0040B05E: CC                 int         3
  0040B05F: CC                 int         3
  0040B060: C6 85 70 FF FF FF  mov         byte ptr [ebp+FFFFFF70h],0FEh
            FE
  0040B067: 0A ED              or          ch,ch
  0040B069: 75 4A              jne         0040B0B5
  0040B06B: D9 C9              fxch        st(1)
  0040B06D: D9 F1              fyl2x
  0040B06F: EB 1C              jmp         0040B08D
  0040B071: 8D A4 24 00 00 00  lea         esp,[esp+00000000h]
            00
  0040B078: 8D A4 24 00 00 00  lea         esp,[esp+00000000h]
            00
  0040B07F: 90                 nop
  0040B080: C6 85 70 FF FF FF  mov         byte ptr [ebp+FFFFFF70h],0FEh
            FE
  0040B087: 32 ED              xor         ch,ch
  0040B089: D9 EA              fldl2e
  0040B08B: DE C9              fmulp       st(1),st
  0040B08D: E8 2B 01 00 00     call        0040B1BD
  0040B092: D9 E8              fld1
  0040B094: DE C1              faddp       st(1),st
  0040B096: F6 85 61 FF FF FF  test        byte ptr [ebp+FFFFFF61h],1
            01
  0040B09D: 74 04              je          0040B0A3
  0040B09F: D9 E8              fld1
  0040B0A1: DE F1              fdivrp      st(1),st
  0040B0A3: F6 C2 40           test        dl,40h
  0040B0A6: 75 02              jne         0040B0AA
  0040B0A8: D9 FD              fscale
  0040B0AA: 0A ED              or          ch,ch
  0040B0AC: 74 02              je          0040B0B0
  0040B0AE: D9 E0              fchs
  0040B0B0: E9 CF 02 00 00     jmp         0040B384
  0040B0B5: E8 46 01 00 00     call        0040B200
  0040B0BA: 0B C0              or          eax,eax
  0040B0BC: 74 14              je          0040B0D2
  0040B0BE: 32 ED              xor         ch,ch
  0040B0C0: 83 F8 02           cmp         eax,2
  0040B0C3: 74 02              je          0040B0C7
  0040B0C5: F6 D5              not         ch
  0040B0C7: D9 C9              fxch        st(1)
  0040B0C9: D9 E1              fabs
  0040B0CB: EB A0              jmp         0040B06D
  0040B0CD: E9 EB 02 00 00     jmp         0040B3BD
  0040B0D2: E9 A9 03 00 00     jmp         0040B480
  0040B0D7: DD D8              fstp        st(0)
  0040B0D9: DD D8              fstp        st(0)
  0040B0DB: DB 2D 00 11 41 00  fld         tbyte ptr ds:[00411100h]
  0040B0E1: C6 85 70 FF FF FF  mov         byte ptr [ebp+FFFFFF70h],2
            02
  0040B0E8: C3                 ret
  0040B0E9: D9 ED              fldln2
  0040B0EB: D9 C9              fxch        st(1)
  0040B0ED: D9 E4              ftst
  0040B0EF: 9B                 wait
  0040B0F0: DD BD 60 FF FF FF  fnstsw      word ptr [ebp+FFFFFF60h]
  0040B0F6: 9B                 wait
  0040B0F7: F6 85 61 FF FF FF  test        byte ptr [ebp+FFFFFF61h],41h
            41
  0040B0FE: 75 D2              jne         0040B0D2
  0040B100: D9 F1              fyl2x
  0040B102: C3                 ret
  0040B103: C6 85 70 FF FF FF  mov         byte ptr [ebp+FFFFFF70h],2
            02
  0040B10A: DD D8              fstp        st(0)
  0040B10C: DB 2D 0A 11 41 00  fld         tbyte ptr ds:[0041110Ah]
  0040B112: C3                 ret
  0040B113: 0A C9              or          cl,cl
  0040B115: 75 53              jne         0040B16A
  0040B117: C3                 ret
  0040B118: D9 EC              fldlg2
  0040B11A: EB 02              jmp         0040B11E
  0040B11C: D9 ED              fldln2
  0040B11E: D9 C9              fxch        st(1)
  0040B120: 0A C9              or          cl,cl
  0040B122: 75 AE              jne         0040B0D2
  0040B124: D9 F1              fyl2x
  0040B126: C3                 ret
  0040B127: E9 91 02 00 00     jmp         0040B3BD
  0040B12C: E8 CF 00 00 00     call        0040B200
  0040B131: DD D8              fstp        st(0)
  0040B133: DD D8              fstp        st(0)
  0040B135: 0A C9              or          cl,cl
  0040B137: 75 0E              jne         0040B147
  0040B139: D9 EE              fldz
  0040B13B: 83 F8 01           cmp         eax,1
  0040B13E: 75 06              jne         0040B146
  0040B140: 0A ED              or          ch,ch
  0040B142: 74 02              je          0040B146
  0040B144: D9 E0              fchs
  0040B146: C3                 ret
  0040B147: C6 85 70 FF FF FF  mov         byte ptr [ebp+FFFFFF70h],2
            02
  0040B14E: DB 2D 00 11 41 00  fld         tbyte ptr ds:[00411100h]
  0040B154: 83 F8 01           cmp         eax,1
  0040B157: 75 ED              jne         0040B146
  0040B159: 0A ED              or          ch,ch
  0040B15B: 74 E9              je          0040B146
  0040B15D: D9 E0              fchs
  0040B15F: EB E5              jmp         0040B146
  0040B161: DD D8              fstp        st(0)
  0040B163: E9 42 02 00 00     jmp         0040B3AA
  0040B168: DD D8              fstp        st(0)
  0040B16A: E9 13 03 00 00     jmp         0040B482
  0040B16F: 58                 pop         eax
  0040B170: D9 E4              ftst
  0040B172: 9B                 wait
  0040B173: DD BD 60 FF FF FF  fnstsw      word ptr [ebp+FFFFFF60h]
  0040B179: 9B                 wait
  0040B17A: F6 85 61 FF FF FF  test        byte ptr [ebp+FFFFFF61h],1
            01
  0040B181: 75 0F              jne         0040B192
  0040B183: DD D8              fstp        st(0)
  0040B185: DB 2D 00 11 41 00  fld         tbyte ptr ds:[00411100h]
  0040B18B: 0A ED              or          ch,ch
  0040B18D: 74 02              je          0040B191
  0040B18F: D9 E0              fchs
  0040B191: C3                 ret
  0040B192: C6 85 70 FF FF FF  mov         byte ptr [ebp+FFFFFF70h],4
            04
  0040B199: E9 0C 02 00 00     jmp         0040B3AA
  0040B19E: DD D8              fstp        st(0)
  0040B1A0: DD D8              fstp        st(0)
  0040B1A2: DB 2D 00 11 41 00  fld         tbyte ptr ds:[00411100h]
  0040B1A8: C6 85 70 FF FF FF  mov         byte ptr [ebp+FFFFFF70h],3
            03
  0040B1AF: C3                 ret
  0040B1B0: 0A C9              or          cl,cl
  0040B1B2: 75 AF              jne         0040B163
  0040B1B4: DD D8              fstp        st(0)
  0040B1B6: DB 2D 00 11 41 00  fld         tbyte ptr ds:[00411100h]
  0040B1BC: C3                 ret
  0040B1BD: D9 C0              fld         st(0)
  0040B1BF: D9 E1              fabs
  0040B1C1: DB 2D 1E 11 41 00  fld         tbyte ptr ds:[0041111Eh]
  0040B1C7: DE D9              fcompp
  0040B1C9: 9B                 wait
  0040B1CA: DD BD 60 FF FF FF  fnstsw      word ptr [ebp+FFFFFF60h]
  0040B1D0: 9B                 wait
  0040B1D1: F6 85 61 FF FF FF  test        byte ptr [ebp+FFFFFF61h],41h
            41
  0040B1D8: 75 95              jne         0040B16F
  0040B1DA: D9 C0              fld         st(0)
  0040B1DC: D9 FC              frndint
  0040B1DE: D9 E4              ftst
  0040B1E0: 9B                 wait
  0040B1E1: DD BD 60 FF FF FF  fnstsw      word ptr [ebp+FFFFFF60h]
  0040B1E7: 9B                 wait
  0040B1E8: 8A 95 61 FF FF FF  mov         dl,byte ptr [ebp+FFFFFF61h]
  0040B1EE: D9 C9              fxch        st(1)
  0040B1F0: D8 E1              fsub        st,st(1)
  0040B1F2: D9 E4              ftst
  0040B1F4: 9B                 wait
  0040B1F5: DD BD 60 FF FF FF  fnstsw      word ptr [ebp+FFFFFF60h]
  0040B1FB: D9 E1              fabs
  0040B1FD: D9 F0              f2xm1
  0040B1FF: C3                 ret
  0040B200: D9 C0              fld         st(0)
  0040B202: D9 FC              frndint
  0040B204: D8 D9              fcomp       st(1)
  0040B206: 9B                 wait
  0040B207: DF E0              fnstsw      ax
  0040B209: 9E                 sahf
  0040B20A: 75 1A              jne         0040B226
  0040B20C: D9 C0              fld         st(0)
  0040B20E: DC 0D 32 11 41 00  fmul        qword ptr ds:[00411132h]
  0040B214: D9 C0              fld         st(0)
  0040B216: D9 FC              frndint
  0040B218: DE D9              fcompp
  0040B21A: 9B                 wait
  0040B21B: DF E0              fnstsw      ax
  0040B21D: 9E                 sahf
  0040B21E: 74 0D              je          0040B22D
  0040B220: B8 01 00 00 00     mov         eax,1
  0040B225: C3                 ret
  0040B226: B8 00 00 00 00     mov         eax,0
  0040B22B: EB F8              jmp         0040B225
  0040B22D: B8 02 00 00 00     mov         eax,2
  0040B232: EB F1              jmp         0040B225
  0040B234: 56                 push        esi
  0040B235: 83 EC 74           sub         esp,74h
  0040B238: 8B F4              mov         esi,esp
  0040B23A: 56                 push        esi
  0040B23B: 83 EC 08           sub         esp,8
  0040B23E: DD 1C 24           fstp        qword ptr [esp]
  0040B241: 83 EC 08           sub         esp,8
  0040B244: DD 1C 24           fstp        qword ptr [esp]
  0040B247: 9B                 wait
  0040B248: DD 76 08           fnsave      [esi+8]
  0040B24B: E8 74 07 00 00     call        0040B9C4
  0040B250: 83 C4 14           add         esp,14h
  0040B253: DD 66 08           frstor      [esi+8]
  0040B256: DD 06              fld         qword ptr [esi]
  0040B258: 83 C4 74           add         esp,74h
  0040B25B: 5E                 pop         esi
  0040B25C: 85 C0              test        eax,eax
  0040B25E: 74 05              je          0040B265
  0040B260: E9 2E 02 00 00     jmp         0040B493
  0040B265: C3                 ret
  0040B266: CC                 int         3
  0040B267: CC                 int         3
  0040B268: CC                 int         3
  0040B269: CC                 int         3
  0040B26A: CC                 int         3
  0040B26B: CC                 int         3
  0040B26C: CC                 int         3
  0040B26D: CC                 int         3
  0040B26E: CC                 int         3
  0040B26F: CC                 int         3
  0040B270: 80 7A 0E 05        cmp         byte ptr [edx+0Eh],5
  0040B274: 75 11              jne         0040B287
  0040B276: 66 8B 9D 5C FF FF  mov         bx,word ptr [ebp+FFFFFF5Ch]
            FF
  0040B27D: 80 CF 02           or          bh,2
  0040B280: 80 E7 FE           and         bh,0FEh
  0040B283: B3 3F              mov         bl,3Fh
  0040B285: EB 04              jmp         0040B28B
  0040B287: 66 BB 3F 13        mov         bx,133Fh
  0040B28B: 66 89 9D 5E FF FF  mov         word ptr [ebp+FFFFFF5Eh],bx
            FF
  0040B292: D9 AD 5E FF FF FF  fldcw       word ptr [ebp+FFFFFF5Eh]
  0040B298: BB 8E 11 41 00     mov         ebx,41118Eh
  0040B29D: D9 E5              fxam
  0040B29F: 89 95 6C FF FF FF  mov         dword ptr [ebp+FFFFFF6Ch],edx
  0040B2A5: 9B                 wait
  0040B2A6: DD BD 60 FF FF FF  fnstsw      word ptr [ebp+FFFFFF60h]
  0040B2AC: C6 85 70 FF FF FF  mov         byte ptr [ebp+FFFFFF70h],0
            00
  0040B2B3: 9B                 wait
  0040B2B4: 8A 8D 61 FF FF FF  mov         cl,byte ptr [ebp+FFFFFF61h]
  0040B2BA: D0 E1              shl         cl,1
  0040B2BC: D0 F9              sar         cl,1
  0040B2BE: D0 C1              rol         cl,1
  0040B2C0: 8A C1              mov         al,cl
  0040B2C2: 24 0F              and         al,0Fh
  0040B2C4: D7                 xlat        byte ptr [ebx]
  0040B2C5: 0F BE C0           movsx       eax,al
  0040B2C8: 81 E1 04 04 00 00  and         ecx,404h
  0040B2CE: 8B DA              mov         ebx,edx
  0040B2D0: 03 D8              add         ebx,eax
  0040B2D2: 83 C3 10           add         ebx,10h
  0040B2D5: 50                 push        eax
  0040B2D6: 52                 push        edx
  0040B2D7: 51                 push        ecx
  0040B2D8: 8B 0B              mov         ecx,dword ptr [ebx]
  0040B2DA: FF 15 08 D1 40 00  call        dword ptr ds:[0040D108h]
  0040B2E0: 59                 pop         ecx
  0040B2E1: 5A                 pop         edx
  0040B2E2: 58                 pop         eax
  0040B2E3: FF 23              jmp         dword ptr [ebx]
  0040B2E5: 80 7A 0E 05        cmp         byte ptr [edx+0Eh],5
  0040B2E9: 75 11              jne         0040B2FC
  0040B2EB: 66 8B 9D 5C FF FF  mov         bx,word ptr [ebp+FFFFFF5Ch]
            FF
  0040B2F2: 80 CF 02           or          bh,2
  0040B2F5: 80 E7 FE           and         bh,0FEh
  0040B2F8: B3 3F              mov         bl,3Fh
  0040B2FA: EB 04              jmp         0040B300
  0040B2FC: 66 BB 3F 13        mov         bx,133Fh
  0040B300: 66 89 9D 5E FF FF  mov         word ptr [ebp+FFFFFF5Eh],bx
            FF
  0040B307: D9 AD 5E FF FF FF  fldcw       word ptr [ebp+FFFFFF5Eh]
  0040B30D: BB 8E 11 41 00     mov         ebx,41118Eh
  0040B312: D9 E5              fxam
  0040B314: 89 95 6C FF FF FF  mov         dword ptr [ebp+FFFFFF6Ch],edx
  0040B31A: 9B                 wait
  0040B31B: DD BD 60 FF FF FF  fnstsw      word ptr [ebp+FFFFFF60h]
  0040B321: C6 85 70 FF FF FF  mov         byte ptr [ebp+FFFFFF70h],0
            00
  0040B328: D9 C9              fxch        st(1)
  0040B32A: 8A 8D 61 FF FF FF  mov         cl,byte ptr [ebp+FFFFFF61h]
  0040B330: D9 E5              fxam
  0040B332: 9B                 wait
  0040B333: DD BD 60 FF FF FF  fnstsw      word ptr [ebp+FFFFFF60h]
  0040B339: D9 C9              fxch        st(1)
  0040B33B: 8A AD 61 FF FF FF  mov         ch,byte ptr [ebp+FFFFFF61h]
  0040B341: D0 E5              shl         ch,1
  0040B343: D0 FD              sar         ch,1
  0040B345: D0 C5              rol         ch,1
  0040B347: 8A C5              mov         al,ch
  0040B349: 24 0F              and         al,0Fh
  0040B34B: D7                 xlat        byte ptr [ebx]
  0040B34C: 8A E0              mov         ah,al
  0040B34E: D0 E1              shl         cl,1
  0040B350: D0 F9              sar         cl,1
  0040B352: D0 C1              rol         cl,1
  0040B354: 8A C1              mov         al,cl
  0040B356: 24 0F              and         al,0Fh
  0040B358: D7                 xlat        byte ptr [ebx]
  0040B359: D0 E4              shl         ah,1
  0040B35B: D0 E4              shl         ah,1
  0040B35D: 0A C4              or          al,ah
  0040B35F: 0F BE C0           movsx       eax,al
  0040B362: 81 E1 04 04 00 00  and         ecx,404h
  0040B368: 8B DA              mov         ebx,edx
  0040B36A: 03 D8              add         ebx,eax
  0040B36C: 83 C3 10           add         ebx,10h
  0040B36F: 50                 push        eax
  0040B370: 52                 push        edx
  0040B371: 51                 push        ecx
  0040B372: 8B 0B              mov         ecx,dword ptr [ebx]
  0040B374: FF 15 08 D1 40 00  call        dword ptr ds:[0040D108h]
  0040B37A: 59                 pop         ecx
  0040B37B: 5A                 pop         edx
  0040B37C: 58                 pop         eax
  0040B37D: FF 23              jmp         dword ptr [ebx]
  0040B37F: E8 0F 01 00 00     call        0040B493
  0040B384: D9 C9              fxch        st(1)
  0040B386: 8D A4 24 00 00 00  lea         esp,[esp+00000000h]
            00
  0040B38D: 8D 49 00           lea         ecx,[ecx]
  0040B390: DD D8              fstp        st(0)
  0040B392: 8D A4 24 00 00 00  lea         esp,[esp+00000000h]
            00
  0040B399: 8D A4 24 00 00 00  lea         esp,[esp+00000000h]
            00
  0040B3A0: C3                 ret
  0040B3A1: E8 ED 00 00 00     call        0040B493
  0040B3A6: EB E8              jmp         0040B390
  0040B3A8: DD D8              fstp        st(0)
  0040B3AA: DD D8              fstp        st(0)
  0040B3AC: D9 EE              fldz
  0040B3AE: C3                 ret
  0040B3AF: 90                 nop
  0040B3B0: DD D8              fstp        st(0)
  0040B3B2: DD D8              fstp        st(0)
  0040B3B4: D9 EE              fldz
  0040B3B6: 84 ED              test        ch,ch
  0040B3B8: 74 02              je          0040B3BC
  0040B3BA: D9 E0              fchs
  0040B3BC: C3                 ret
  0040B3BD: DD D8              fstp        st(0)
  0040B3BF: 90                 nop
  0040B3C0: DD D8              fstp        st(0)
  0040B3C2: D9 E8              fld1
  0040B3C4: C3                 ret
  0040B3C5: 8D A4 24 00 00 00  lea         esp,[esp+00000000h]
            00
  0040B3CC: 8D 64 24 00        lea         esp,[esp]
  0040B3D0: DB BD 62 FF FF FF  fstp        tbyte ptr [ebp+FFFFFF62h]
  0040B3D6: DB AD 62 FF FF FF  fld         tbyte ptr [ebp+FFFFFF62h]
  0040B3DC: F6 85 69 FF FF FF  test        byte ptr [ebp+FFFFFF69h],40h
            40
  0040B3E3: 74 08              je          0040B3ED
  0040B3E5: C6 85 70 FF FF FF  mov         byte ptr [ebp+FFFFFF70h],0
            00
  0040B3EC: C3                 ret
  0040B3ED: C6 85 70 FF FF FF  mov         byte ptr [ebp+FFFFFF70h],0
            00
  0040B3F4: DC 05 7E 11 41 00  fadd        qword ptr ds:[0041117Eh]
  0040B3FA: C3                 ret
  0040B3FB: EB 03              jmp         0040B400
  0040B3FD: CC                 int         3
  0040B3FE: CC                 int         3
  0040B3FF: CC                 int         3
  0040B400: D9 C9              fxch        st(1)
  0040B402: 8D A4 24 00 00 00  lea         esp,[esp+00000000h]
            00
  0040B409: 8D A4 24 00 00 00  lea         esp,[esp+00000000h]
            00
  0040B410: DB BD 62 FF FF FF  fstp        tbyte ptr [ebp+FFFFFF62h]
  0040B416: DB AD 62 FF FF FF  fld         tbyte ptr [ebp+FFFFFF62h]
  0040B41C: F6 85 69 FF FF FF  test        byte ptr [ebp+FFFFFF69h],40h
            40
  0040B423: 74 09              je          0040B42E
  0040B425: C6 85 70 FF FF FF  mov         byte ptr [ebp+FFFFFF70h],0
            00
  0040B42C: EB 07              jmp         0040B435
  0040B42E: C6 85 70 FF FF FF  mov         byte ptr [ebp+FFFFFF70h],0
            00
  0040B435: DE C1              faddp       st(1),st
  0040B437: C3                 ret
  0040B438: 8D A4 24 00 00 00  lea         esp,[esp+00000000h]
            00
  0040B43F: 90                 nop
  0040B440: DB BD 62 FF FF FF  fstp        tbyte ptr [ebp+FFFFFF62h]
  0040B446: DB AD 62 FF FF FF  fld         tbyte ptr [ebp+FFFFFF62h]
  0040B44C: F6 85 69 FF FF FF  test        byte ptr [ebp+FFFFFF69h],40h
            40
  0040B453: 74 20              je          0040B475
  0040B455: D9 C9              fxch        st(1)
  0040B457: DB BD 62 FF FF FF  fstp        tbyte ptr [ebp+FFFFFF62h]
  0040B45D: DB AD 62 FF FF FF  fld         tbyte ptr [ebp+FFFFFF62h]
  0040B463: F6 85 69 FF FF FF  test        byte ptr [ebp+FFFFFF69h],40h
            40
  0040B46A: 74 09              je          0040B475
  0040B46C: C6 85 70 FF FF FF  mov         byte ptr [ebp+FFFFFF70h],0
            00
  0040B473: EB 07              jmp         0040B47C
  0040B475: C6 85 70 FF FF FF  mov         byte ptr [ebp+FFFFFF70h],1
            01
  0040B47C: DE C1              faddp       st(1),st
  0040B47E: C3                 ret
  0040B47F: 90                 nop
  0040B480: DD D8              fstp        st(0)
  0040B482: DD D8              fstp        st(0)
  0040B484: DB 2D 60 11 41 00  fld         tbyte ptr ds:[00411160h]
  0040B48A: 80 BD 70 FF FF FF  cmp         byte ptr [ebp+FFFFFF70h],0
            00
  0040B491: 7F 07              jg          0040B49A
  0040B493: C6 85 70 FF FF FF  mov         byte ptr [ebp+FFFFFF70h],1
            01
  0040B49A: 0A C9              or          cl,cl
  0040B49C: C3                 ret
  0040B49D: 8D 49 00           lea         ecx,[ecx]
  0040B4A0: DD D8              fstp        st(0)
  0040B4A2: DD D8              fstp        st(0)
  0040B4A4: DB 2D 74 11 41 00  fld         tbyte ptr ds:[00411174h]
  0040B4AA: 0A ED              or          ch,ch
  0040B4AC: 74 02              je          0040B4B0
  0040B4AE: D9 E0              fchs
  0040B4B0: 0A C9              or          cl,cl
  0040B4B2: 74 08              je          0040B4BC
  0040B4B4: DD 05 86 11 41 00  fld         qword ptr ds:[00411186h]
  0040B4BA: DE C9              fmulp       st(1),st
  0040B4BC: C3                 ret
  0040B4BD: 0A C9              or          cl,cl
  0040B4BF: 74 02              je          0040B4C3
  0040B4C1: D9 E0              fchs
  0040B4C3: C3                 ret
  0040B4C4: CC                 int         3
  0040B4C5: CC                 int         3
  0040B4C6: CC                 int         3
  0040B4C7: CC                 int         3
  0040B4C8: CC                 int         3
  0040B4C9: CC                 int         3
  0040B4CA: CC                 int         3
  0040B4CB: CC                 int         3
  0040B4CC: CC                 int         3
  0040B4CD: CC                 int         3
  0040B4CE: CC                 int         3
  0040B4CF: CC                 int         3
  0040B4D0: D9 C0              fld         st(0)
  0040B4D2: D9 FC              frndint
  0040B4D4: DC E1              fsubr       st(1),st
  0040B4D6: D9 C9              fxch        st(1)
  0040B4D8: D9 E0              fchs
  0040B4DA: D9 F0              f2xm1
  0040B4DC: D9 E8              fld1
  0040B4DE: DE C1              faddp       st(1),st
  0040B4E0: D9 FD              fscale
  0040B4E2: DD D9              fstp        st(1)
  0040B4E4: C3                 ret
  0040B4E5: 8B 54 24 04        mov         edx,dword ptr [esp+4]
  0040B4E9: 81 E2 00 03 00 00  and         edx,300h
  0040B4EF: 83 CA 7F           or          edx,7Fh
  0040B4F2: 66 89 54 24 06     mov         word ptr [esp+6],dx
  0040B4F7: D9 6C 24 06        fldcw       word ptr [esp+6]
  0040B4FB: C3                 ret
  0040B4FC: A9 00 00 08 00     test        eax,80000h
  0040B501: 74 06              je          0040B509
  0040B503: B8 00 00 00 00     mov         eax,0
  0040B508: C3                 ret
  0040B509: DC 05 A0 11 41 00  fadd        qword ptr ds:[004111A0h]
  0040B50F: B8 00 00 00 00     mov         eax,0
  0040B514: C3                 ret
  0040B515: 8B 42 04           mov         eax,dword ptr [edx+4]
  0040B518: 25 00 00 F0 7F     and         eax,7FF00000h
  0040B51D: 3D 00 00 F0 7F     cmp         eax,7FF00000h
  0040B522: 74 03              je          0040B527
  0040B524: DD 02              fld         qword ptr [edx]
  0040B526: C3                 ret
  0040B527: 8B 42 04           mov         eax,dword ptr [edx+4]
  0040B52A: 83 EC 0A           sub         esp,0Ah
  0040B52D: 0D 00 00 FF 7F     or          eax,7FFF0000h
  0040B532: 89 44 24 06        mov         dword ptr [esp+6],eax
  0040B536: 8B 42 04           mov         eax,dword ptr [edx+4]
  0040B539: 8B 0A              mov         ecx,dword ptr [edx]
  0040B53B: 0F A4 C8 0B        shld        eax,ecx,0Bh
  0040B53F: C1 E1 0B           shl         ecx,0Bh
  0040B542: 89 44 24 04        mov         dword ptr [esp+4],eax
  0040B546: 89 0C 24           mov         dword ptr [esp],ecx
  0040B549: DB 2C 24           fld         tbyte ptr [esp]
  0040B54C: 83 C4 0A           add         esp,0Ah
  0040B54F: A9 00 00 00 00     test        eax,0
  0040B554: 8B 42 04           mov         eax,dword ptr [edx+4]
  0040B557: C3                 ret
  0040B558: 8B 44 24 08        mov         eax,dword ptr [esp+8]
  0040B55C: 25 00 00 F0 7F     and         eax,7FF00000h
  0040B561: 3D 00 00 F0 7F     cmp         eax,7FF00000h
  0040B566: 74 01              je          0040B569
  0040B568: C3                 ret
  0040B569: 8B 44 24 08        mov         eax,dword ptr [esp+8]
  0040B56D: C3                 ret
  0040B56E: 66 81 3C 24 7F 02  cmp         word ptr [esp],27Fh
  0040B574: 74 03              je          0040B579
  0040B576: D9 2C 24           fldcw       word ptr [esp]
  0040B579: 5A                 pop         edx
  0040B57A: C3                 ret
  0040B57B: 66 8B 04 24        mov         ax,word ptr [esp]
  0040B57F: 66 3D 7F 02        cmp         ax,27Fh
  0040B583: 74 1E              je          0040B5A3
  0040B585: 66 83 E0 20        and         ax,20h
  0040B589: 74 15              je          0040B5A0
  0040B58B: 9B                 wait
  0040B58C: DF E0              fnstsw      ax
  0040B58E: 66 83 E0 20        and         ax,20h
  0040B592: 74 0C              je          0040B5A0
  0040B594: B8 08 00 00 00     mov         eax,8
  0040B599: E8 D9 00 00 00     call        0040B677
  0040B59E: 5A                 pop         edx
  0040B59F: C3                 ret
  0040B5A0: D9 2C 24           fldcw       word ptr [esp]
  0040B5A3: 5A                 pop         edx
  0040B5A4: C3                 ret
  0040B5A5: 83 EC 08           sub         esp,8
  0040B5A8: DD 14 24           fst         qword ptr [esp]
  0040B5AB: 8B 44 24 04        mov         eax,dword ptr [esp+4]
  0040B5AF: 83 C4 08           add         esp,8
  0040B5B2: 25 00 00 F0 7F     and         eax,7FF00000h
  0040B5B7: EB 14              jmp         0040B5CD
  0040B5B9: 83 EC 08           sub         esp,8
  0040B5BC: DD 14 24           fst         qword ptr [esp]
  0040B5BF: 8B 44 24 04        mov         eax,dword ptr [esp+4]
  0040B5C3: 83 C4 08           add         esp,8
  0040B5C6: 25 00 00 F0 7F     and         eax,7FF00000h
  0040B5CB: 74 3D              je          0040B60A
  0040B5CD: 3D 00 00 F0 7F     cmp         eax,7FF00000h
  0040B5D2: 74 5F              je          0040B633
  0040B5D4: 66 8B 04 24        mov         ax,word ptr [esp]
  0040B5D8: 66 3D 7F 02        cmp         ax,27Fh
  0040B5DC: 74 2A              je          0040B608
  0040B5DE: 66 83 E0 20        and         ax,20h
  0040B5E2: 75 21              jne         0040B605
  0040B5E4: 9B                 wait
  0040B5E5: DF E0              fnstsw      ax
  0040B5E7: 66 83 E0 20        and         ax,20h
  0040B5EB: 74 18              je          0040B605
  0040B5ED: B8 08 00 00 00     mov         eax,8
  0040B5F2: 83 FA 1D           cmp         edx,1Dh
  0040B5F5: 74 07              je          0040B5FE
  0040B5F7: E8 7B 00 00 00     call        0040B677
  0040B5FC: 5A                 pop         edx
  0040B5FD: C3                 ret
  0040B5FE: E8 5D 00 00 00     call        0040B660
  0040B603: 5A                 pop         edx
  0040B604: C3                 ret
  0040B605: D9 2C 24           fldcw       word ptr [esp]
  0040B608: 5A                 pop         edx
  0040B609: C3                 ret
  0040B60A: DD 05 CC 11 41 00  fld         qword ptr ds:[004111CCh]
  0040B610: D9 C9              fxch        st(1)
  0040B612: D9 FD              fscale
  0040B614: DD D9              fstp        st(1)
  0040B616: D9 C0              fld         st(0)
  0040B618: D9 E1              fabs
  0040B61A: DC 1D BC 11 41 00  fcomp       qword ptr ds:[004111BCh]
  0040B620: 9B                 wait
  0040B621: DF E0              fnstsw      ax
  0040B623: 9E                 sahf
  0040B624: B8 04 00 00 00     mov         eax,4
  0040B629: 73 C7              jae         0040B5F2
  0040B62B: DC 0D DC 11 41 00  fmul        qword ptr ds:[004111DCh]
  0040B631: EB BF              jmp         0040B5F2
  0040B633: DD 05 C4 11 41 00  fld         qword ptr ds:[004111C4h]
  0040B639: D9 C9              fxch        st(1)
  0040B63B: D9 FD              fscale
  0040B63D: DD D9              fstp        st(1)
  0040B63F: D9 C0              fld         st(0)
  0040B641: D9 E1              fabs
  0040B643: DC 1D B4 11 41 00  fcomp       qword ptr ds:[004111B4h]
  0040B649: 9B                 wait
  0040B64A: DF E0              fnstsw      ax
  0040B64C: 9E                 sahf
  0040B64D: B8 03 00 00 00     mov         eax,3
  0040B652: 76 9E              jbe         0040B5F2
  0040B654: DC 0D D4 11 41 00  fmul        qword ptr ds:[004111D4h]
  0040B65A: EB 96              jmp         0040B5F2
  0040B65C: CC                 int         3
  0040B65D: CC                 int         3
  0040B65E: CC                 int         3
  0040B65F: CC                 int         3
  0040B660: 55                 push        ebp
  0040B661: 8B EC              mov         ebp,esp
  0040B663: 83 C4 E0           add         esp,0FFFFFFE0h
  0040B666: 89 45 E0           mov         dword ptr [ebp-20h],eax
  0040B669: 8B 45 18           mov         eax,dword ptr [ebp+18h]
  0040B66C: 89 45 F0           mov         dword ptr [ebp-10h],eax
  0040B66F: 8B 45 1C           mov         eax,dword ptr [ebp+1Ch]
  0040B672: 89 45 F4           mov         dword ptr [ebp-0Ch],eax
  0040B675: EB 09              jmp         0040B680
  0040B677: 55                 push        ebp
  0040B678: 8B EC              mov         ebp,esp
  0040B67A: 83 C4 E0           add         esp,0FFFFFFE0h
  0040B67D: 89 45 E0           mov         dword ptr [ebp-20h],eax
  0040B680: DD 5D F8           fstp        qword ptr [ebp-8]
  0040B683: 89 4D E4           mov         dword ptr [ebp-1Ch],ecx
  0040B686: 8B 45 10           mov         eax,dword ptr [ebp+10h]
  0040B689: 8B 4D 14           mov         ecx,dword ptr [ebp+14h]
  0040B68C: 89 45 E8           mov         dword ptr [ebp-18h],eax
  0040B68F: 89 4D EC           mov         dword ptr [ebp-14h],ecx
  0040B692: 8D 45 08           lea         eax,[ebp+8]
  0040B695: 8D 4D E0           lea         ecx,[ebp-20h]
  0040B698: 50                 push        eax
  0040B699: 51                 push        ecx
  0040B69A: 52                 push        edx
  0040B69B: E8 4F 04 00 00     call        0040BAEF
  0040B6A0: 83 C4 0C           add         esp,0Ch
  0040B6A3: DD 45 F8           fld         qword ptr [ebp-8]
  0040B6A6: 66 81 7D 08 7F 02  cmp         word ptr [ebp+8],27Fh
  0040B6AC: 74 03              je          0040B6B1
  0040B6AE: D9 6D 08           fldcw       word ptr [ebp+8]
  0040B6B1: C9                 leave
  0040B6B2: C3                 ret
  0040B6B3: 8B FF              mov         edi,edi
  0040B6B5: 55                 push        ebp
  0040B6B6: 8B EC              mov         ebp,esp
  0040B6B8: 83 EC 20           sub         esp,20h
  0040B6BB: 83 3D 94 42 41 00  cmp         dword ptr ds:[00414294h],0
            00
  0040B6C2: 56                 push        esi
  0040B6C3: 57                 push        edi
  0040B6C4: 74 10              je          0040B6D6
  0040B6C6: FF 35 A4 42 41 00  push        dword ptr ds:[004142A4h]
  0040B6CC: FF 15 00 D1 40 00  call        dword ptr ds:[0040D100h]
  0040B6D2: 8B F8              mov         edi,eax
  0040B6D4: EB 05              jmp         0040B6DB
  0040B6D6: BF 47 33 40 00     mov         edi,403347h
  0040B6DB: 8B 45 14           mov         eax,dword ptr [ebp+14h]
  0040B6DE: 83 F8 1A           cmp         eax,1Ah
  0040B6E1: 0F 8F DE 00 00 00  jg          0040B7C5
  0040B6E7: 0F 84 CC 00 00 00  je          0040B7B9
  0040B6ED: 83 F8 0E           cmp         eax,0Eh
  0040B6F0: 7F 65              jg          0040B757
  0040B6F2: 74 50              je          0040B744
  0040B6F4: 6A 02              push        2
  0040B6F6: 59                 pop         ecx
  0040B6F7: 2B C1              sub         eax,ecx
  0040B6F9: 74 3A              je          0040B735
  0040B6FB: 83 E8 01           sub         eax,1
  0040B6FE: 74 29              je          0040B729
  0040B700: 83 E8 05           sub         eax,5
  0040B703: 74 15              je          0040B71A
  0040B705: 83 E8 01           sub         eax,1
  0040B708: 0F 85 95 01 00 00  jne         0040B8A3
  0040B70E: C7 45 E4 E8 11 41  mov         dword ptr [ebp-1Ch],4111E8h
            00
  0040B715: E9 01 01 00 00     jmp         0040B81B
  0040B71A: 89 4D E0           mov         dword ptr [ebp-20h],ecx
  0040B71D: C7 45 E4 E8 11 41  mov         dword ptr [ebp-1Ch],4111E8h
            00
  0040B724: E9 3F 01 00 00     jmp         0040B868
  0040B729: C7 45 E4 E4 11 41  mov         dword ptr [ebp-1Ch],4111E4h
            00
  0040B730: E9 E6 00 00 00     jmp         0040B81B
  0040B735: 89 4D E0           mov         dword ptr [ebp-20h],ecx
  0040B738: C7 45 E4 E4 11 41  mov         dword ptr [ebp-1Ch],4111E4h
            00
  0040B73F: E9 24 01 00 00     jmp         0040B868
  0040B744: C7 45 E0 03 00 00  mov         dword ptr [ebp-20h],3
            00
  0040B74B: C7 45 E4 F0 11 41  mov         dword ptr [ebp-1Ch],4111F0h
            00
  0040B752: E9 11 01 00 00     jmp         0040B868
  0040B757: 83 E8 0F           sub         eax,0Fh
  0040B75A: 74 54              je          0040B7B0
  0040B75C: 83 E8 09           sub         eax,9
  0040B75F: 74 43              je          0040B7A4
  0040B761: 83 E8 01           sub         eax,1
  0040B764: 0F 85 39 01 00 00  jne         0040B8A3
  0040B76A: C7 45 E4 F4 11 41  mov         dword ptr [ebp-1Ch],4111F4h
            00
  0040B771: 8B 45 08           mov         eax,dword ptr [ebp+8]
  0040B774: 8B CF              mov         ecx,edi
  0040B776: 8B 75 10           mov         esi,dword ptr [ebp+10h]
  0040B779: C7 45 E0 04 00 00  mov         dword ptr [ebp-20h],4
            00
  0040B780: DD 00              fld         qword ptr [eax]
  0040B782: 8B 45 0C           mov         eax,dword ptr [ebp+0Ch]
  0040B785: DD 5D E8           fstp        qword ptr [ebp-18h]
  0040B788: DD 00              fld         qword ptr [eax]
  0040B78A: 8D 45 E0           lea         eax,[ebp-20h]
  0040B78D: DD 5D F0           fstp        qword ptr [ebp-10h]
  0040B790: DD 06              fld         qword ptr [esi]
  0040B792: 50                 push        eax
  0040B793: DD 5D F8           fstp        qword ptr [ebp-8]
  0040B796: FF 15 08 D1 40 00  call        dword ptr ds:[0040D108h]
  0040B79C: FF D7              call        edi
  0040B79E: 59                 pop         ecx
  0040B79F: E9 FA 00 00 00     jmp         0040B89E
  0040B7A4: C7 45 E0 03 00 00  mov         dword ptr [ebp-20h],3
            00
  0040B7AB: E9 B1 00 00 00     jmp         0040B861
  0040B7B0: C7 45 E4 F0 11 41  mov         dword ptr [ebp-1Ch],4111F0h
            00
  0040B7B7: EB B8              jmp         0040B771
  0040B7B9: D9 E8              fld1
  0040B7BB: 8B 45 10           mov         eax,dword ptr [ebp+10h]
  0040B7BE: DD 18              fstp        qword ptr [eax]
  0040B7C0: E9 DE 00 00 00     jmp         0040B8A3
  0040B7C5: 83 E8 1B           sub         eax,1Bh
  0040B7C8: 0F 84 8C 00 00 00  je          0040B85A
  0040B7CE: 83 E8 01           sub         eax,1
  0040B7D1: 74 41              je          0040B814
  0040B7D3: 83 E8 15           sub         eax,15h
  0040B7D6: 74 33              je          0040B80B
  0040B7D8: 83 E8 09           sub         eax,9
  0040B7DB: 74 25              je          0040B802
  0040B7DD: 83 E8 03           sub         eax,3
  0040B7E0: 74 17              je          0040B7F9
  0040B7E2: 2D AB 03 00 00     sub         eax,3ABh
  0040B7E7: 74 09              je          0040B7F2
  0040B7E9: 83 E8 01           sub         eax,1
  0040B7EC: 0F 85 B1 00 00 00  jne         0040B8A3
  0040B7F2: 8B 45 08           mov         eax,dword ptr [ebp+8]
  0040B7F5: DD 00              fld         qword ptr [eax]
  0040B7F7: EB C2              jmp         0040B7BB
  0040B7F9: C7 45 E4 F8 11 41  mov         dword ptr [ebp-1Ch],4111F8h
            00
  0040B800: EB 19              jmp         0040B81B
  0040B802: C7 45 E4 00 12 41  mov         dword ptr [ebp-1Ch],411200h
            00
  0040B809: EB 10              jmp         0040B81B
  0040B80B: C7 45 E4 08 12 41  mov         dword ptr [ebp-1Ch],411208h
            00
  0040B812: EB 07              jmp         0040B81B
  0040B814: C7 45 E4 F4 11 41  mov         dword ptr [ebp-1Ch],4111F4h
            00
  0040B81B: 8B 45 08           mov         eax,dword ptr [ebp+8]
  0040B81E: 8B CF              mov         ecx,edi
  0040B820: 8B 75 10           mov         esi,dword ptr [ebp+10h]
  0040B823: C7 45 E0 01 00 00  mov         dword ptr [ebp-20h],1
            00
  0040B82A: DD 00              fld         qword ptr [eax]
  0040B82C: 8B 45 0C           mov         eax,dword ptr [ebp+0Ch]
  0040B82F: DD 5D E8           fstp        qword ptr [ebp-18h]
  0040B832: DD 00              fld         qword ptr [eax]
  0040B834: 8D 45 E0           lea         eax,[ebp-20h]
  0040B837: DD 5D F0           fstp        qword ptr [ebp-10h]
  0040B83A: DD 06              fld         qword ptr [esi]
  0040B83C: 50                 push        eax
  0040B83D: DD 5D F8           fstp        qword ptr [ebp-8]
  0040B840: FF 15 08 D1 40 00  call        dword ptr ds:[0040D108h]
  0040B846: FF D7              call        edi
  0040B848: 59                 pop         ecx
  0040B849: 85 C0              test        eax,eax
  0040B84B: 75 51              jne         0040B89E
  0040B84D: E8 09 95 FF FF     call        00404D5B
  0040B852: C7 00 21 00 00 00  mov         dword ptr [eax],21h
  0040B858: EB 44              jmp         0040B89E
  0040B85A: C7 45 E0 02 00 00  mov         dword ptr [ebp-20h],2
            00
  0040B861: C7 45 E4 F4 11 41  mov         dword ptr [ebp-1Ch],4111F4h
            00
  0040B868: 8B 45 08           mov         eax,dword ptr [ebp+8]
  0040B86B: 8B CF              mov         ecx,edi
  0040B86D: 8B 75 10           mov         esi,dword ptr [ebp+10h]
  0040B870: DD 00              fld         qword ptr [eax]
  0040B872: 8B 45 0C           mov         eax,dword ptr [ebp+0Ch]
  0040B875: DD 5D E8           fstp        qword ptr [ebp-18h]
  0040B878: DD 00              fld         qword ptr [eax]
  0040B87A: 8D 45 E0           lea         eax,[ebp-20h]
  0040B87D: DD 5D F0           fstp        qword ptr [ebp-10h]
  0040B880: DD 06              fld         qword ptr [esi]
  0040B882: 50                 push        eax
  0040B883: DD 5D F8           fstp        qword ptr [ebp-8]
  0040B886: FF 15 08 D1 40 00  call        dword ptr ds:[0040D108h]
  0040B88C: FF D7              call        edi
  0040B88E: 59                 pop         ecx
  0040B88F: 85 C0              test        eax,eax
  0040B891: 75 0B              jne         0040B89E
  0040B893: E8 C3 94 FF FF     call        00404D5B
  0040B898: C7 00 22 00 00 00  mov         dword ptr [eax],22h
  0040B89E: DD 45 F8           fld         qword ptr [ebp-8]
  0040B8A1: DD 1E              fstp        qword ptr [esi]
  0040B8A3: 5F                 pop         edi
  0040B8A4: 5E                 pop         esi
  0040B8A5: C9                 leave
  0040B8A6: C3                 ret
  0040B8A7: 8B FF              mov         edi,edi
  0040B8A9: 55                 push        ebp
  0040B8AA: 8B EC              mov         ebp,esp
  0040B8AC: 51                 push        ecx
  0040B8AD: 51                 push        ecx
  0040B8AE: 53                 push        ebx
  0040B8AF: 56                 push        esi
  0040B8B0: BE FF FF 00 00     mov         esi,0FFFFh
  0040B8B5: 56                 push        esi
  0040B8B6: 68 3F 1B 00 00     push        1B3Fh
  0040B8BB: E8 E1 E5 FF FF     call        00409EA1
  0040B8C0: DD 45 08           fld         qword ptr [ebp+8]
  0040B8C3: 8B D8              mov         ebx,eax
  0040B8C5: 59                 pop         ecx
  0040B8C6: 59                 pop         ecx
  0040B8C7: 0F B7 4D 0E        movzx       ecx,word ptr [ebp+0Eh]
  0040B8CB: B8 F0 7F 00 00     mov         eax,7FF0h
  0040B8D0: 23 C8              and         ecx,eax
  0040B8D2: 51                 push        ecx
  0040B8D3: 51                 push        ecx
  0040B8D4: DD 1C 24           fstp        qword ptr [esp]
  0040B8D7: 66 3B C8           cmp         cx,ax
  0040B8DA: 75 3D              jne         0040B919
  0040B8DC: E8 00 0B 00 00     call        0040C3E1
  0040B8E1: 48                 dec         eax
  0040B8E2: 59                 pop         ecx
  0040B8E3: 59                 pop         ecx
  0040B8E4: 83 F8 02           cmp         eax,2
  0040B8E7: 77 0C              ja          0040B8F5
  0040B8E9: 56                 push        esi
  0040B8EA: 53                 push        ebx
  0040B8EB: E8 B1 E5 FF FF     call        00409EA1
  0040B8F0: DD 45 08           fld         qword ptr [ebp+8]
  0040B8F3: EB 61              jmp         0040B956
  0040B8F5: DD 45 08           fld         qword ptr [ebp+8]
  0040B8F8: DD 05 10 12 41 00  fld         qword ptr ds:[00411210h]
  0040B8FE: 53                 push        ebx
  0040B8FF: 83 EC 10           sub         esp,10h
  0040B902: D8 C1              fadd        st,st(1)
  0040B904: DD 5C 24 08        fstp        qword ptr [esp+8]
  0040B908: DD 1C 24           fstp        qword ptr [esp]
  0040B90B: 6A 0C              push        0Ch
  0040B90D: 6A 08              push        8
  0040B90F: E8 2D 03 00 00     call        0040BC41
  0040B914: 83 C4 1C           add         esp,1Ch
  0040B917: EB 3F              jmp         0040B958
  0040B919: E8 DB 02 00 00     call        0040BBF9
  0040B91E: DD 55 F8           fst         qword ptr [ebp-8]
  0040B921: DD 45 08           fld         qword ptr [ebp+8]
  0040B924: 83 C4 08           add         esp,8
  0040B927: DD E1              fucom       st(1)
  0040B929: DF E0              fnstsw      ax
  0040B92B: F6 C4 44           test        ah,44h
  0040B92E: 7B 18              jnp         0040B948
  0040B930: F6 C3 20           test        bl,20h
  0040B933: 75 13              jne         0040B948
  0040B935: 53                 push        ebx
  0040B936: 83 EC 10           sub         esp,10h
  0040B939: D9 C9              fxch        st(1)
  0040B93B: DD 5C 24 08        fstp        qword ptr [esp+8]
  0040B93F: DD 1C 24           fstp        qword ptr [esp]
  0040B942: 6A 0C              push        0Ch
  0040B944: 6A 10              push        10h
  0040B946: EB C7              jmp         0040B90F
  0040B948: 56                 push        esi
  0040B949: DD D9              fstp        st(1)
  0040B94B: 53                 push        ebx
  0040B94C: DD D8              fstp        st(0)
  0040B94E: E8 4E E5 FF FF     call        00409EA1
  0040B953: DD 45 F8           fld         qword ptr [ebp-8]
  0040B956: 59                 pop         ecx
  0040B957: 59                 pop         ecx
  0040B958: 5E                 pop         esi
  0040B959: 5B                 pop         ebx
  0040B95A: C9                 leave
  0040B95B: C3                 ret
  0040B95C: 8B FF              mov         edi,edi
  0040B95E: 55                 push        ebp
  0040B95F: 8B EC              mov         ebp,esp
  0040B961: 51                 push        ecx
  0040B962: 51                 push        ecx
  0040B963: DD 45 08           fld         qword ptr [ebp+8]
  0040B966: 51                 push        ecx
  0040B967: 51                 push        ecx
  0040B968: DD 1C 24           fstp        qword ptr [esp]
  0040B96B: E8 CF 0A 00 00     call        0040C43F
  0040B970: 59                 pop         ecx
  0040B971: 59                 pop         ecx
  0040B972: A8 90              test        al,90h
  0040B974: 75 4A              jne         0040B9C0
  0040B976: DD 45 08           fld         qword ptr [ebp+8]
  0040B979: 51                 push        ecx
  0040B97A: 51                 push        ecx
  0040B97B: DD 1C 24           fstp        qword ptr [esp]
  0040B97E: E8 76 02 00 00     call        0040BBF9
  0040B983: DD 45 08           fld         qword ptr [ebp+8]
  0040B986: DD E1              fucom       st(1)
  0040B988: DF E0              fnstsw      ax
  0040B98A: 59                 pop         ecx
  0040B98B: 59                 pop         ecx
  0040B98C: DD D9              fstp        st(1)
  0040B98E: F6 C4 44           test        ah,44h
  0040B991: 7A 2B              jp          0040B9BE
  0040B993: DC 0D 40 1A 41 00  fmul        qword ptr ds:[00411A40h]
  0040B999: 51                 push        ecx
  0040B99A: 51                 push        ecx
  0040B99B: DD 55 F8           fst         qword ptr [ebp-8]
  0040B99E: DD 1C 24           fstp        qword ptr [esp]
  0040B9A1: E8 53 02 00 00     call        0040BBF9
  0040B9A6: DD 45 F8           fld         qword ptr [ebp-8]
  0040B9A9: DA E9              fucompp
  0040B9AB: DF E0              fnstsw      ax
  0040B9AD: 59                 pop         ecx
  0040B9AE: 59                 pop         ecx
  0040B9AF: F6 C4 44           test        ah,44h
  0040B9B2: 7A 05              jp          0040B9B9
  0040B9B4: 6A 02              push        2
  0040B9B6: 58                 pop         eax
  0040B9B7: C9                 leave
  0040B9B8: C3                 ret
  0040B9B9: 33 C0              xor         eax,eax
  0040B9BB: 40                 inc         eax
  0040B9BC: C9                 leave
  0040B9BD: C3                 ret
  0040B9BE: DD D8              fstp        st(0)
  0040B9C0: 33 C0              xor         eax,eax
  0040B9C2: C9                 leave
  0040B9C3: C3                 ret
  0040B9C4: 8B FF              mov         edi,edi
  0040B9C6: 55                 push        ebp
  0040B9C7: 8B EC              mov         ebp,esp
  0040B9C9: DD 45 08           fld         qword ptr [ebp+8]
  0040B9CC: B9 00 00 F0 7F     mov         ecx,7FF00000h
  0040B9D1: D9 E1              fabs
  0040B9D3: B8 00 00 F0 FF     mov         eax,0FFF00000h
  0040B9D8: 39 4D 14           cmp         dword ptr [ebp+14h],ecx
  0040B9DB: 75 3B              jne         0040BA18
  0040B9DD: 83 7D 10 00        cmp         dword ptr [ebp+10h],0
  0040B9E1: 75 75              jne         0040BA58
  0040B9E3: D9 E8              fld1
  0040B9E5: D8 D1              fcom        st(1)
  0040B9E7: DF E0              fnstsw      ax
  0040B9E9: F6 C4 05           test        ah,5
  0040B9EC: 7A 0F              jp          0040B9FD
  0040B9EE: DD D9              fstp        st(1)
  0040B9F0: DD D8              fstp        st(0)
  0040B9F2: DD 05 D0 1B 41 00  fld         qword ptr ds:[00411BD0h]
  0040B9F8: E9 E9 00 00 00     jmp         0040BAE6
  0040B9FD: D8 D1              fcom        st(1)
  0040B9FF: DF E0              fnstsw      ax
  0040BA01: DD D9              fstp        st(1)
  0040BA03: F6 C4 41           test        ah,41h
  0040BA06: 8B 45 18           mov         eax,dword ptr [ebp+18h]
  0040BA09: 0F 85 DA 00 00 00  jne         0040BAE9
  0040BA0F: DD D8              fstp        st(0)
  0040BA11: D9 EE              fldz
  0040BA13: E9 D1 00 00 00     jmp         0040BAE9
  0040BA18: 39 45 14           cmp         dword ptr [ebp+14h],eax
  0040BA1B: 75 3B              jne         0040BA58
  0040BA1D: 83 7D 10 00        cmp         dword ptr [ebp+10h],0
  0040BA21: 75 35              jne         0040BA58
  0040BA23: D9 E8              fld1
  0040BA25: D8 D1              fcom        st(1)
  0040BA27: DF E0              fnstsw      ax
  0040BA29: F6 C4 05           test        ah,5
  0040BA2C: 7A 0B              jp          0040BA39
  0040BA2E: DD D9              fstp        st(1)
  0040BA30: DD D8              fstp        st(0)
  0040BA32: D9 EE              fldz
  0040BA34: E9 AD 00 00 00     jmp         0040BAE6
  0040BA39: D8 D1              fcom        st(1)
  0040BA3B: DF E0              fnstsw      ax
  0040BA3D: DD D9              fstp        st(1)
  0040BA3F: F6 C4 41           test        ah,41h
  0040BA42: 8B 45 18           mov         eax,dword ptr [ebp+18h]
  0040BA45: 0F 85 9E 00 00 00  jne         0040BAE9
  0040BA4B: DD D8              fstp        st(0)
  0040BA4D: DD 05 D0 1B 41 00  fld         qword ptr ds:[00411BD0h]
  0040BA53: E9 91 00 00 00     jmp         0040BAE9
  0040BA58: DD D8              fstp        st(0)
  0040BA5A: 39 4D 0C           cmp         dword ptr [ebp+0Ch],ecx
  0040BA5D: 75 2E              jne         0040BA8D
  0040BA5F: 83 7D 08 00        cmp         dword ptr [ebp+8],0
  0040BA63: 0F 85 82 00 00 00  jne         0040BAEB
  0040BA69: D9 EE              fldz
  0040BA6B: DD 45 10           fld         qword ptr [ebp+10h]
  0040BA6E: D8 D1              fcom        st(1)
  0040BA70: DF E0              fnstsw      ax
  0040BA72: F6 C4 41           test        ah,41h
  0040BA75: 0F 84 73 FF FF FF  je          0040B9EE
  0040BA7B: D8 D9              fcomp       st(1)
  0040BA7D: DF E0              fnstsw      ax
  0040BA7F: F6 C4 05           test        ah,5
  0040BA82: 8B 45 18           mov         eax,dword ptr [ebp+18h]
  0040BA85: 7B 62              jnp         0040BAE9
  0040BA87: DD D8              fstp        st(0)
  0040BA89: D9 E8              fld1
  0040BA8B: EB 5C              jmp         0040BAE9
  0040BA8D: 39 45 0C           cmp         dword ptr [ebp+0Ch],eax
  0040BA90: 75 59              jne         0040BAEB
  0040BA92: 83 7D 08 00        cmp         dword ptr [ebp+8],0
  0040BA96: 75 53              jne         0040BAEB
  0040BA98: DD 45 10           fld         qword ptr [ebp+10h]
  0040BA9B: 51                 push        ecx
  0040BA9C: 51                 push        ecx
  0040BA9D: DD 1C 24           fstp        qword ptr [esp]
  0040BAA0: E8 B7 FE FF FF     call        0040B95C
  0040BAA5: D9 EE              fldz
  0040BAA7: DD 45 10           fld         qword ptr [ebp+10h]
  0040BAAA: 59                 pop         ecx
  0040BAAB: 59                 pop         ecx
  0040BAAC: D8 D1              fcom        st(1)
  0040BAAE: 8B C8              mov         ecx,eax
  0040BAB0: DF E0              fnstsw      ax
  0040BAB2: F6 C4 41           test        ah,41h
  0040BAB5: 75 13              jne         0040BACA
  0040BAB7: DD D9              fstp        st(1)
  0040BAB9: DD D8              fstp        st(0)
  0040BABB: DD 05 D0 1B 41 00  fld         qword ptr ds:[00411BD0h]
  0040BAC1: 83 F9 01           cmp         ecx,1
  0040BAC4: 75 20              jne         0040BAE6
  0040BAC6: D9 E0              fchs
  0040BAC8: EB 1C              jmp         0040BAE6
  0040BACA: D8 D9              fcomp       st(1)
  0040BACC: DF E0              fnstsw      ax
  0040BACE: F6 C4 05           test        ah,5
  0040BAD1: 7A 0F              jp          0040BAE2
  0040BAD3: 83 F9 01           cmp         ecx,1
  0040BAD6: 75 0E              jne         0040BAE6
  0040BAD8: DD D8              fstp        st(0)
  0040BADA: DD 05 E0 1B 41 00  fld         qword ptr ds:[00411BE0h]
  0040BAE0: EB 04              jmp         0040BAE6
  0040BAE2: DD D8              fstp        st(0)
  0040BAE4: D9 E8              fld1
  0040BAE6: 8B 45 18           mov         eax,dword ptr [ebp+18h]
  0040BAE9: DD 18              fstp        qword ptr [eax]
  0040BAEB: 33 C0              xor         eax,eax
  0040BAED: 5D                 pop         ebp
  0040BAEE: C3                 ret
  0040BAEF: 8B FF              mov         edi,edi
  0040BAF1: 53                 push        ebx
  0040BAF2: 8B DC              mov         ebx,esp
  0040BAF4: 51                 push        ecx
  0040BAF5: 51                 push        ecx
  0040BAF6: 83 E4 F0           and         esp,0FFFFFFF0h
  0040BAF9: 83 C4 04           add         esp,4
  0040BAFC: 55                 push        ebp
  0040BAFD: 8B 6B 04           mov         ebp,dword ptr [ebx+4]
  0040BB00: 89 6C 24 04        mov         dword ptr [esp+4],ebp
  0040BB04: 8B EC              mov         ebp,esp
  0040BB06: 81 EC 88 00 00 00  sub         esp,88h
  0040BB0C: A1 18 30 41 00     mov         eax,dword ptr ds:[00413018h]
  0040BB11: 33 C5              xor         eax,ebp
  0040BB13: 89 45 FC           mov         dword ptr [ebp-4],eax
  0040BB16: 8B 43 10           mov         eax,dword ptr [ebx+10h]
  0040BB19: 56                 push        esi
  0040BB1A: 8B 73 0C           mov         esi,dword ptr [ebx+0Ch]
  0040BB1D: 57                 push        edi
  0040BB1E: 0F B7 08           movzx       ecx,word ptr [eax]
  0040BB21: 89 8D 7C FF FF FF  mov         dword ptr [ebp+FFFFFF7Ch],ecx
  0040BB27: 8B 06              mov         eax,dword ptr [esi]
  0040BB29: 83 E8 01           sub         eax,1
  0040BB2C: 74 29              je          0040BB57
  0040BB2E: 83 E8 01           sub         eax,1
  0040BB31: 74 20              je          0040BB53
  0040BB33: 83 E8 01           sub         eax,1
  0040BB36: 74 17              je          0040BB4F
  0040BB38: 83 E8 01           sub         eax,1
  0040BB3B: 74 0E              je          0040BB4B
  0040BB3D: 83 E8 01           sub         eax,1
  0040BB40: 74 15              je          0040BB57
  0040BB42: 83 E8 03           sub         eax,3
  0040BB45: 75 6C              jne         0040BBB3
  0040BB47: 6A 10              push        10h
  0040BB49: EB 0E              jmp         0040BB59
  0040BB4B: 6A 12              push        12h
  0040BB4D: EB 0A              jmp         0040BB59
  0040BB4F: 6A 11              push        11h
  0040BB51: EB 06              jmp         0040BB59
  0040BB53: 6A 04              push        4
  0040BB55: EB 02              jmp         0040BB59
  0040BB57: 6A 08              push        8
  0040BB59: 5F                 pop         edi
  0040BB5A: 51                 push        ecx
  0040BB5B: 8D 46 18           lea         eax,[esi+18h]
  0040BB5E: 50                 push        eax
  0040BB5F: 57                 push        edi
  0040BB60: E8 AA 01 00 00     call        0040BD0F
  0040BB65: 83 C4 0C           add         esp,0Ch
  0040BB68: 85 C0              test        eax,eax
  0040BB6A: 75 47              jne         0040BBB3
  0040BB6C: 8B 4B 08           mov         ecx,dword ptr [ebx+8]
  0040BB6F: 83 F9 10           cmp         ecx,10h
  0040BB72: 74 10              je          0040BB84
  0040BB74: 83 F9 16           cmp         ecx,16h
  0040BB77: 74 0B              je          0040BB84
  0040BB79: 83 F9 1D           cmp         ecx,1Dh
  0040BB7C: 74 06              je          0040BB84
  0040BB7E: 83 65 C0 FE        and         dword ptr [ebp-40h],0FFFFFFFEh
  0040BB82: EB 12              jmp         0040BB96
  0040BB84: 8B 45 C0           mov         eax,dword ptr [ebp-40h]
  0040BB87: DD 46 10           fld         qword ptr [esi+10h]
  0040BB8A: 83 E0 E3           and         eax,0FFFFFFE3h
  0040BB8D: 83 C8 03           or          eax,3
  0040BB90: DD 5D B0           fstp        qword ptr [ebp-50h]
  0040BB93: 89 45 C0           mov         dword ptr [ebp-40h],eax
  0040BB96: 8D 46 18           lea         eax,[esi+18h]
  0040BB99: 50                 push        eax
  0040BB9A: 8D 46 08           lea         eax,[esi+8]
  0040BB9D: 50                 push        eax
  0040BB9E: 51                 push        ecx
  0040BB9F: 57                 push        edi
  0040BBA0: 8D 85 7C FF FF FF  lea         eax,[ebp+FFFFFF7Ch]
  0040BBA6: 50                 push        eax
  0040BBA7: 8D 45 80           lea         eax,[ebp-80h]
  0040BBAA: 50                 push        eax
  0040BBAB: E8 4A 03 00 00     call        0040BEFA
  0040BBB0: 83 C4 18           add         esp,18h
  0040BBB3: 68 FF FF 00 00     push        0FFFFh
  0040BBB8: FF B5 7C FF FF FF  push        dword ptr [ebp+FFFFFF7Ch]
  0040BBBE: E8 DE E2 FF FF     call        00409EA1
  0040BBC3: 83 3E 08           cmp         dword ptr [esi],8
  0040BBC6: 59                 pop         ecx
  0040BBC7: 59                 pop         ecx
  0040BBC8: 74 14              je          0040BBDE
  0040BBCA: E8 51 77 FF FF     call        00403320
  0040BBCF: 84 C0              test        al,al
  0040BBD1: 74 0B              je          0040BBDE
  0040BBD3: 56                 push        esi
  0040BBD4: E8 6E 77 FF FF     call        00403347
  0040BBD9: 59                 pop         ecx
  0040BBDA: 85 C0              test        eax,eax
  0040BBDC: 75 08              jne         0040BBE6
  0040BBDE: FF 36              push        dword ptr [esi]
  0040BBE0: E8 2E 06 00 00     call        0040C213
  0040BBE5: 59                 pop         ecx
  0040BBE6: 8B 4D FC           mov         ecx,dword ptr [ebp-4]
  0040BBE9: 5F                 pop         edi
  0040BBEA: 33 CD              xor         ecx,ebp
  0040BBEC: 5E                 pop         esi
  0040BBED: E8 35 5E FF FF     call        00401A27
  0040BBF2: 8B E5              mov         esp,ebp
  0040BBF4: 5D                 pop         ebp
  0040BBF5: 8B E3              mov         esp,ebx
  0040BBF7: 5B                 pop         ebx
  0040BBF8: C3                 ret
  0040BBF9: 8B FF              mov         edi,edi
  0040BBFB: 55                 push        ebp
  0040BBFC: 8B EC              mov         ebp,esp
  0040BBFE: 51                 push        ecx
  0040BBFF: 51                 push        ecx
  0040BC00: DD 45 08           fld         qword ptr [ebp+8]
  0040BC03: D9 FC              frndint
  0040BC05: DD 5D F8           fstp        qword ptr [ebp-8]
  0040BC08: DD 45 F8           fld         qword ptr [ebp-8]
  0040BC0B: C9                 leave
  0040BC0C: C3                 ret
  0040BC0D: 8B FF              mov         edi,edi
  0040BC0F: 55                 push        ebp
  0040BC10: 8B EC              mov         ebp,esp
  0040BC12: 8B 45 08           mov         eax,dword ptr [ebp+8]
  0040BC15: A8 20              test        al,20h
  0040BC17: 74 04              je          0040BC1D
  0040BC19: 6A 05              push        5
  0040BC1B: EB 17              jmp         0040BC34
  0040BC1D: A8 08              test        al,8
  0040BC1F: 74 05              je          0040BC26
  0040BC21: 33 C0              xor         eax,eax
  0040BC23: 40                 inc         eax
  0040BC24: 5D                 pop         ebp
  0040BC25: C3                 ret
  0040BC26: A8 04              test        al,4
  0040BC28: 74 04              je          0040BC2E
  0040BC2A: 6A 02              push        2
  0040BC2C: EB 06              jmp         0040BC34
  0040BC2E: A8 01              test        al,1
  0040BC30: 74 05              je          0040BC37
  0040BC32: 6A 03              push        3
  0040BC34: 58                 pop         eax
  0040BC35: 5D                 pop         ebp
  0040BC36: C3                 ret
  0040BC37: 0F B6 C0           movzx       eax,al
  0040BC3A: 83 E0 02           and         eax,2
  0040BC3D: 03 C0              add         eax,eax
  0040BC3F: 5D                 pop         ebp
  0040BC40: C3                 ret
  0040BC41: 8B FF              mov         edi,edi
  0040BC43: 53                 push        ebx
  0040BC44: 8B DC              mov         ebx,esp
  0040BC46: 51                 push        ecx
  0040BC47: 51                 push        ecx
  0040BC48: 83 E4 F0           and         esp,0FFFFFFF0h
  0040BC4B: 83 C4 04           add         esp,4
  0040BC4E: 55                 push        ebp
  0040BC4F: 8B 6B 04           mov         ebp,dword ptr [ebx+4]
  0040BC52: 89 6C 24 04        mov         dword ptr [esp+4],ebp
  0040BC56: 8B EC              mov         ebp,esp
  0040BC58: 81 EC 88 00 00 00  sub         esp,88h
  0040BC5E: A1 18 30 41 00     mov         eax,dword ptr ds:[00413018h]
  0040BC63: 33 C5              xor         eax,ebp
  0040BC65: 89 45 FC           mov         dword ptr [ebp-4],eax
  0040BC68: 56                 push        esi
  0040BC69: 8B 73 20           mov         esi,dword ptr [ebx+20h]
  0040BC6C: 8D 43 18           lea         eax,[ebx+18h]
  0040BC6F: 57                 push        edi
  0040BC70: 56                 push        esi
  0040BC71: 50                 push        eax
  0040BC72: FF 73 08           push        dword ptr [ebx+8]
  0040BC75: E8 95 00 00 00     call        0040BD0F
  0040BC7A: 83 C4 0C           add         esp,0Ch
  0040BC7D: 85 C0              test        eax,eax
  0040BC7F: 75 26              jne         0040BCA7
  0040BC81: 83 65 C0 FE        and         dword ptr [ebp-40h],0FFFFFFFEh
  0040BC85: 50                 push        eax
  0040BC86: 8D 43 18           lea         eax,[ebx+18h]
  0040BC89: 50                 push        eax
  0040BC8A: 8D 43 10           lea         eax,[ebx+10h]
  0040BC8D: 50                 push        eax
  0040BC8E: FF 73 0C           push        dword ptr [ebx+0Ch]
  0040BC91: 8D 43 20           lea         eax,[ebx+20h]
  0040BC94: FF 73 08           push        dword ptr [ebx+8]
  0040BC97: 50                 push        eax
  0040BC98: 8D 45 80           lea         eax,[ebp-80h]
  0040BC9B: 50                 push        eax
  0040BC9C: E8 7C 02 00 00     call        0040BF1D
  0040BCA1: 8B 73 20           mov         esi,dword ptr [ebx+20h]
  0040BCA4: 83 C4 1C           add         esp,1Ch
  0040BCA7: FF 73 08           push        dword ptr [ebx+8]
  0040BCAA: E8 5E FF FF FF     call        0040BC0D
  0040BCAF: 59                 pop         ecx
  0040BCB0: 8B F8              mov         edi,eax
  0040BCB2: E8 69 76 FF FF     call        00403320
  0040BCB7: 84 C0              test        al,al
  0040BCB9: 74 29              je          0040BCE4
  0040BCBB: 85 FF              test        edi,edi
  0040BCBD: 74 25              je          0040BCE4
  0040BCBF: DD 43 18           fld         qword ptr [ebx+18h]
  0040BCC2: 56                 push        esi
  0040BCC3: 83 EC 18           sub         esp,18h
  0040BCC6: DD 5C 24 10        fstp        qword ptr [esp+10h]
  0040BCCA: D9 EE              fldz
  0040BCCC: DD 5C 24 08        fstp        qword ptr [esp+8]
  0040BCD0: DD 43 10           fld         qword ptr [ebx+10h]
  0040BCD3: DD 1C 24           fstp        qword ptr [esp]
  0040BCD6: FF 73 0C           push        dword ptr [ebx+0Ch]
  0040BCD9: 57                 push        edi
  0040BCDA: E8 63 05 00 00     call        0040C242
  0040BCDF: 83 C4 24           add         esp,24h
  0040BCE2: EB 18              jmp         0040BCFC
  0040BCE4: 57                 push        edi
  0040BCE5: E8 29 05 00 00     call        0040C213
  0040BCEA: C7 04 24 FF FF 00  mov         dword ptr [esp],0FFFFh
            00
  0040BCF1: 56                 push        esi
  0040BCF2: E8 AA E1 FF FF     call        00409EA1
  0040BCF7: DD 43 18           fld         qword ptr [ebx+18h]
  0040BCFA: 59                 pop         ecx
  0040BCFB: 59                 pop         ecx
  0040BCFC: 8B 4D FC           mov         ecx,dword ptr [ebp-4]
  0040BCFF: 5F                 pop         edi
  0040BD00: 33 CD              xor         ecx,ebp
  0040BD02: 5E                 pop         esi
  0040BD03: E8 1F 5D FF FF     call        00401A27
  0040BD08: 8B E5              mov         esp,ebp
  0040BD0A: 5D                 pop         ebp
  0040BD0B: 8B E3              mov         esp,ebx
  0040BD0D: 5B                 pop         ebx
  0040BD0E: C3                 ret
  0040BD0F: 8B FF              mov         edi,edi
  0040BD11: 55                 push        ebp
  0040BD12: 8B EC              mov         ebp,esp
  0040BD14: 83 EC 10           sub         esp,10h
  0040BD17: 53                 push        ebx
  0040BD18: 8B 5D 08           mov         ebx,dword ptr [ebp+8]
  0040BD1B: 56                 push        esi
  0040BD1C: 8B F3              mov         esi,ebx
  0040BD1E: 83 E6 1F           and         esi,1Fh
  0040BD21: F6 C3 08           test        bl,8
  0040BD24: 74 16              je          0040BD3C
  0040BD26: F6 45 10 01        test        byte ptr [ebp+10h],1
  0040BD2A: 74 10              je          0040BD3C
  0040BD2C: 6A 01              push        1
  0040BD2E: E8 98 E1 FF FF     call        00409ECB
  0040BD33: 59                 pop         ecx
  0040BD34: 83 E6 F7           and         esi,0FFFFFFF7h
  0040BD37: E9 9D 01 00 00     jmp         0040BED9
  0040BD3C: 8B C3              mov         eax,ebx
  0040BD3E: 23 45 10           and         eax,dword ptr [ebp+10h]
  0040BD41: A8 04              test        al,4
  0040BD43: 74 10              je          0040BD55
  0040BD45: 6A 04              push        4
  0040BD47: E8 7F E1 FF FF     call        00409ECB
  0040BD4C: 59                 pop         ecx
  0040BD4D: 83 E6 FB           and         esi,0FFFFFFFBh
  0040BD50: E9 84 01 00 00     jmp         0040BED9
  0040BD55: F6 C3 01           test        bl,1
  0040BD58: 0F 84 9A 00 00 00  je          0040BDF8
  0040BD5E: F6 45 10 08        test        byte ptr [ebp+10h],8
  0040BD62: 0F 84 90 00 00 00  je          0040BDF8
  0040BD68: 6A 08              push        8
  0040BD6A: E8 5C E1 FF FF     call        00409ECB
  0040BD6F: 8B 45 10           mov         eax,dword ptr [ebp+10h]
  0040BD72: 59                 pop         ecx
  0040BD73: B9 00 0C 00 00     mov         ecx,0C00h
  0040BD78: 23 C1              and         eax,ecx
  0040BD7A: 74 54              je          0040BDD0
  0040BD7C: 3D 00 04 00 00     cmp         eax,400h
  0040BD81: 74 37              je          0040BDBA
  0040BD83: 3D 00 08 00 00     cmp         eax,800h
  0040BD88: 74 1A              je          0040BDA4
  0040BD8A: 3B C1              cmp         eax,ecx
  0040BD8C: 75 62              jne         0040BDF0
  0040BD8E: 8B 4D 0C           mov         ecx,dword ptr [ebp+0Ch]
  0040BD91: D9 EE              fldz
  0040BD93: DC 19              fcomp       qword ptr [ecx]
  0040BD95: DF E0              fnstsw      ax
  0040BD97: DD 05 D8 1B 41 00  fld         qword ptr ds:[00411BD8h]
  0040BD9D: F6 C4 05           test        ah,5
  0040BDA0: 7B 4C              jnp         0040BDEE
  0040BDA2: EB 48              jmp         0040BDEC
  0040BDA4: 8B 4D 0C           mov         ecx,dword ptr [ebp+0Ch]
  0040BDA7: D9 EE              fldz
  0040BDA9: DC 19              fcomp       qword ptr [ecx]
  0040BDAB: DF E0              fnstsw      ax
  0040BDAD: F6 C4 05           test        ah,5
  0040BDB0: 7B 2C              jnp         0040BDDE
  0040BDB2: DD 05 D8 1B 41 00  fld         qword ptr ds:[00411BD8h]
  0040BDB8: EB 32              jmp         0040BDEC
  0040BDBA: 8B 4D 0C           mov         ecx,dword ptr [ebp+0Ch]
  0040BDBD: D9 EE              fldz
  0040BDBF: DC 19              fcomp       qword ptr [ecx]
  0040BDC1: DF E0              fnstsw      ax
  0040BDC3: F6 C4 05           test        ah,5
  0040BDC6: 7A 1E              jp          0040BDE6
  0040BDC8: DD 05 D8 1B 41 00  fld         qword ptr ds:[00411BD8h]
  0040BDCE: EB 1E              jmp         0040BDEE
  0040BDD0: 8B 4D 0C           mov         ecx,dword ptr [ebp+0Ch]
  0040BDD3: D9 EE              fldz
  0040BDD5: DC 19              fcomp       qword ptr [ecx]
  0040BDD7: DF E0              fnstsw      ax
  0040BDD9: F6 C4 05           test        ah,5
  0040BDDC: 7A 08              jp          0040BDE6
  0040BDDE: DD 05 D0 1B 41 00  fld         qword ptr ds:[00411BD0h]
  0040BDE4: EB 08              jmp         0040BDEE
  0040BDE6: DD 05 D0 1B 41 00  fld         qword ptr ds:[00411BD0h]
  0040BDEC: D9 E0              fchs
  0040BDEE: DD 19              fstp        qword ptr [ecx]
  0040BDF0: 83 E6 FE           and         esi,0FFFFFFFEh
  0040BDF3: E9 E1 00 00 00     jmp         0040BED9
  0040BDF8: F6 C3 02           test        bl,2
  0040BDFB: 0F 84 D8 00 00 00  je          0040BED9
  0040BE01: F6 45 10 10        test        byte ptr [ebp+10h],10h
  0040BE05: 0F 84 CE 00 00 00  je          0040BED9
  0040BE0B: 8B 45 0C           mov         eax,dword ptr [ebp+0Ch]
  0040BE0E: 57                 push        edi
  0040BE0F: 8B FB              mov         edi,ebx
  0040BE11: C1 EF 04           shr         edi,4
  0040BE14: DD 00              fld         qword ptr [eax]
  0040BE16: 83 E7 01           and         edi,1
  0040BE19: D9 EE              fldz
  0040BE1B: DD E9              fucomp      st(1)
  0040BE1D: DF E0              fnstsw      ax
  0040BE1F: F6 C4 44           test        ah,44h
  0040BE22: 0F 8B 9C 00 00 00  jnp         0040BEC4
  0040BE28: 8D 45 FC           lea         eax,[ebp-4]
  0040BE2B: 50                 push        eax
  0040BE2C: 51                 push        ecx
  0040BE2D: 51                 push        ecx
  0040BE2E: DD 1C 24           fstp        qword ptr [esp]
  0040BE31: E8 AC 04 00 00     call        0040C2E2
  0040BE36: 8B 55 FC           mov         edx,dword ptr [ebp-4]
  0040BE39: 83 C4 0C           add         esp,0Ch
  0040BE3C: 81 C2 00 FA FF FF  add         edx,0FFFFFA00h
  0040BE42: DD 55 F0           fst         qword ptr [ebp-10h]
  0040BE45: D9 EE              fldz
  0040BE47: 81 FA CE FB FF FF  cmp         edx,0FFFFFBCEh
  0040BE4D: 7D 07              jge         0040BE56
  0040BE4F: 33 FF              xor         edi,edi
  0040BE51: DE C9              fmulp       st(1),st
  0040BE53: 47                 inc         edi
  0040BE54: EB 67              jmp         0040BEBD
  0040BE56: DE D9              fcompp
  0040BE58: DF E0              fnstsw      ax
  0040BE5A: F6 C4 41           test        ah,41h
  0040BE5D: 75 09              jne         0040BE68
  0040BE5F: C7 45 FC 01 00 00  mov         dword ptr [ebp-4],1
            00
  0040BE66: EB 04              jmp         0040BE6C
  0040BE68: 83 65 FC 00        and         dword ptr [ebp-4],0
  0040BE6C: 8B 45 F6           mov         eax,dword ptr [ebp-0Ah]
  0040BE6F: B9 03 FC FF FF     mov         ecx,0FFFFFC03h
  0040BE74: 83 E0 0F           and         eax,0Fh
  0040BE77: 83 C8 10           or          eax,10h
  0040BE7A: 66 89 45 F6        mov         word ptr [ebp-0Ah],ax
  0040BE7E: 3B D1              cmp         edx,ecx
  0040BE80: 7D 30              jge         0040BEB2
  0040BE82: 8B 45 F0           mov         eax,dword ptr [ebp-10h]
  0040BE85: 2B CA              sub         ecx,edx
  0040BE87: 8B 55 F4           mov         edx,dword ptr [ebp-0Ch]
  0040BE8A: F6 45 F0 01        test        byte ptr [ebp-10h],1
  0040BE8E: 74 05              je          0040BE95
  0040BE90: 85 FF              test        edi,edi
  0040BE92: 75 01              jne         0040BE95
  0040BE94: 47                 inc         edi
  0040BE95: D1 E8              shr         eax,1
  0040BE97: F6 45 F4 01        test        byte ptr [ebp-0Ch],1
  0040BE9B: 89 45 F0           mov         dword ptr [ebp-10h],eax
  0040BE9E: 74 08              je          0040BEA8
  0040BEA0: 0D 00 00 00 80     or          eax,80000000h
  0040BEA5: 89 45 F0           mov         dword ptr [ebp-10h],eax
  0040BEA8: D1 EA              shr         edx,1
  0040BEAA: 89 55 F4           mov         dword ptr [ebp-0Ch],edx
  0040BEAD: 83 E9 01           sub         ecx,1
  0040BEB0: 75 D8              jne         0040BE8A
  0040BEB2: 83 7D FC 00        cmp         dword ptr [ebp-4],0
  0040BEB6: DD 45 F0           fld         qword ptr [ebp-10h]
  0040BEB9: 74 02              je          0040BEBD
  0040BEBB: D9 E0              fchs
  0040BEBD: 8B 45 0C           mov         eax,dword ptr [ebp+0Ch]
  0040BEC0: DD 18              fstp        qword ptr [eax]
  0040BEC2: EB 05              jmp         0040BEC9
  0040BEC4: 33 FF              xor         edi,edi
  0040BEC6: DD D8              fstp        st(0)
  0040BEC8: 47                 inc         edi
  0040BEC9: 85 FF              test        edi,edi
  0040BECB: 5F                 pop         edi
  0040BECC: 74 08              je          0040BED6
  0040BECE: 6A 10              push        10h
  0040BED0: E8 F6 DF FF FF     call        00409ECB
  0040BED5: 59                 pop         ecx
  0040BED6: 83 E6 FD           and         esi,0FFFFFFFDh
  0040BED9: F6 C3 10           test        bl,10h
  0040BEDC: 74 11              je          0040BEEF
  0040BEDE: F6 45 10 20        test        byte ptr [ebp+10h],20h
  0040BEE2: 74 0B              je          0040BEEF
  0040BEE4: 6A 20              push        20h
  0040BEE6: E8 E0 DF FF FF     call        00409ECB
  0040BEEB: 59                 pop         ecx
  0040BEEC: 83 E6 EF           and         esi,0FFFFFFEFh
  0040BEEF: 33 C0              xor         eax,eax
  0040BEF1: 85 F6              test        esi,esi
  0040BEF3: 5E                 pop         esi
  0040BEF4: 0F 94 C0           sete        al
  0040BEF7: 5B                 pop         ebx
  0040BEF8: C9                 leave
  0040BEF9: C3                 ret
  0040BEFA: 8B FF              mov         edi,edi
  0040BEFC: 55                 push        ebp
  0040BEFD: 8B EC              mov         ebp,esp
  0040BEFF: 6A 00              push        0
  0040BF01: FF 75 1C           push        dword ptr [ebp+1Ch]
  0040BF04: FF 75 18           push        dword ptr [ebp+18h]
  0040BF07: FF 75 14           push        dword ptr [ebp+14h]
  0040BF0A: FF 75 10           push        dword ptr [ebp+10h]
  0040BF0D: FF 75 0C           push        dword ptr [ebp+0Ch]
  0040BF10: FF 75 08           push        dword ptr [ebp+8]
  0040BF13: E8 05 00 00 00     call        0040BF1D
  0040BF18: 83 C4 1C           add         esp,1Ch
  0040BF1B: 5D                 pop         ebp
  0040BF1C: C3                 ret
  0040BF1D: 8B FF              mov         edi,edi
  0040BF1F: 55                 push        ebp
  0040BF20: 8B EC              mov         ebp,esp
  0040BF22: 8B 45 08           mov         eax,dword ptr [ebp+8]
  0040BF25: 33 C9              xor         ecx,ecx
  0040BF27: 53                 push        ebx
  0040BF28: 33 DB              xor         ebx,ebx
  0040BF2A: 43                 inc         ebx
  0040BF2B: 89 48 04           mov         dword ptr [eax+4],ecx
  0040BF2E: 8B 45 08           mov         eax,dword ptr [ebp+8]
  0040BF31: 57                 push        edi
  0040BF32: BF 0D 00 00 C0     mov         edi,0C000000Dh
  0040BF37: 89 48 08           mov         dword ptr [eax+8],ecx
  0040BF3A: 8B 45 08           mov         eax,dword ptr [ebp+8]
  0040BF3D: 89 48 0C           mov         dword ptr [eax+0Ch],ecx
  0040BF40: 8B 4D 10           mov         ecx,dword ptr [ebp+10h]
  0040BF43: F6 C1 10           test        cl,10h
  0040BF46: 74 0B              je          0040BF53
  0040BF48: 8B 45 08           mov         eax,dword ptr [ebp+8]
  0040BF4B: BF 8F 00 00 C0     mov         edi,0C000008Fh
  0040BF50: 09 58 04           or          dword ptr [eax+4],ebx
  0040BF53: F6 C1 02           test        cl,2
  0040BF56: 74 0C              je          0040BF64
  0040BF58: 8B 45 08           mov         eax,dword ptr [ebp+8]
  0040BF5B: BF 93 00 00 C0     mov         edi,0C0000093h
  0040BF60: 83 48 04 02        or          dword ptr [eax+4],2
  0040BF64: F6 C1 01           test        cl,1
  0040BF67: 74 0C              je          0040BF75
  0040BF69: 8B 45 08           mov         eax,dword ptr [ebp+8]
  0040BF6C: BF 91 00 00 C0     mov         edi,0C0000091h
  0040BF71: 83 48 04 04        or          dword ptr [eax+4],4
  0040BF75: F6 C1 04           test        cl,4
  0040BF78: 74 0C              je          0040BF86
  0040BF7A: 8B 45 08           mov         eax,dword ptr [ebp+8]
  0040BF7D: BF 8E 00 00 C0     mov         edi,0C000008Eh
  0040BF82: 83 48 04 08        or          dword ptr [eax+4],8
  0040BF86: F6 C1 08           test        cl,8
  0040BF89: 74 0C              je          0040BF97
  0040BF8B: 8B 45 08           mov         eax,dword ptr [ebp+8]
  0040BF8E: BF 90 00 00 C0     mov         edi,0C0000090h
  0040BF93: 83 48 04 10        or          dword ptr [eax+4],10h
  0040BF97: 8B 4D 08           mov         ecx,dword ptr [ebp+8]
  0040BF9A: 56                 push        esi
  0040BF9B: 8B 75 0C           mov         esi,dword ptr [ebp+0Ch]
  0040BF9E: 8B 06              mov         eax,dword ptr [esi]
  0040BFA0: C1 E0 04           shl         eax,4
  0040BFA3: F7 D0              not         eax
  0040BFA5: 33 41 08           xor         eax,dword ptr [ecx+8]
  0040BFA8: 83 E0 10           and         eax,10h
  0040BFAB: 31 41 08           xor         dword ptr [ecx+8],eax
  0040BFAE: 8B 4D 08           mov         ecx,dword ptr [ebp+8]
  0040BFB1: 8B 06              mov         eax,dword ptr [esi]
  0040BFB3: 03 C0              add         eax,eax
  0040BFB5: F7 D0              not         eax
  0040BFB7: 33 41 08           xor         eax,dword ptr [ecx+8]
  0040BFBA: 83 E0 08           and         eax,8
  0040BFBD: 31 41 08           xor         dword ptr [ecx+8],eax
  0040BFC0: 8B 4D 08           mov         ecx,dword ptr [ebp+8]
  0040BFC3: 8B 06              mov         eax,dword ptr [esi]
  0040BFC5: D1 E8              shr         eax,1
  0040BFC7: F7 D0              not         eax
  0040BFC9: 33 41 08           xor         eax,dword ptr [ecx+8]
  0040BFCC: 83 E0 04           and         eax,4
  0040BFCF: 31 41 08           xor         dword ptr [ecx+8],eax
  0040BFD2: 8B 4D 08           mov         ecx,dword ptr [ebp+8]
  0040BFD5: 8B 06              mov         eax,dword ptr [esi]
  0040BFD7: C1 E8 03           shr         eax,3
  0040BFDA: F7 D0              not         eax
  0040BFDC: 33 41 08           xor         eax,dword ptr [ecx+8]
  0040BFDF: 83 E0 02           and         eax,2
  0040BFE2: 31 41 08           xor         dword ptr [ecx+8],eax
  0040BFE5: 8B 06              mov         eax,dword ptr [esi]
  0040BFE7: 8B 4D 08           mov         ecx,dword ptr [ebp+8]
  0040BFEA: C1 E8 05           shr         eax,5
  0040BFED: F7 D0              not         eax
  0040BFEF: 33 41 08           xor         eax,dword ptr [ecx+8]
  0040BFF2: 23 C3              and         eax,ebx
  0040BFF4: 31 41 08           xor         dword ptr [ecx+8],eax
  0040BFF7: E8 28 DF FF FF     call        00409F24
  0040BFFC: 8B D0              mov         edx,eax
  0040BFFE: F6 C2 01           test        dl,1
  0040C001: 74 07              je          0040C00A
  0040C003: 8B 4D 08           mov         ecx,dword ptr [ebp+8]
  0040C006: 83 49 0C 10        or          dword ptr [ecx+0Ch],10h
  0040C00A: F6 C2 04           test        dl,4
  0040C00D: 74 07              je          0040C016
  0040C00F: 8B 45 08           mov         eax,dword ptr [ebp+8]
  0040C012: 83 48 0C 08        or          dword ptr [eax+0Ch],8
  0040C016: F6 C2 08           test        dl,8
  0040C019: 74 07              je          0040C022
  0040C01B: 8B 45 08           mov         eax,dword ptr [ebp+8]
  0040C01E: 83 48 0C 04        or          dword ptr [eax+0Ch],4
  0040C022: F6 C2 10           test        dl,10h
  0040C025: 74 07              je          0040C02E
  0040C027: 8B 45 08           mov         eax,dword ptr [ebp+8]
  0040C02A: 83 48 0C 02        or          dword ptr [eax+0Ch],2
  0040C02E: F6 C2 20           test        dl,20h
  0040C031: 74 06              je          0040C039
  0040C033: 8B 45 08           mov         eax,dword ptr [ebp+8]
  0040C036: 09 58 0C           or          dword ptr [eax+0Ch],ebx
  0040C039: 8B 06              mov         eax,dword ptr [esi]
  0040C03B: B9 00 0C 00 00     mov         ecx,0C00h
  0040C040: 23 C1              and         eax,ecx
  0040C042: 74 35              je          0040C079
  0040C044: 3D 00 04 00 00     cmp         eax,400h
  0040C049: 74 22              je          0040C06D
  0040C04B: 3D 00 08 00 00     cmp         eax,800h
  0040C050: 74 0C              je          0040C05E
  0040C052: 3B C1              cmp         eax,ecx
  0040C054: 75 29              jne         0040C07F
  0040C056: 8B 45 08           mov         eax,dword ptr [ebp+8]
  0040C059: 83 08 03           or          dword ptr [eax],3
  0040C05C: EB 21              jmp         0040C07F
  0040C05E: 8B 4D 08           mov         ecx,dword ptr [ebp+8]
  0040C061: 8B 01              mov         eax,dword ptr [ecx]
  0040C063: 83 E0 FE           and         eax,0FFFFFFFEh
  0040C066: 83 C8 02           or          eax,2
  0040C069: 89 01              mov         dword ptr [ecx],eax
  0040C06B: EB 12              jmp         0040C07F
  0040C06D: 8B 4D 08           mov         ecx,dword ptr [ebp+8]
  0040C070: 8B 01              mov         eax,dword ptr [ecx]
  0040C072: 83 E0 FD           and         eax,0FFFFFFFDh
  0040C075: 0B C3              or          eax,ebx
  0040C077: EB F0              jmp         0040C069
  0040C079: 8B 45 08           mov         eax,dword ptr [ebp+8]
  0040C07C: 83 20 FC           and         dword ptr [eax],0FFFFFFFCh
  0040C07F: 8B 06              mov         eax,dword ptr [esi]
  0040C081: B9 00 03 00 00     mov         ecx,300h
  0040C086: 23 C1              and         eax,ecx
  0040C088: 74 20              je          0040C0AA
  0040C08A: 3D 00 02 00 00     cmp         eax,200h
  0040C08F: 74 0C              je          0040C09D
  0040C091: 3B C1              cmp         eax,ecx
  0040C093: 75 22              jne         0040C0B7
  0040C095: 8B 45 08           mov         eax,dword ptr [ebp+8]
  0040C098: 83 20 E3           and         dword ptr [eax],0FFFFFFE3h
  0040C09B: EB 1A              jmp         0040C0B7
  0040C09D: 8B 4D 08           mov         ecx,dword ptr [ebp+8]
  0040C0A0: 8B 01              mov         eax,dword ptr [ecx]
  0040C0A2: 83 E0 E7           and         eax,0FFFFFFE7h
  0040C0A5: 83 C8 04           or          eax,4
  0040C0A8: EB 0B              jmp         0040C0B5
  0040C0AA: 8B 4D 08           mov         ecx,dword ptr [ebp+8]
  0040C0AD: 8B 01              mov         eax,dword ptr [ecx]
  0040C0AF: 83 E0 EB           and         eax,0FFFFFFEBh
  0040C0B2: 83 C8 08           or          eax,8
  0040C0B5: 89 01              mov         dword ptr [ecx],eax
  0040C0B7: 8B 45 08           mov         eax,dword ptr [ebp+8]
  0040C0BA: 8B 4D 14           mov         ecx,dword ptr [ebp+14h]
  0040C0BD: C1 E1 05           shl         ecx,5
  0040C0C0: 33 08              xor         ecx,dword ptr [eax]
  0040C0C2: 81 E1 E0 FF 01 00  and         ecx,1FFE0h
  0040C0C8: 31 08              xor         dword ptr [eax],ecx
  0040C0CA: 8B 45 08           mov         eax,dword ptr [ebp+8]
  0040C0CD: 09 58 20           or          dword ptr [eax+20h],ebx
  0040C0D0: 83 7D 20 00        cmp         dword ptr [ebp+20h],0
  0040C0D4: 74 2C              je          0040C102
  0040C0D6: 8B 45 08           mov         eax,dword ptr [ebp+8]
  0040C0D9: 83 60 20 E1        and         dword ptr [eax+20h],0FFFFFFE1h
  0040C0DD: 8B 45 18           mov         eax,dword ptr [ebp+18h]
  0040C0E0: D9 00              fld         dword ptr [eax]
  0040C0E2: 8B 45 08           mov         eax,dword ptr [ebp+8]
  0040C0E5: D9 58 10           fstp        dword ptr [eax+10h]
  0040C0E8: 8B 45 08           mov         eax,dword ptr [ebp+8]
  0040C0EB: 09 58 60           or          dword ptr [eax+60h],ebx
  0040C0EE: 8B 45 08           mov         eax,dword ptr [ebp+8]
  0040C0F1: 8B 5D 1C           mov         ebx,dword ptr [ebp+1Ch]
  0040C0F4: 83 60 60 E1        and         dword ptr [eax+60h],0FFFFFFE1h
  0040C0F8: 8B 45 08           mov         eax,dword ptr [ebp+8]
  0040C0FB: D9 03              fld         dword ptr [ebx]
  0040C0FD: D9 58 50           fstp        dword ptr [eax+50h]
  0040C100: EB 3A              jmp         0040C13C
  0040C102: 8B 4D 08           mov         ecx,dword ptr [ebp+8]
  0040C105: 8B 41 20           mov         eax,dword ptr [ecx+20h]
  0040C108: 83 E0 E3           and         eax,0FFFFFFE3h
  0040C10B: 83 C8 02           or          eax,2
  0040C10E: 89 41 20           mov         dword ptr [ecx+20h],eax
  0040C111: 8B 45 18           mov         eax,dword ptr [ebp+18h]
  0040C114: DD 00              fld         qword ptr [eax]
  0040C116: 8B 45 08           mov         eax,dword ptr [ebp+8]
  0040C119: DD 58 10           fstp        qword ptr [eax+10h]
  0040C11C: 8B 45 08           mov         eax,dword ptr [ebp+8]
  0040C11F: 09 58 60           or          dword ptr [eax+60h],ebx
  0040C122: 8B 4D 08           mov         ecx,dword ptr [ebp+8]
  0040C125: 8B 5D 1C           mov         ebx,dword ptr [ebp+1Ch]
  0040C128: 8B 41 60           mov         eax,dword ptr [ecx+60h]
  0040C12B: 83 E0 E3           and         eax,0FFFFFFE3h
  0040C12E: 83 C8 02           or          eax,2
  0040C131: 89 41 60           mov         dword ptr [ecx+60h],eax
  0040C134: 8B 45 08           mov         eax,dword ptr [ebp+8]
  0040C137: DD 03              fld         qword ptr [ebx]
  0040C139: DD 58 50           fstp        qword ptr [eax+50h]
  0040C13C: E8 4F DD FF FF     call        00409E90
  0040C141: 8D 45 08           lea         eax,[ebp+8]
  0040C144: 50                 push        eax
  0040C145: 6A 01              push        1
  0040C147: 6A 00              push        0
  0040C149: 57                 push        edi
  0040C14A: FF 15 70 D0 40 00  call        dword ptr ds:[0040D070h]
  0040C150: 8B 4D 08           mov         ecx,dword ptr [ebp+8]
  0040C153: 8B 41 08           mov         eax,dword ptr [ecx+8]
  0040C156: A8 10              test        al,10h
  0040C158: 74 06              je          0040C160
  0040C15A: 83 26 FE           and         dword ptr [esi],0FFFFFFFEh
  0040C15D: 8B 41 08           mov         eax,dword ptr [ecx+8]
  0040C160: A8 08              test        al,8
  0040C162: 74 06              je          0040C16A
  0040C164: 83 26 FB           and         dword ptr [esi],0FFFFFFFBh
  0040C167: 8B 41 08           mov         eax,dword ptr [ecx+8]
  0040C16A: A8 04              test        al,4
  0040C16C: 74 06              je          0040C174
  0040C16E: 83 26 F7           and         dword ptr [esi],0FFFFFFF7h
  0040C171: 8B 41 08           mov         eax,dword ptr [ecx+8]
  0040C174: A8 02              test        al,2
  0040C176: 74 06              je          0040C17E
  0040C178: 83 26 EF           and         dword ptr [esi],0FFFFFFEFh
  0040C17B: 8B 41 08           mov         eax,dword ptr [ecx+8]
  0040C17E: A8 01              test        al,1
  0040C180: 74 03              je          0040C185
  0040C182: 83 26 DF           and         dword ptr [esi],0FFFFFFDFh
  0040C185: 8B 01              mov         eax,dword ptr [ecx]
  0040C187: BA FF F3 FF FF     mov         edx,0FFFFF3FFh
  0040C18C: 83 E0 03           and         eax,3
  0040C18F: 83 E8 00           sub         eax,0
  0040C192: 74 35              je          0040C1C9
  0040C194: 83 E8 01           sub         eax,1
  0040C197: 74 22              je          0040C1BB
  0040C199: 83 E8 01           sub         eax,1
  0040C19C: 74 0D              je          0040C1AB
  0040C19E: 83 E8 01           sub         eax,1
  0040C1A1: 75 28              jne         0040C1CB
  0040C1A3: 81 0E 00 0C 00 00  or          dword ptr [esi],0C00h
  0040C1A9: EB 20              jmp         0040C1CB
  0040C1AB: 8B 06              mov         eax,dword ptr [esi]
  0040C1AD: 25 FF FB FF FF     and         eax,0FFFFFBFFh
  0040C1B2: 0D 00 08 00 00     or          eax,800h
  0040C1B7: 89 06              mov         dword ptr [esi],eax
  0040C1B9: EB 10              jmp         0040C1CB
  0040C1BB: 8B 06              mov         eax,dword ptr [esi]
  0040C1BD: 25 FF F7 FF FF     and         eax,0FFFFF7FFh
  0040C1C2: 0D 00 04 00 00     or          eax,400h
  0040C1C7: EB EE              jmp         0040C1B7
  0040C1C9: 21 16              and         dword ptr [esi],edx
  0040C1CB: 8B 01              mov         eax,dword ptr [ecx]
  0040C1CD: C1 E8 02           shr         eax,2
  0040C1D0: 83 E0 07           and         eax,7
  0040C1D3: 83 E8 00           sub         eax,0
  0040C1D6: 74 19              je          0040C1F1
  0040C1D8: 83 E8 01           sub         eax,1
  0040C1DB: 74 09              je          0040C1E6
  0040C1DD: 83 E8 01           sub         eax,1
  0040C1E0: 75 1A              jne         0040C1FC
  0040C1E2: 21 16              and         dword ptr [esi],edx
  0040C1E4: EB 16              jmp         0040C1FC
  0040C1E6: 8B 06              mov         eax,dword ptr [esi]
  0040C1E8: 23 C2              and         eax,edx
  0040C1EA: 0D 00 02 00 00     or          eax,200h
  0040C1EF: EB 09              jmp         0040C1FA
  0040C1F1: 8B 06              mov         eax,dword ptr [esi]
  0040C1F3: 23 C2              and         eax,edx
  0040C1F5: 0D 00 03 00 00     or          eax,300h
  0040C1FA: 89 06              mov         dword ptr [esi],eax
  0040C1FC: 83 7D 20 00        cmp         dword ptr [ebp+20h],0
  0040C200: 5E                 pop         esi
  0040C201: 74 07              je          0040C20A
  0040C203: D9 41 50           fld         dword ptr [ecx+50h]
  0040C206: D9 1B              fstp        dword ptr [ebx]
  0040C208: EB 05              jmp         0040C20F
  0040C20A: DD 41 50           fld         qword ptr [ecx+50h]
  0040C20D: DD 1B              fstp        qword ptr [ebx]
  0040C20F: 5F                 pop         edi
  0040C210: 5B                 pop         ebx
  0040C211: 5D                 pop         ebp
  0040C212: C3                 ret
  0040C213: 8B FF              mov         edi,edi
  0040C215: 55                 push        ebp
  0040C216: 8B EC              mov         ebp,esp
  0040C218: 8B 45 08           mov         eax,dword ptr [ebp+8]
  0040C21B: 83 F8 01           cmp         eax,1
  0040C21E: 74 15              je          0040C235
  0040C220: 83 C0 FE           add         eax,0FFFFFFFEh
  0040C223: 83 F8 01           cmp         eax,1
  0040C226: 77 18              ja          0040C240
  0040C228: E8 2E 8B FF FF     call        00404D5B
  0040C22D: C7 00 22 00 00 00  mov         dword ptr [eax],22h
  0040C233: 5D                 pop         ebp
  0040C234: C3                 ret
  0040C235: E8 21 8B FF FF     call        00404D5B
  0040C23A: C7 00 21 00 00 00  mov         dword ptr [eax],21h
  0040C240: 5D                 pop         ebp
  0040C241: C3                 ret
  0040C242: 8B FF              mov         edi,edi
  0040C244: 55                 push        ebp
  0040C245: 8B EC              mov         ebp,esp
  0040C247: 8B 55 0C           mov         edx,dword ptr [ebp+0Ch]
  0040C24A: 83 EC 20           sub         esp,20h
  0040C24D: 33 C9              xor         ecx,ecx
  0040C24F: 8B C1              mov         eax,ecx
  0040C251: 39 14 C5 48 1A 41  cmp         dword ptr [eax*8+00411A48h],edx
            00
  0040C258: 74 08              je          0040C262
  0040C25A: 40                 inc         eax
  0040C25B: 83 F8 1D           cmp         eax,1Dh
  0040C25E: 7C F1              jl          0040C251
  0040C260: EB 07              jmp         0040C269
  0040C262: 8B 0C C5 4C 1A 41  mov         ecx,dword ptr [eax*8+00411A4Ch]
            00
  0040C269: 89 4D E4           mov         dword ptr [ebp-1Ch],ecx
  0040C26C: 85 C9              test        ecx,ecx
  0040C26E: 74 55              je          0040C2C5
  0040C270: 8B 45 10           mov         eax,dword ptr [ebp+10h]
  0040C273: 89 45 E8           mov         dword ptr [ebp-18h],eax
  0040C276: 8B 45 14           mov         eax,dword ptr [ebp+14h]
  0040C279: 89 45 EC           mov         dword ptr [ebp-14h],eax
  0040C27C: 8B 45 18           mov         eax,dword ptr [ebp+18h]
  0040C27F: 89 45 F0           mov         dword ptr [ebp-10h],eax
  0040C282: 8B 45 1C           mov         eax,dword ptr [ebp+1Ch]
  0040C285: 56                 push        esi
  0040C286: 8B 75 08           mov         esi,dword ptr [ebp+8]
  0040C289: 89 45 F4           mov         dword ptr [ebp-0Ch],eax
  0040C28C: 8B 45 20           mov         eax,dword ptr [ebp+20h]
  0040C28F: 68 FF FF 00 00     push        0FFFFh
  0040C294: FF 75 28           push        dword ptr [ebp+28h]
  0040C297: 89 45 F8           mov         dword ptr [ebp-8],eax
  0040C29A: 8B 45 24           mov         eax,dword ptr [ebp+24h]
  0040C29D: 89 75 E0           mov         dword ptr [ebp-20h],esi
  0040C2A0: 89 45 FC           mov         dword ptr [ebp-4],eax
  0040C2A3: E8 F9 DB FF FF     call        00409EA1
  0040C2A8: 8D 45 E0           lea         eax,[ebp-20h]
  0040C2AB: 50                 push        eax
  0040C2AC: E8 96 70 FF FF     call        00403347
  0040C2B1: 83 C4 0C           add         esp,0Ch
  0040C2B4: 85 C0              test        eax,eax
  0040C2B6: 75 07              jne         0040C2BF
  0040C2B8: 56                 push        esi
  0040C2B9: E8 55 FF FF FF     call        0040C213
  0040C2BE: 59                 pop         ecx
  0040C2BF: DD 45 F8           fld         qword ptr [ebp-8]
  0040C2C2: 5E                 pop         esi
  0040C2C3: C9                 leave
  0040C2C4: C3                 ret
  0040C2C5: 68 FF FF 00 00     push        0FFFFh
  0040C2CA: FF 75 28           push        dword ptr [ebp+28h]
  0040C2CD: E8 CF DB FF FF     call        00409EA1
  0040C2D2: FF 75 08           push        dword ptr [ebp+8]
  0040C2D5: E8 39 FF FF FF     call        0040C213
  0040C2DA: DD 45 20           fld         qword ptr [ebp+20h]
  0040C2DD: 83 C4 0C           add         esp,0Ch
  0040C2E0: C9                 leave
  0040C2E1: C3                 ret
  0040C2E2: 8B FF              mov         edi,edi
  0040C2E4: 55                 push        ebp
  0040C2E5: 8B EC              mov         ebp,esp
  0040C2E7: DD 45 08           fld         qword ptr [ebp+8]
  0040C2EA: D9 EE              fldz
  0040C2EC: DD E1              fucom       st(1)
  0040C2EE: DF E0              fnstsw      ax
  0040C2F0: 56                 push        esi
  0040C2F1: F6 C4 44           test        ah,44h
  0040C2F4: 7A 09              jp          0040C2FF
  0040C2F6: DD D9              fstp        st(1)
  0040C2F8: 33 F6              xor         esi,esi
  0040C2FA: E9 AD 00 00 00     jmp         0040C3AC
  0040C2FF: 57                 push        edi
  0040C300: 66 8B 7D 0E        mov         di,word ptr [ebp+0Eh]
  0040C304: 0F B7 C7           movzx       eax,di
  0040C307: A9 F0 7F 00 00     test        eax,7FF0h
  0040C30C: 75 7A              jne         0040C388
  0040C30E: 8B 4D 0C           mov         ecx,dword ptr [ebp+0Ch]
  0040C311: 8B 55 08           mov         edx,dword ptr [ebp+8]
  0040C314: F7 C1 FF FF 0F 00  test        ecx,0FFFFFh
  0040C31A: 75 04              jne         0040C320
  0040C31C: 85 D2              test        edx,edx
  0040C31E: 74 68              je          0040C388
  0040C320: DE D9              fcompp
  0040C322: BE 03 FC FF FF     mov         esi,0FFFFFC03h
  0040C327: DF E0              fnstsw      ax
  0040C329: 53                 push        ebx
  0040C32A: 33 DB              xor         ebx,ebx
  0040C32C: F6 C4 41           test        ah,41h
  0040C32F: 75 01              jne         0040C332
  0040C331: 43                 inc         ebx
  0040C332: F6 45 0E 10        test        byte ptr [ebp+0Eh],10h
  0040C336: 75 1F              jne         0040C357
  0040C338: 03 C9              add         ecx,ecx
  0040C33A: 89 4D 0C           mov         dword ptr [ebp+0Ch],ecx
  0040C33D: 85 D2              test        edx,edx
  0040C33F: 79 06              jns         0040C347
  0040C341: 83 C9 01           or          ecx,1
  0040C344: 89 4D 0C           mov         dword ptr [ebp+0Ch],ecx
  0040C347: 03 D2              add         edx,edx
  0040C349: 4E                 dec         esi
  0040C34A: F6 45 0E 10        test        byte ptr [ebp+0Eh],10h
  0040C34E: 74 E8              je          0040C338
  0040C350: 66 8B 7D 0E        mov         di,word ptr [ebp+0Eh]
  0040C354: 89 55 08           mov         dword ptr [ebp+8],edx
  0040C357: B8 EF FF 00 00     mov         eax,0FFEFh
  0040C35C: 66 23 F8           and         di,ax
  0040C35F: 85 DB              test        ebx,ebx
  0040C361: 0F B7 C7           movzx       eax,di
  0040C364: 66 89 7D 0E        mov         word ptr [ebp+0Eh],di
  0040C368: 5B                 pop         ebx
  0040C369: 74 09              je          0040C374
  0040C36B: 0D 00 80 00 00     or          eax,8000h
  0040C370: 66 89 45 0E        mov         word ptr [ebp+0Eh],ax
  0040C374: DD 45 08           fld         qword ptr [ebp+8]
  0040C377: 6A 00              push        0
  0040C379: 51                 push        ecx
  0040C37A: 51                 push        ecx
  0040C37B: DD 1C 24           fstp        qword ptr [esp]
  0040C37E: E8 31 00 00 00     call        0040C3B4
  0040C383: 83 C4 0C           add         esp,0Ch
  0040C386: EB 23              jmp         0040C3AB
  0040C388: 6A 00              push        0
  0040C38A: 51                 push        ecx
  0040C38B: DD D8              fstp        st(0)
  0040C38D: 51                 push        ecx
  0040C38E: DD 1C 24           fstp        qword ptr [esp]
  0040C391: E8 1E 00 00 00     call        0040C3B4
  0040C396: 0F B7 F7           movzx       esi,di
  0040C399: 83 C4 0C           add         esp,0Ch
  0040C39C: C1 EE 04           shr         esi,4
  0040C39F: 81 E6 FF 07 00 00  and         esi,7FFh
  0040C3A5: 81 EE FE 03 00 00  sub         esi,3FEh
  0040C3AB: 5F                 pop         edi
  0040C3AC: 8B 45 10           mov         eax,dword ptr [ebp+10h]
  0040C3AF: 89 30              mov         dword ptr [eax],esi
  0040C3B1: 5E                 pop         esi
  0040C3B2: 5D                 pop         ebp
  0040C3B3: C3                 ret
  0040C3B4: 8B FF              mov         edi,edi
  0040C3B6: 55                 push        ebp
  0040C3B7: 8B EC              mov         ebp,esp
  0040C3B9: 51                 push        ecx
  0040C3BA: 51                 push        ecx
  0040C3BB: 8B 4D 10           mov         ecx,dword ptr [ebp+10h]
  0040C3BE: 0F B7 45 0E        movzx       eax,word ptr [ebp+0Eh]
  0040C3C2: DD 45 08           fld         qword ptr [ebp+8]
  0040C3C5: 25 0F 80 00 00     and         eax,800Fh
  0040C3CA: DD 5D F8           fstp        qword ptr [ebp-8]
  0040C3CD: 8D 89 FE 03 00 00  lea         ecx,[ecx+000003FEh]
  0040C3D3: C1 E1 04           shl         ecx,4
  0040C3D6: 0B C8              or          ecx,eax
  0040C3D8: 66 89 4D FE        mov         word ptr [ebp-2],cx
  0040C3DC: DD 45 F8           fld         qword ptr [ebp-8]
  0040C3DF: C9                 leave
  0040C3E0: C3                 ret
  0040C3E1: 8B FF              mov         edi,edi
  0040C3E3: 55                 push        ebp
  0040C3E4: 8B EC              mov         ebp,esp
  0040C3E6: 81 7D 0C 00 00 F0  cmp         dword ptr [ebp+0Ch],7FF00000h
            7F
  0040C3ED: 8B 45 08           mov         eax,dword ptr [ebp+8]
  0040C3F0: 75 07              jne         0040C3F9
  0040C3F2: 85 C0              test        eax,eax
  0040C3F4: 75 15              jne         0040C40B
  0040C3F6: 40                 inc         eax
  0040C3F7: 5D                 pop         ebp
  0040C3F8: C3                 ret
  0040C3F9: 81 7D 0C 00 00 F0  cmp         dword ptr [ebp+0Ch],0FFF00000h
            FF
  0040C400: 75 09              jne         0040C40B
  0040C402: 85 C0              test        eax,eax
  0040C404: 75 05              jne         0040C40B
  0040C406: 6A 02              push        2
  0040C408: 58                 pop         eax
  0040C409: 5D                 pop         ebp
  0040C40A: C3                 ret
  0040C40B: 66 8B 4D 0E        mov         cx,word ptr [ebp+0Eh]
  0040C40F: BA F8 7F 00 00     mov         edx,7FF8h
  0040C414: 66 23 CA           and         cx,dx
  0040C417: 66 3B CA           cmp         cx,dx
  0040C41A: 75 04              jne         0040C420
  0040C41C: 6A 03              push        3
  0040C41E: EB E8              jmp         0040C408
  0040C420: BA F0 7F 00 00     mov         edx,7FF0h
  0040C425: 66 3B CA           cmp         cx,dx
  0040C428: 75 11              jne         0040C43B
  0040C42A: F7 45 0C FF FF 07  test        dword ptr [ebp+0Ch],7FFFFh
            00
  0040C431: 75 04              jne         0040C437
  0040C433: 85 C0              test        eax,eax
  0040C435: 74 04              je          0040C43B
  0040C437: 6A 04              push        4
  0040C439: EB CD              jmp         0040C408
  0040C43B: 33 C0              xor         eax,eax
  0040C43D: 5D                 pop         ebp
  0040C43E: C3                 ret
  0040C43F: 8B FF              mov         edi,edi
  0040C441: 55                 push        ebp
  0040C442: 8B EC              mov         ebp,esp
  0040C444: 66 8B 4D 0E        mov         cx,word ptr [ebp+0Eh]
  0040C448: BA F0 7F 00 00     mov         edx,7FF0h
  0040C44D: 66 8B C1           mov         ax,cx
  0040C450: 66 23 C2           and         ax,dx
  0040C453: 66 3B C2           cmp         ax,dx
  0040C456: 75 33              jne         0040C48B
  0040C458: DD 45 08           fld         qword ptr [ebp+8]
  0040C45B: 51                 push        ecx
  0040C45C: 51                 push        ecx
  0040C45D: DD 1C 24           fstp        qword ptr [esp]
  0040C460: E8 7C FF FF FF     call        0040C3E1
  0040C465: 59                 pop         ecx
  0040C466: 59                 pop         ecx
  0040C467: 83 E8 01           sub         eax,1
  0040C46A: 74 18              je          0040C484
  0040C46C: 83 E8 01           sub         eax,1
  0040C46F: 74 0E              je          0040C47F
  0040C471: 83 E8 01           sub         eax,1
  0040C474: 74 05              je          0040C47B
  0040C476: 33 C0              xor         eax,eax
  0040C478: 40                 inc         eax
  0040C479: 5D                 pop         ebp
  0040C47A: C3                 ret
  0040C47B: 6A 02              push        2
  0040C47D: EB 02              jmp         0040C481
  0040C47F: 6A 04              push        4
  0040C481: 58                 pop         eax
  0040C482: 5D                 pop         ebp
  0040C483: C3                 ret
  0040C484: B8 00 02 00 00     mov         eax,200h
  0040C489: 5D                 pop         ebp
  0040C48A: C3                 ret
  0040C48B: 0F B7 C9           movzx       ecx,cx
  0040C48E: 81 E1 00 80 00 00  and         ecx,8000h
  0040C494: 66 85 C0           test        ax,ax
  0040C497: 75 1E              jne         0040C4B7
  0040C499: F7 45 0C FF FF 0F  test        dword ptr [ebp+0Ch],0FFFFFh
            00
  0040C4A0: 75 06              jne         0040C4A8
  0040C4A2: 83 7D 08 00        cmp         dword ptr [ebp+8],0
  0040C4A6: 74 0F              je          0040C4B7
  0040C4A8: F7 D9              neg         ecx
  0040C4AA: 1B C9              sbb         ecx,ecx
  0040C4AC: 83 E1 90           and         ecx,0FFFFFF90h
  0040C4AF: 8D 81 80 00 00 00  lea         eax,[ecx+00000080h]
  0040C4B5: 5D                 pop         ebp
  0040C4B6: C3                 ret
  0040C4B7: DD 45 08           fld         qword ptr [ebp+8]
  0040C4BA: D9 EE              fldz
  0040C4BC: DA E9              fucompp
  0040C4BE: DF E0              fnstsw      ax
  0040C4C0: F6 C4 44           test        ah,44h
  0040C4C3: 7A 0C              jp          0040C4D1
  0040C4C5: F7 D9              neg         ecx
  0040C4C7: 1B C9              sbb         ecx,ecx
  0040C4C9: 83 E1 E0           and         ecx,0FFFFFFE0h
  0040C4CC: 8D 41 40           lea         eax,[ecx+40h]
  0040C4CF: 5D                 pop         ebp
  0040C4D0: C3                 ret
  0040C4D1: F7 D9              neg         ecx
  0040C4D3: 1B C9              sbb         ecx,ecx
  0040C4D5: 81 E1 08 FF FF FF  and         ecx,0FFFFFF08h
  0040C4DB: 8D 81 00 01 00 00  lea         eax,[ecx+00000100h]
  0040C4E1: 5D                 pop         ebp
  0040C4E2: C3                 ret
  0040C4E3: CC                 int         3
  0040C4E4: CC                 int         3
  0040C4E5: CC                 int         3
  0040C4E6: CC                 int         3
  0040C4E7: CC                 int         3
  0040C4E8: CC                 int         3
  0040C4E9: CC                 int         3
  0040C4EA: CC                 int         3
  0040C4EB: CC                 int         3
  0040C4EC: CC                 int         3
  0040C4ED: CC                 int         3
  0040C4EE: CC                 int         3
  0040C4EF: CC                 int         3
  0040C4F0: 55                 push        ebp
  0040C4F1: 8B EC              mov         ebp,esp
  0040C4F3: 8B 45 08           mov         eax,dword ptr [ebp+8]
  0040C4F6: 33 D2              xor         edx,edx
  0040C4F8: 53                 push        ebx
  0040C4F9: 56                 push        esi
  0040C4FA: 57                 push        edi
  0040C4FB: 8B 48 3C           mov         ecx,dword ptr [eax+3Ch]
  0040C4FE: 03 C8              add         ecx,eax
  0040C500: 0F B7 41 14        movzx       eax,word ptr [ecx+14h]
  0040C504: 0F B7 59 06        movzx       ebx,word ptr [ecx+6]
  0040C508: 83 C0 18           add         eax,18h
  0040C50B: 03 C1              add         eax,ecx
  0040C50D: 85 DB              test        ebx,ebx
  0040C50F: 74 1B              je          0040C52C
  0040C511: 8B 7D 0C           mov         edi,dword ptr [ebp+0Ch]
  0040C514: 8B 70 0C           mov         esi,dword ptr [eax+0Ch]
  0040C517: 3B FE              cmp         edi,esi
  0040C519: 72 09              jb          0040C524
  0040C51B: 8B 48 08           mov         ecx,dword ptr [eax+8]
  0040C51E: 03 CE              add         ecx,esi
  0040C520: 3B F9              cmp         edi,ecx
  0040C522: 72 0A              jb          0040C52E
  0040C524: 42                 inc         edx
  0040C525: 83 C0 28           add         eax,28h
  0040C528: 3B D3              cmp         edx,ebx
  0040C52A: 72 E8              jb          0040C514
  0040C52C: 33 C0              xor         eax,eax
  0040C52E: 5F                 pop         edi
  0040C52F: 5E                 pop         esi
  0040C530: 5B                 pop         ebx
  0040C531: 5D                 pop         ebp
  0040C532: C3                 ret
  0040C533: CC                 int         3
  0040C534: CC                 int         3
  0040C535: CC                 int         3
  0040C536: CC                 int         3
  0040C537: CC                 int         3
  0040C538: CC                 int         3
  0040C539: CC                 int         3
  0040C53A: CC                 int         3
  0040C53B: CC                 int         3
  0040C53C: CC                 int         3
  0040C53D: CC                 int         3
  0040C53E: CC                 int         3
  0040C53F: CC                 int         3
  0040C540: 55                 push        ebp
  0040C541: 8B EC              mov         ebp,esp
  0040C543: 6A FE              push        0FFFFFFFEh
  0040C545: 68 F8 22 41 00     push        4122F8h
  0040C54A: 68 A0 1B 40 00     push        401BA0h
  0040C54F: 64 A1 00 00 00 00  mov         eax,dword ptr fs:[00000000h]
  0040C555: 50                 push        eax
  0040C556: 83 EC 08           sub         esp,8
  0040C559: 53                 push        ebx
  0040C55A: 56                 push        esi
  0040C55B: 57                 push        edi
  0040C55C: A1 18 30 41 00     mov         eax,dword ptr ds:[00413018h]
  0040C561: 31 45 F8           xor         dword ptr [ebp-8],eax
  0040C564: 33 C5              xor         eax,ebp
  0040C566: 50                 push        eax
  0040C567: 8D 45 F0           lea         eax,[ebp-10h]
  0040C56A: 64 A3 00 00 00 00  mov         dword ptr fs:[00000000h],eax
  0040C570: 89 65 E8           mov         dword ptr [ebp-18h],esp
  0040C573: C7 45 FC 00 00 00  mov         dword ptr [ebp-4],0
            00
  0040C57A: 68 00 00 40 00     push        400000h
  0040C57F: E8 7C 00 00 00     call        0040C600
  0040C584: 83 C4 04           add         esp,4
  0040C587: 85 C0              test        eax,eax
  0040C589: 74 54              je          0040C5DF
  0040C58B: 8B 45 08           mov         eax,dword ptr [ebp+8]
  0040C58E: 2D 00 00 40 00     sub         eax,400000h
  0040C593: 50                 push        eax
  0040C594: 68 00 00 40 00     push        400000h
  0040C599: E8 52 FF FF FF     call        0040C4F0
  0040C59E: 83 C4 08           add         esp,8
  0040C5A1: 85 C0              test        eax,eax
  0040C5A3: 74 3A              je          0040C5DF
  0040C5A5: 8B 40 24           mov         eax,dword ptr [eax+24h]
  0040C5A8: C1 E8 1F           shr         eax,1Fh
  0040C5AB: F7 D0              not         eax
  0040C5AD: 83 E0 01           and         eax,1
  0040C5B0: C7 45 FC FE FF FF  mov         dword ptr [ebp-4],0FFFFFFFEh
            FF
  0040C5B7: 8B 4D F0           mov         ecx,dword ptr [ebp-10h]
  0040C5BA: 64 89 0D 00 00 00  mov         dword ptr fs:[00000000h],ecx
            00
  0040C5C1: 59                 pop         ecx
  0040C5C2: 5F                 pop         edi
  0040C5C3: 5E                 pop         esi
  0040C5C4: 5B                 pop         ebx
  0040C5C5: 8B E5              mov         esp,ebp
  0040C5C7: 5D                 pop         ebp
  0040C5C8: C3                 ret
  0040C5C9: 8B 45 EC           mov         eax,dword ptr [ebp-14h]
  0040C5CC: 8B 00              mov         eax,dword ptr [eax]
  0040C5CE: 33 C9              xor         ecx,ecx
  0040C5D0: 81 38 05 00 00 C0  cmp         dword ptr [eax],0C0000005h
  0040C5D6: 0F 94 C1           sete        cl
  0040C5D9: 8B C1              mov         eax,ecx
  0040C5DB: C3                 ret
  0040C5DC: 8B 65 E8           mov         esp,dword ptr [ebp-18h]
  0040C5DF: C7 45 FC FE FF FF  mov         dword ptr [ebp-4],0FFFFFFFEh
            FF
  0040C5E6: 33 C0              xor         eax,eax
  0040C5E8: 8B 4D F0           mov         ecx,dword ptr [ebp-10h]
  0040C5EB: 64 89 0D 00 00 00  mov         dword ptr fs:[00000000h],ecx
            00
  0040C5F2: 59                 pop         ecx
  0040C5F3: 5F                 pop         edi
  0040C5F4: 5E                 pop         esi
  0040C5F5: 5B                 pop         ebx
  0040C5F6: 8B E5              mov         esp,ebp
  0040C5F8: 5D                 pop         ebp
  0040C5F9: C3                 ret
  0040C5FA: CC                 int         3
  0040C5FB: CC                 int         3
  0040C5FC: CC                 int         3
  0040C5FD: CC                 int         3
  0040C5FE: CC                 int         3
  0040C5FF: CC                 int         3
  0040C600: 55                 push        ebp
  0040C601: 8B EC              mov         ebp,esp
  0040C603: 8B 4D 08           mov         ecx,dword ptr [ebp+8]
  0040C606: B8 4D 5A 00 00     mov         eax,5A4Dh
  0040C60B: 66 39 01           cmp         word ptr [ecx],ax
  0040C60E: 75 1F              jne         0040C62F
  0040C610: 8B 41 3C           mov         eax,dword ptr [ecx+3Ch]
  0040C613: 03 C1              add         eax,ecx
  0040C615: 81 38 50 45 00 00  cmp         dword ptr [eax],4550h
  0040C61B: 75 12              jne         0040C62F
  0040C61D: B9 0B 01 00 00     mov         ecx,10Bh
  0040C622: 66 39 48 18        cmp         word ptr [eax+18h],cx
  0040C626: 75 07              jne         0040C62F
  0040C628: B8 01 00 00 00     mov         eax,1
  0040C62D: 5D                 pop         ebp
  0040C62E: C3                 ret
  0040C62F: 33 C0              xor         eax,eax
  0040C631: 5D                 pop         ebp
  0040C632: C3                 ret
  0040C633: CC                 int         3
  0040C634: CC                 int         3
  0040C635: CC                 int         3
  0040C636: CC                 int         3
  0040C637: CC                 int         3
  0040C638: CC                 int         3
  0040C639: CC                 int         3
  0040C63A: CC                 int         3
  0040C63B: CC                 int         3
  0040C63C: CC                 int         3
  0040C63D: CC                 int         3
  0040C63E: CC                 int         3
  0040C63F: CC                 int         3
  0040C640: 56                 push        esi
  0040C641: 8B 44 24 14        mov         eax,dword ptr [esp+14h]
  0040C645: 0B C0              or          eax,eax
  0040C647: 75 28              jne         0040C671
  0040C649: 8B 4C 24 10        mov         ecx,dword ptr [esp+10h]
  0040C64D: 8B 44 24 0C        mov         eax,dword ptr [esp+0Ch]
  0040C651: 33 D2              xor         edx,edx
  0040C653: F7 F1              div         eax,ecx
  0040C655: 8B D8              mov         ebx,eax
  0040C657: 8B 44 24 08        mov         eax,dword ptr [esp+8]
  0040C65B: F7 F1              div         eax,ecx
  0040C65D: 8B F0              mov         esi,eax
  0040C65F: 8B C3              mov         eax,ebx
  0040C661: F7 64 24 10        mul         eax,dword ptr [esp+10h]
  0040C665: 8B C8              mov         ecx,eax
  0040C667: 8B C6              mov         eax,esi
  0040C669: F7 64 24 10        mul         eax,dword ptr [esp+10h]
  0040C66D: 03 D1              add         edx,ecx
  0040C66F: EB 47              jmp         0040C6B8
  0040C671: 8B C8              mov         ecx,eax
  0040C673: 8B 5C 24 10        mov         ebx,dword ptr [esp+10h]
  0040C677: 8B 54 24 0C        mov         edx,dword ptr [esp+0Ch]
  0040C67B: 8B 44 24 08        mov         eax,dword ptr [esp+8]
  0040C67F: D1 E9              shr         ecx,1
  0040C681: D1 DB              rcr         ebx,1
  0040C683: D1 EA              shr         edx,1
  0040C685: D1 D8              rcr         eax,1
  0040C687: 0B C9              or          ecx,ecx
  0040C689: 75 F4              jne         0040C67F
  0040C68B: F7 F3              div         eax,ebx
  0040C68D: 8B F0              mov         esi,eax
  0040C68F: F7 64 24 14        mul         eax,dword ptr [esp+14h]
  0040C693: 8B C8              mov         ecx,eax
  0040C695: 8B 44 24 10        mov         eax,dword ptr [esp+10h]
  0040C699: F7 E6              mul         eax,esi
  0040C69B: 03 D1              add         edx,ecx
  0040C69D: 72 0E              jb          0040C6AD
  0040C69F: 3B 54 24 0C        cmp         edx,dword ptr [esp+0Ch]
  0040C6A3: 77 08              ja          0040C6AD
  0040C6A5: 72 0F              jb          0040C6B6
  0040C6A7: 3B 44 24 08        cmp         eax,dword ptr [esp+8]
  0040C6AB: 76 09              jbe         0040C6B6
  0040C6AD: 4E                 dec         esi
  0040C6AE: 2B 44 24 10        sub         eax,dword ptr [esp+10h]
  0040C6B2: 1B 54 24 14        sbb         edx,dword ptr [esp+14h]
  0040C6B6: 33 DB              xor         ebx,ebx
  0040C6B8: 2B 44 24 08        sub         eax,dword ptr [esp+8]
  0040C6BC: 1B 54 24 0C        sbb         edx,dword ptr [esp+0Ch]
  0040C6C0: F7 DA              neg         edx
  0040C6C2: F7 D8              neg         eax
  0040C6C4: 83 DA 00           sbb         edx,0
  0040C6C7: 8B CA              mov         ecx,edx
  0040C6C9: 8B D3              mov         edx,ebx
  0040C6CB: 8B D9              mov         ebx,ecx
  0040C6CD: 8B C8              mov         ecx,eax
  0040C6CF: 8B C6              mov         eax,esi
  0040C6D1: 5E                 pop         esi
  0040C6D2: C2 10 00           ret         10h
  0040C6D5: CC                 int         3
  0040C6D6: CC                 int         3
  0040C6D7: CC                 int         3
  0040C6D8: CC                 int         3
  0040C6D9: CC                 int         3
  0040C6DA: CC                 int         3
  0040C6DB: CC                 int         3
  0040C6DC: CC                 int         3
  0040C6DD: CC                 int         3
  0040C6DE: CC                 int         3
  0040C6DF: CC                 int         3
  0040C6E0: 8B 44 24 08        mov         eax,dword ptr [esp+8]
  0040C6E4: 8B 4C 24 10        mov         ecx,dword ptr [esp+10h]
  0040C6E8: 0B C8              or          ecx,eax
  0040C6EA: 8B 4C 24 0C        mov         ecx,dword ptr [esp+0Ch]
  0040C6EE: 75 09              jne         0040C6F9
  0040C6F0: 8B 44 24 04        mov         eax,dword ptr [esp+4]
  0040C6F4: F7 E1              mul         eax,ecx
  0040C6F6: C2 10 00           ret         10h
  0040C6F9: 53                 push        ebx
  0040C6FA: F7 E1              mul         eax,ecx
  0040C6FC: 8B D8              mov         ebx,eax
  0040C6FE: 8B 44 24 08        mov         eax,dword ptr [esp+8]
  0040C702: F7 64 24 14        mul         eax,dword ptr [esp+14h]
  0040C706: 03 D8              add         ebx,eax
  0040C708: 8B 44 24 08        mov         eax,dword ptr [esp+8]
  0040C70C: F7 E1              mul         eax,ecx
  0040C70E: 03 D3              add         edx,ebx
  0040C710: 5B                 pop         ebx
  0040C711: C2 10 00           ret         10h
  0040C714: CC                 int         3
  0040C715: CC                 int         3
  0040C716: CC                 int         3
  0040C717: CC                 int         3
  0040C718: CC                 int         3
  0040C719: CC                 int         3
  0040C71A: CC                 int         3
  0040C71B: CC                 int         3
  0040C71C: CC                 int         3
  0040C71D: CC                 int         3
  0040C71E: CC                 int         3
  0040C71F: CC                 int         3
  0040C720: 51                 push        ecx
  0040C721: 8D 4C 24 08        lea         ecx,[esp+8]
  0040C725: 2B C8              sub         ecx,eax
  0040C727: 83 E1 0F           and         ecx,0Fh
  0040C72A: 03 C1              add         eax,ecx
  0040C72C: 1B C9              sbb         ecx,ecx
  0040C72E: 0B C1              or          eax,ecx
  0040C730: 59                 pop         ecx
  0040C731: E9 1A 01 00 00     jmp         0040C850
  0040C736: 51                 push        ecx
  0040C737: 8D 4C 24 08        lea         ecx,[esp+8]
  0040C73B: 2B C8              sub         ecx,eax
  0040C73D: 83 E1 07           and         ecx,7
  0040C740: 03 C1              add         eax,ecx
  0040C742: 1B C9              sbb         ecx,ecx
  0040C744: 0B C1              or          eax,ecx
  0040C746: 59                 pop         ecx
  0040C747: E9 04 01 00 00     jmp         0040C850
  0040C74C: CC                 int         3
  0040C74D: CC                 int         3
  0040C74E: CC                 int         3
  0040C74F: CC                 int         3
  0040C750: 57                 push        edi
  0040C751: 56                 push        esi
  0040C752: 55                 push        ebp
  0040C753: 33 FF              xor         edi,edi
  0040C755: 33 ED              xor         ebp,ebp
  0040C757: 8B 44 24 14        mov         eax,dword ptr [esp+14h]
  0040C75B: 0B C0              or          eax,eax
  0040C75D: 7D 15              jge         0040C774
  0040C75F: 47                 inc         edi
  0040C760: 45                 inc         ebp
  0040C761: 8B 54 24 10        mov         edx,dword ptr [esp+10h]
  0040C765: F7 D8              neg         eax
  0040C767: F7 DA              neg         edx
  0040C769: 83 D8 00           sbb         eax,0
  0040C76C: 89 44 24 14        mov         dword ptr [esp+14h],eax
  0040C770: 89 54 24 10        mov         dword ptr [esp+10h],edx
  0040C774: 8B 44 24 1C        mov         eax,dword ptr [esp+1Ch]
  0040C778: 0B C0              or          eax,eax
  0040C77A: 7D 14              jge         0040C790
  0040C77C: 47                 inc         edi
  0040C77D: 8B 54 24 18        mov         edx,dword ptr [esp+18h]
  0040C781: F7 D8              neg         eax
  0040C783: F7 DA              neg         edx
  0040C785: 83 D8 00           sbb         eax,0
  0040C788: 89 44 24 1C        mov         dword ptr [esp+1Ch],eax
  0040C78C: 89 54 24 18        mov         dword ptr [esp+18h],edx
  0040C790: 0B C0              or          eax,eax
  0040C792: 75 28              jne         0040C7BC
  0040C794: 8B 4C 24 18        mov         ecx,dword ptr [esp+18h]
  0040C798: 8B 44 24 14        mov         eax,dword ptr [esp+14h]
  0040C79C: 33 D2              xor         edx,edx
  0040C79E: F7 F1              div         eax,ecx
  0040C7A0: 8B D8              mov         ebx,eax
  0040C7A2: 8B 44 24 10        mov         eax,dword ptr [esp+10h]
  0040C7A6: F7 F1              div         eax,ecx
  0040C7A8: 8B F0              mov         esi,eax
  0040C7AA: 8B C3              mov         eax,ebx
  0040C7AC: F7 64 24 18        mul         eax,dword ptr [esp+18h]
  0040C7B0: 8B C8              mov         ecx,eax
  0040C7B2: 8B C6              mov         eax,esi
  0040C7B4: F7 64 24 18        mul         eax,dword ptr [esp+18h]
  0040C7B8: 03 D1              add         edx,ecx
  0040C7BA: EB 47              jmp         0040C803
  0040C7BC: 8B D8              mov         ebx,eax
  0040C7BE: 8B 4C 24 18        mov         ecx,dword ptr [esp+18h]
  0040C7C2: 8B 54 24 14        mov         edx,dword ptr [esp+14h]
  0040C7C6: 8B 44 24 10        mov         eax,dword ptr [esp+10h]
  0040C7CA: D1 EB              shr         ebx,1
  0040C7CC: D1 D9              rcr         ecx,1
  0040C7CE: D1 EA              shr         edx,1
  0040C7D0: D1 D8              rcr         eax,1
  0040C7D2: 0B DB              or          ebx,ebx
  0040C7D4: 75 F4              jne         0040C7CA
  0040C7D6: F7 F1              div         eax,ecx
  0040C7D8: 8B F0              mov         esi,eax
  0040C7DA: F7 64 24 1C        mul         eax,dword ptr [esp+1Ch]
  0040C7DE: 8B C8              mov         ecx,eax
  0040C7E0: 8B 44 24 18        mov         eax,dword ptr [esp+18h]
  0040C7E4: F7 E6              mul         eax,esi
  0040C7E6: 03 D1              add         edx,ecx
  0040C7E8: 72 0E              jb          0040C7F8
  0040C7EA: 3B 54 24 14        cmp         edx,dword ptr [esp+14h]
  0040C7EE: 77 08              ja          0040C7F8
  0040C7F0: 72 0F              jb          0040C801
  0040C7F2: 3B 44 24 10        cmp         eax,dword ptr [esp+10h]
  0040C7F6: 76 09              jbe         0040C801
  0040C7F8: 4E                 dec         esi
  0040C7F9: 2B 44 24 18        sub         eax,dword ptr [esp+18h]
  0040C7FD: 1B 54 24 1C        sbb         edx,dword ptr [esp+1Ch]
  0040C801: 33 DB              xor         ebx,ebx
  0040C803: 2B 44 24 10        sub         eax,dword ptr [esp+10h]
  0040C807: 1B 54 24 14        sbb         edx,dword ptr [esp+14h]
  0040C80B: 4D                 dec         ebp
  0040C80C: 79 07              jns         0040C815
  0040C80E: F7 DA              neg         edx
  0040C810: F7 D8              neg         eax
  0040C812: 83 DA 00           sbb         edx,0
  0040C815: 8B CA              mov         ecx,edx
  0040C817: 8B D3              mov         edx,ebx
  0040C819: 8B D9              mov         ebx,ecx
  0040C81B: 8B C8              mov         ecx,eax
  0040C81D: 8B C6              mov         eax,esi
  0040C81F: 4F                 dec         edi
  0040C820: 75 07              jne         0040C829
  0040C822: F7 DA              neg         edx
  0040C824: F7 D8              neg         eax
  0040C826: 83 DA 00           sbb         edx,0
  0040C829: 5D                 pop         ebp
  0040C82A: 5E                 pop         esi
  0040C82B: 5F                 pop         edi
  0040C82C: C2 10 00           ret         10h
  0040C82F: CC                 int         3
  0040C830: 80 F9 40           cmp         cl,40h
  0040C833: 73 15              jae         0040C84A
  0040C835: 80 F9 20           cmp         cl,20h
  0040C838: 73 06              jae         0040C840
  0040C83A: 0F AD D0           shrd        eax,edx,cl
  0040C83D: D3 EA              shr         edx,cl
  0040C83F: C3                 ret
  0040C840: 8B C2              mov         eax,edx
  0040C842: 33 D2              xor         edx,edx
  0040C844: 80 E1 1F           and         cl,1Fh
  0040C847: D3 E8              shr         eax,cl
  0040C849: C3                 ret
  0040C84A: 33 C0              xor         eax,eax
  0040C84C: 33 D2              xor         edx,edx
  0040C84E: C3                 ret
  0040C84F: CC                 int         3
  0040C850: 51                 push        ecx
  0040C851: 8D 4C 24 04        lea         ecx,[esp+4]
  0040C855: 2B C8              sub         ecx,eax
  0040C857: 1B C0              sbb         eax,eax
  0040C859: F7 D0              not         eax
  0040C85B: 23 C8              and         ecx,eax
  0040C85D: 8B C4              mov         eax,esp
  0040C85F: 25 00 F0 FF FF     and         eax,0FFFFF000h
  0040C864: 3B C8              cmp         ecx,eax
  0040C866: F2 72 0B           bnd jb      0040C874
  0040C869: 8B C1              mov         eax,ecx
  0040C86B: 59                 pop         ecx
  0040C86C: 94                 xchg        eax,esp
  0040C86D: 8B 00              mov         eax,dword ptr [eax]
  0040C86F: 89 04 24           mov         dword ptr [esp],eax
  0040C872: F2 C3              bnd ret
  0040C874: 2D 00 10 00 00     sub         eax,1000h
  0040C879: 85 00              test        dword ptr [eax],eax
  0040C87B: EB E7              jmp         0040C864
  0040C87D: CC                 int         3
  0040C87E: CC                 int         3
  0040C87F: CC                 int         3
  0040C880: 80 F9 40           cmp         cl,40h
  0040C883: 73 15              jae         0040C89A
  0040C885: 80 F9 20           cmp         cl,20h
  0040C888: 73 06              jae         0040C890
  0040C88A: 0F A5 C2           shld        edx,eax,cl
  0040C88D: D3 E0              shl         eax,cl
  0040C88F: C3                 ret
  0040C890: 8B D0              mov         edx,eax
  0040C892: 33 C0              xor         eax,eax
  0040C894: 80 E1 1F           and         cl,1Fh
  0040C897: D3 E2              shl         edx,cl
  0040C899: C3                 ret
  0040C89A: 33 C0              xor         eax,eax
  0040C89C: 33 D2              xor         edx,edx
  0040C89E: C3                 ret
  0040C89F: CC                 int         3
  0040C8A0: 83 3D C4 38 41 00  cmp         dword ptr ds:[004138C4h],2
            02
  0040C8A7: 7C 08              jl          0040C8B1
  0040C8A9: 83 EC 04           sub         esp,4
  0040C8AC: DB 0C 24           fisttp      dword ptr [esp]
  0040C8AF: 58                 pop         eax
  0040C8B0: C3                 ret
  0040C8B1: 55                 push        ebp
  0040C8B2: 8B EC              mov         ebp,esp
  0040C8B4: 83 C4 F0           add         esp,0FFFFFFF0h
  0040C8B7: 83 E4 F0           and         esp,0FFFFFFF0h
  0040C8BA: D9 C0              fld         st(0)
  0040C8BC: DB 3C 24           fstp        tbyte ptr [esp]
  0040C8BF: 8B 44 24 04        mov         eax,dword ptr [esp+4]
  0040C8C3: 0F B7 4C 24 08     movzx       ecx,word ptr [esp+8]
  0040C8C8: 0F BA F1 0F        btr         ecx,0Fh
  0040C8CC: 1B D2              sbb         edx,edx
  0040C8CE: 66 81 F9 FF 3F     cmp         cx,3FFFh
  0040C8D3: 72 1F              jb          0040C8F4
  0040C8D5: 85 C0              test        eax,eax
  0040C8D7: 79 36              jns         0040C90F
  0040C8D9: 66 81 F9 1E 40     cmp         cx,401Eh
  0040C8DE: 73 1C              jae         0040C8FC
  0040C8E0: 66 F7 D9           neg         cx
  0040C8E3: 66 81 C1 3E 40     add         cx,403Eh
  0040C8E8: D9 FC              frndint
  0040C8EA: DD D8              fstp        st(0)
  0040C8EC: D3 E8              shr         eax,cl
  0040C8EE: 33 C2              xor         eax,edx
  0040C8F0: 2B C2              sub         eax,edx
  0040C8F2: C9                 leave
  0040C8F3: C3                 ret
  0040C8F4: D9 FC              frndint
  0040C8F6: DD D8              fstp        st(0)
  0040C8F8: 33 C0              xor         eax,eax
  0040C8FA: C9                 leave
  0040C8FB: C3                 ret
  0040C8FC: 77 11              ja          0040C90F
  0040C8FE: 85 D2              test        edx,edx
  0040C900: 79 0D              jns         0040C90F
  0040C902: 3D 00 00 00 80     cmp         eax,80000000h
  0040C907: 75 06              jne         0040C90F
  0040C909: D9 FC              frndint
  0040C90B: DD D8              fstp        st(0)
  0040C90D: C9                 leave
  0040C90E: C3                 ret
  0040C90F: D8 1D F8 1B 41 00  fcomp       dword ptr ds:[00411BF8h]
  0040C915: C9                 leave
  0040C916: B8 00 00 00 80     mov         eax,80000000h
  0040C91B: C3                 ret
  0040C91C: 8D 64 24 00        lea         esp,[esp]
  0040C920: 83 3D C4 38 41 00  cmp         dword ptr ds:[004138C4h],2
            02
  0040C927: 7C 3E              jl          0040C967
  0040C929: D9 EE              fldz
  0040C92B: DF E9              fucomip     st,st(1)
  0040C92D: 7A 2C              jp          0040C95B
  0040C92F: 77 1B              ja          0040C94C
  0040C931: D9 05 F0 1B 41 00  fld         dword ptr ds:[00411BF0h]
  0040C937: DF E9              fucomip     st,st(1)
  0040C939: 76 20              jbe         0040C95B
  0040C93B: 8B CC              mov         ecx,esp
  0040C93D: 83 C4 F8           add         esp,0FFFFFFF8h
  0040C940: 83 E4 F8           and         esp,0FFFFFFF8h
  0040C943: DD 0C 24           fisttp      qword ptr [esp]
  0040C946: 8B 04 24           mov         eax,dword ptr [esp]
  0040C949: 8B E1              mov         esp,ecx
  0040C94B: C3                 ret
  0040C94C: D9 E1              fabs
  0040C94E: D9 E8              fld1
  0040C950: DF E9              fucomip     st,st(1)
  0040C952: 76 07              jbe         0040C95B
  0040C954: DB 4C 24 FC        fisttp      dword ptr [esp-4]
  0040C958: 33 C0              xor         eax,eax
  0040C95A: C3                 ret
  0040C95B: D8 1D F8 1B 41 00  fcomp       dword ptr ds:[00411BF8h]
  0040C961: B8 FF FF FF FF     mov         eax,0FFFFFFFFh
  0040C966: C3                 ret
  0040C967: 55                 push        ebp
  0040C968: 8B EC              mov         ebp,esp
  0040C96A: 83 C4 F0           add         esp,0FFFFFFF0h
  0040C96D: 83 E4 F0           and         esp,0FFFFFFF0h
  0040C970: D9 C0              fld         st(0)
  0040C972: DB 3C 24           fstp        tbyte ptr [esp]
  0040C975: 8B 44 24 04        mov         eax,dword ptr [esp+4]
  0040C979: 0F B7 4C 24 08     movzx       ecx,word ptr [esp+8]
  0040C97E: 0F BA F1 0F        btr         ecx,0Fh
  0040C982: 72 22              jb          0040C9A6
  0040C984: 66 81 F9 FF 3F     cmp         cx,3FFFh
  0040C989: 72 22              jb          0040C9AD
  0040C98B: 85 C0              test        eax,eax
  0040C98D: 79 26              jns         0040C9B5
  0040C98F: 66 81 F9 1F 40     cmp         cx,401Fh
  0040C994: 73 1F              jae         0040C9B5
  0040C996: 66 F7 D9           neg         cx
  0040C999: 66 81 C1 3E 40     add         cx,403Eh
  0040C99E: D9 FC              frndint
  0040C9A0: DD D8              fstp        st(0)
  0040C9A2: D3 E8              shr         eax,cl
  0040C9A4: C9                 leave
  0040C9A5: C3                 ret
  0040C9A6: 66 81 F9 FF 3F     cmp         cx,3FFFh
  0040C9AB: 73 08              jae         0040C9B5
  0040C9AD: D9 FC              frndint
  0040C9AF: DD D8              fstp        st(0)
  0040C9B1: 33 C0              xor         eax,eax
  0040C9B3: C9                 leave
  0040C9B4: C3                 ret
  0040C9B5: D8 1D F8 1B 41 00  fcomp       dword ptr ds:[00411BF8h]
  0040C9BB: C9                 leave
  0040C9BC: B8 FF FF FF FF     mov         eax,0FFFFFFFFh
  0040C9C1: C3                 ret
  0040C9C2: 8D A4 24 00 00 00  lea         esp,[esp+00000000h]
            00
  0040C9C9: 8D A4 24 00 00 00  lea         esp,[esp+00000000h]
            00
  0040C9D0: 83 3D C4 38 41 00  cmp         dword ptr ds:[004138C4h],2
            02
  0040C9D7: 7C 15              jl          0040C9EE
  0040C9D9: 8B CC              mov         ecx,esp
  0040C9DB: 83 C4 F8           add         esp,0FFFFFFF8h
  0040C9DE: 83 E4 F8           and         esp,0FFFFFFF8h
  0040C9E1: DD 0C 24           fisttp      qword ptr [esp]
  0040C9E4: 8B 04 24           mov         eax,dword ptr [esp]
  0040C9E7: 8B 54 24 04        mov         edx,dword ptr [esp+4]
  0040C9EB: 8B E1              mov         esp,ecx
  0040C9ED: C3                 ret
  0040C9EE: 55                 push        ebp
  0040C9EF: 8B EC              mov         ebp,esp
  0040C9F1: 83 C4 F0           add         esp,0FFFFFFF0h
  0040C9F4: 83 E4 F0           and         esp,0FFFFFFF0h
  0040C9F7: D9 C0              fld         st(0)
  0040C9F9: DB 3C 24           fstp        tbyte ptr [esp]
  0040C9FC: 8B 04 24           mov         eax,dword ptr [esp]
  0040C9FF: 8B 54 24 04        mov         edx,dword ptr [esp+4]
  0040CA03: 0F B7 4C 24 08     movzx       ecx,word ptr [esp+8]
  0040CA08: 0F BA F1 0F        btr         ecx,0Fh
  0040CA0C: 66 81 F9 FF 3F     cmp         cx,3FFFh
  0040CA11: 72 36              jb          0040CA49
  0040CA13: 85 D2              test        edx,edx
  0040CA15: 79 55              jns         0040CA6C
  0040CA17: 66 81 F9 3E 40     cmp         cx,403Eh
  0040CA1C: 73 35              jae         0040CA53
  0040CA1E: 66 F7 D9           neg         cx
  0040CA21: 66 81 C1 3E 40     add         cx,403Eh
  0040CA26: D9 FC              frndint
  0040CA28: DD D8              fstp        st(0)
  0040CA2A: 80 F9 20           cmp         cl,20h
  0040CA2D: 72 04              jb          0040CA33
  0040CA2F: 8B C2              mov         eax,edx
  0040CA31: 33 D2              xor         edx,edx
  0040CA33: 0F AD D0           shrd        eax,edx,cl
  0040CA36: D3 EA              shr         edx,cl
  0040CA38: 66 83 7C 24 08 00  cmp         word ptr [esp+8],0
  0040CA3E: 7D 07              jge         0040CA47
  0040CA40: F7 D8              neg         eax
  0040CA42: 83 D2 00           adc         edx,0
  0040CA45: F7 DA              neg         edx
  0040CA47: C9                 leave
  0040CA48: C3                 ret
  0040CA49: D9 FC              frndint
  0040CA4B: DD D8              fstp        st(0)
  0040CA4D: 33 C0              xor         eax,eax
  0040CA4F: 33 D2              xor         edx,edx
  0040CA51: C9                 leave
  0040CA52: C3                 ret
  0040CA53: 8D 0C 55 00 00 00  lea         ecx,[edx*2+00000000h]
            00
  0040CA5A: 77 10              ja          0040CA6C
  0040CA5C: 0B C8              or          ecx,eax
  0040CA5E: 75 0C              jne         0040CA6C
  0040CA60: 66 83 7C 24 08 00  cmp         word ptr [esp+8],0
  0040CA66: 7D 04              jge         0040CA6C
  0040CA68: DD D8              fstp        st(0)
  0040CA6A: C9                 leave
  0040CA6B: C3                 ret
  0040CA6C: D8 1D F8 1B 41 00  fcomp       dword ptr ds:[00411BF8h]
  0040CA72: C9                 leave
  0040CA73: BA 00 00 00 80     mov         edx,80000000h
  0040CA78: 33 C0              xor         eax,eax
  0040CA7A: C3                 ret
  0040CA7B: EB 03              jmp         0040CA80
  0040CA7D: CC                 int         3
  0040CA7E: CC                 int         3
  0040CA7F: CC                 int         3
  0040CA80: 83 3D C4 38 41 00  cmp         dword ptr ds:[004138C4h],2
            02
  0040CA87: 7C 43              jl          0040CACC
  0040CA89: D9 EE              fldz
  0040CA8B: DF E9              fucomip     st,st(1)
  0040CA8D: 7A 30              jp          0040CABF
  0040CA8F: 77 1F              ja          0040CAB0
  0040CA91: D9 05 F4 1B 41 00  fld         dword ptr ds:[00411BF4h]
  0040CA97: DF E9              fucomip     st,st(1)
  0040CA99: 76 31              jbe         0040CACC
  0040CA9B: 8B CC              mov         ecx,esp
  0040CA9D: 83 C4 F8           add         esp,0FFFFFFF8h
  0040CAA0: 83 E4 F8           and         esp,0FFFFFFF8h
  0040CAA3: DD 0C 24           fisttp      qword ptr [esp]
  0040CAA6: 8B 04 24           mov         eax,dword ptr [esp]
  0040CAA9: 8B 54 24 04        mov         edx,dword ptr [esp+4]
  0040CAAD: 8B E1              mov         esp,ecx
  0040CAAF: C3                 ret
  0040CAB0: D9 E1              fabs
  0040CAB2: D9 E8              fld1
  0040CAB4: DF E9              fucomip     st,st(1)
  0040CAB6: 76 07              jbe         0040CABF
  0040CAB8: DB 4C 24 FC        fisttp      dword ptr [esp-4]
  0040CABC: 33 C0              xor         eax,eax
  0040CABE: C3                 ret
  0040CABF: D8 1D F8 1B 41 00  fcomp       dword ptr ds:[00411BF8h]
  0040CAC5: B8 FF FF FF FF     mov         eax,0FFFFFFFFh
  0040CACA: 99                 cdq
  0040CACB: C3                 ret
  0040CACC: 55                 push        ebp
  0040CACD: 8B EC              mov         ebp,esp
  0040CACF: 83 C4 F0           add         esp,0FFFFFFF0h
  0040CAD2: 83 E4 F0           and         esp,0FFFFFFF0h
  0040CAD5: D9 C0              fld         st(0)
  0040CAD7: DB 3C 24           fstp        tbyte ptr [esp]
  0040CADA: 8B 04 24           mov         eax,dword ptr [esp]
  0040CADD: 8B 54 24 04        mov         edx,dword ptr [esp+4]
  0040CAE1: 0F B7 4C 24 08     movzx       ecx,word ptr [esp+8]
  0040CAE6: 0F BA F1 0F        btr         ecx,0Fh
  0040CAEA: 72 2E              jb          0040CB1A
  0040CAEC: 66 81 F9 FF 3F     cmp         cx,3FFFh
  0040CAF1: 72 2E              jb          0040CB21
  0040CAF3: 85 D2              test        edx,edx
  0040CAF5: 79 34              jns         0040CB2B
  0040CAF7: 66 81 F9 3F 40     cmp         cx,403Fh
  0040CAFC: 73 2D              jae         0040CB2B
  0040CAFE: 66 F7 D9           neg         cx
  0040CB01: 66 81 C1 3E 40     add         cx,403Eh
  0040CB06: D9 FC              frndint
  0040CB08: DD D8              fstp        st(0)
  0040CB0A: 80 F9 20           cmp         cl,20h
  0040CB0D: 72 04              jb          0040CB13
  0040CB0F: 8B C2              mov         eax,edx
  0040CB11: 33 D2              xor         edx,edx
  0040CB13: 0F AD D0           shrd        eax,edx,cl
  0040CB16: D3 EA              shr         edx,cl
  0040CB18: C9                 leave
  0040CB19: C3                 ret
  0040CB1A: 66 81 F9 FF 3F     cmp         cx,3FFFh
  0040CB1F: 73 0A              jae         0040CB2B
  0040CB21: D9 FC              frndint
  0040CB23: DD D8              fstp        st(0)
  0040CB25: 33 C0              xor         eax,eax
  0040CB27: 33 D2              xor         edx,edx
  0040CB29: C9                 leave
  0040CB2A: C3                 ret
  0040CB2B: D8 1D F8 1B 41 00  fcomp       dword ptr ds:[00411BF8h]
  0040CB31: C9                 leave
  0040CB32: B8 FF FF FF FF     mov         eax,0FFFFFFFFh
  0040CB37: 99                 cdq
  0040CB38: C3                 ret
  0040CB39: CC                 int         3
  0040CB3A: CC                 int         3
  0040CB3B: CC                 int         3
  0040CB3C: CC                 int         3
  0040CB3D: CC                 int         3
  0040CB3E: CC                 int         3
  0040CB3F: CC                 int         3
  0040CB40: 83 3D C4 38 41 00  cmp         dword ptr ds:[004138C4h],1
            01
  0040CB47: 72 5F              jb          0040CBA8
  0040CB49: 0F B6 44 24 08     movzx       eax,byte ptr [esp+8]
  0040CB4E: 8B D0              mov         edx,eax
  0040CB50: C1 E0 08           shl         eax,8
  0040CB53: 0B D0              or          edx,eax
  0040CB55: 66 0F 6E DA        movd        xmm3,edx
  0040CB59: F2 0F 70 DB 00     pshuflw     xmm3,xmm3,0
  0040CB5E: 0F 16 DB           movlhps     xmm3,xmm3
  0040CB61: 8B 54 24 04        mov         edx,dword ptr [esp+4]
  0040CB65: B9 0F 00 00 00     mov         ecx,0Fh
  0040CB6A: 83 C8 FF           or          eax,0FFFFFFFFh
  0040CB6D: 23 CA              and         ecx,edx
  0040CB6F: D3 E0              shl         eax,cl
  0040CB71: 2B D1              sub         edx,ecx
  0040CB73: F3 0F 6F 0A        movdqu      xmm1,xmmword ptr [edx]
  0040CB77: 66 0F EF D2        pxor        xmm2,xmm2
  0040CB7B: 66 0F 74 D1        pcmpeqb     xmm2,xmm1
  0040CB7F: 66 0F 74 CB        pcmpeqb     xmm1,xmm3
  0040CB83: 66 0F EB D1        por         xmm2,xmm1
  0040CB87: 66 0F D7 CA        pmovmskb    ecx,xmm2
  0040CB8B: 23 C8              and         ecx,eax
  0040CB8D: 75 08              jne         0040CB97
  0040CB8F: 83 C8 FF           or          eax,0FFFFFFFFh
  0040CB92: 83 C2 10           add         edx,10h
  0040CB95: EB DC              jmp         0040CB73
  0040CB97: 0F BC C1           bsf         eax,ecx
  0040CB9A: 03 C2              add         eax,edx
  0040CB9C: 66 0F 7E DA        movd        edx,xmm3
  0040CBA0: 33 C9              xor         ecx,ecx
  0040CBA2: 3A 10              cmp         dl,byte ptr [eax]
  0040CBA4: 0F 45 C1           cmovne      eax,ecx
  0040CBA7: C3                 ret
  0040CBA8: 33 C0              xor         eax,eax
  0040CBAA: 8A 44 24 08        mov         al,byte ptr [esp+8]
  0040CBAE: 53                 push        ebx
  0040CBAF: 8B D8              mov         ebx,eax
  0040CBB1: C1 E0 08           shl         eax,8
  0040CBB4: 8B 54 24 08        mov         edx,dword ptr [esp+8]
  0040CBB8: F7 C2 03 00 00 00  test        edx,3
  0040CBBE: 74 15              je          0040CBD5
  0040CBC0: 8A 0A              mov         cl,byte ptr [edx]
  0040CBC2: 83 C2 01           add         edx,1
  0040CBC5: 3A CB              cmp         cl,bl
  0040CBC7: 74 59              je          0040CC22
  0040CBC9: 84 C9              test        cl,cl
  0040CBCB: 74 51              je          0040CC1E
  0040CBCD: F7 C2 03 00 00 00  test        edx,3
  0040CBD3: 75 EB              jne         0040CBC0
  0040CBD5: 0B D8              or          ebx,eax
  0040CBD7: 57                 push        edi
  0040CBD8: 8B C3              mov         eax,ebx
  0040CBDA: C1 E3 10           shl         ebx,10h
  0040CBDD: 56                 push        esi
  0040CBDE: 0B D8              or          ebx,eax
  0040CBE0: 8B 0A              mov         ecx,dword ptr [edx]
  0040CBE2: BF FF FE FE 7E     mov         edi,7EFEFEFFh
  0040CBE7: 8B C1              mov         eax,ecx
  0040CBE9: 8B F7              mov         esi,edi
  0040CBEB: 33 CB              xor         ecx,ebx
  0040CBED: 03 F0              add         esi,eax
  0040CBEF: 03 F9              add         edi,ecx
  0040CBF1: 83 F1 FF           xor         ecx,0FFFFFFFFh
  0040CBF4: 83 F0 FF           xor         eax,0FFFFFFFFh
  0040CBF7: 33 CF              xor         ecx,edi
  0040CBF9: 33 C6              xor         eax,esi
  0040CBFB: 83 C2 04           add         edx,4
  0040CBFE: 81 E1 00 01 01 81  and         ecx,81010100h
  0040CC04: 75 21              jne         0040CC27
  0040CC06: 25 00 01 01 81     and         eax,81010100h
  0040CC0B: 74 D3              je          0040CBE0
  0040CC0D: 25 00 01 01 01     and         eax,1010100h
  0040CC12: 75 08              jne         0040CC1C
  0040CC14: 81 E6 00 00 00 80  and         esi,80000000h
  0040CC1A: 75 C4              jne         0040CBE0
  0040CC1C: 5E                 pop         esi
  0040CC1D: 5F                 pop         edi
  0040CC1E: 5B                 pop         ebx
  0040CC1F: 33 C0              xor         eax,eax
  0040CC21: C3                 ret
  0040CC22: 8D 42 FF           lea         eax,[edx-1]
  0040CC25: 5B                 pop         ebx
  0040CC26: C3                 ret
  0040CC27: 8B 42 FC           mov         eax,dword ptr [edx-4]
  0040CC2A: 3A C3              cmp         al,bl
  0040CC2C: 74 36              je          0040CC64
  0040CC2E: 84 C0              test        al,al
  0040CC30: 74 EA              je          0040CC1C
  0040CC32: 3A E3              cmp         ah,bl
  0040CC34: 74 27              je          0040CC5D
  0040CC36: 84 E4              test        ah,ah
  0040CC38: 74 E2              je          0040CC1C
  0040CC3A: C1 E8 10           shr         eax,10h
  0040CC3D: 3A C3              cmp         al,bl
  0040CC3F: 74 15              je          0040CC56
  0040CC41: 84 C0              test        al,al
  0040CC43: 74 D7              je          0040CC1C
  0040CC45: 3A E3              cmp         ah,bl
  0040CC47: 74 06              je          0040CC4F
  0040CC49: 84 E4              test        ah,ah
  0040CC4B: 74 CF              je          0040CC1C
  0040CC4D: EB 91              jmp         0040CBE0
  0040CC4F: 5E                 pop         esi
  0040CC50: 5F                 pop         edi
  0040CC51: 8D 42 FF           lea         eax,[edx-1]
  0040CC54: 5B                 pop         ebx
  0040CC55: C3                 ret
  0040CC56: 8D 42 FE           lea         eax,[edx-2]
  0040CC59: 5E                 pop         esi
  0040CC5A: 5F                 pop         edi
  0040CC5B: 5B                 pop         ebx
  0040CC5C: C3                 ret
  0040CC5D: 8D 42 FD           lea         eax,[edx-3]
  0040CC60: 5E                 pop         esi
  0040CC61: 5F                 pop         edi
  0040CC62: 5B                 pop         ebx
  0040CC63: C3                 ret
  0040CC64: 8D 42 FC           lea         eax,[edx-4]
  0040CC67: 5E                 pop         esi
  0040CC68: 5F                 pop         edi
  0040CC69: 5B                 pop         ebx
  0040CC6A: C3                 ret
  0040CC6B: CC                 int         3
  0040CC6C: CC                 int         3
  0040CC6D: CC                 int         3
  0040CC6E: CC                 int         3
  0040CC6F: CC                 int         3
  0040CC70: 55                 push        ebp
  0040CC71: 8B EC              mov         ebp,esp
  0040CC73: 57                 push        edi
  0040CC74: 83 3D C4 38 41 00  cmp         dword ptr ds:[004138C4h],1
            01
  0040CC7B: 0F 82 FD 00 00 00  jb          0040CD7E
  0040CC81: 8B 7D 08           mov         edi,dword ptr [ebp+8]
  0040CC84: 77 77              ja          0040CCFD
  0040CC86: 0F B6 55 0C        movzx       edx,byte ptr [ebp+0Ch]
  0040CC8A: 8B C2              mov         eax,edx
  0040CC8C: C1 E2 08           shl         edx,8
  0040CC8F: 0B D0              or          edx,eax
  0040CC91: 66 0F 6E DA        movd        xmm3,edx
  0040CC95: F2 0F 70 DB 00     pshuflw     xmm3,xmm3,0
  0040CC9A: 0F 16 DB           movlhps     xmm3,xmm3
  0040CC9D: B9 0F 00 00 00     mov         ecx,0Fh
  0040CCA2: 23 CF              and         ecx,edi
  0040CCA4: 83 C8 FF           or          eax,0FFFFFFFFh
  0040CCA7: D3 E0              shl         eax,cl
  0040CCA9: 2B F9              sub         edi,ecx
  0040CCAB: 33 D2              xor         edx,edx
  0040CCAD: F3 0F 6F 0F        movdqu      xmm1,xmmword ptr [edi]
  0040CCB1: 66 0F EF D2        pxor        xmm2,xmm2
  0040CCB5: 66 0F 74 D1        pcmpeqb     xmm2,xmm1
  0040CCB9: 66 0F 74 CB        pcmpeqb     xmm1,xmm3
  0040CCBD: 66 0F D7 CA        pmovmskb    ecx,xmm2
  0040CCC1: 23 C8              and         ecx,eax
  0040CCC3: 75 18              jne         0040CCDD
  0040CCC5: 66 0F D7 C9        pmovmskb    ecx,xmm1
  0040CCC9: 23 C8              and         ecx,eax
  0040CCCB: 0F BD C1           bsr         eax,ecx
  0040CCCE: 03 C7              add         eax,edi
  0040CCD0: 85 C9              test        ecx,ecx
  0040CCD2: 0F 45 D0           cmovne      edx,eax
  0040CCD5: 83 C8 FF           or          eax,0FFFFFFFFh
  0040CCD8: 83 C7 10           add         edi,10h
  0040CCDB: EB D0              jmp         0040CCAD
  0040CCDD: 53                 push        ebx
  0040CCDE: 66 0F D7 D9        pmovmskb    ebx,xmm1
  0040CCE2: 23 D8              and         ebx,eax
  0040CCE4: D1 E1              shl         ecx,1
  0040CCE6: 33 C0              xor         eax,eax
  0040CCE8: 2B C1              sub         eax,ecx
  0040CCEA: 23 C8              and         ecx,eax
  0040CCEC: 49                 dec         ecx
  0040CCED: 23 CB              and         ecx,ebx
  0040CCEF: 5B                 pop         ebx
  0040CCF0: 0F BD C1           bsr         eax,ecx
  0040CCF3: 03 C7              add         eax,edi
  0040CCF5: 85 C9              test        ecx,ecx
  0040CCF7: 0F 44 C2           cmove       eax,edx
  0040CCFA: 5F                 pop         edi
  0040CCFB: C9                 leave
  0040CCFC: C3                 ret
  0040CCFD: 0F B6 55 0C        movzx       edx,byte ptr [ebp+0Ch]
  0040CD01: 85 D2              test        edx,edx
  0040CD03: 74 39              je          0040CD3E
  0040CD05: 33 C0              xor         eax,eax
  0040CD07: F7 C7 0F 00 00 00  test        edi,0Fh
  0040CD0D: 74 15              je          0040CD24
  0040CD0F: 0F B6 0F           movzx       ecx,byte ptr [edi]
  0040CD12: 3B CA              cmp         ecx,edx
  0040CD14: 0F 44 C7           cmove       eax,edi
  0040CD17: 85 C9              test        ecx,ecx
  0040CD19: 74 20              je          0040CD3B
  0040CD1B: 47                 inc         edi
  0040CD1C: F7 C7 0F 00 00 00  test        edi,0Fh
  0040CD22: 75 EB              jne         0040CD0F
  0040CD24: 66 0F 6E C2        movd        xmm0,edx
  0040CD28: 83 C7 10           add         edi,10h
  0040CD2B: 66 0F 3A 63 47 F0  pcmpistri   xmm0,xmmword ptr [edi-10h],40h
            40
  0040CD32: 8D 4C 39 F0        lea         ecx,[ecx+edi-10h]
  0040CD36: 0F 42 C1           cmovb       eax,ecx
  0040CD39: 75 ED              jne         0040CD28
  0040CD3B: 5F                 pop         edi
  0040CD3C: C9                 leave
  0040CD3D: C3                 ret
  0040CD3E: B8 F0 FF FF FF     mov         eax,0FFFFFFF0h
  0040CD43: 23 C7              and         eax,edi
  0040CD45: 66 0F EF C0        pxor        xmm0,xmm0
  0040CD49: 66 0F 74 00        pcmpeqb     xmm0,xmmword ptr [eax]
  0040CD4D: B9 0F 00 00 00     mov         ecx,0Fh
  0040CD52: 23 CF              and         ecx,edi
  0040CD54: BA FF FF FF FF     mov         edx,0FFFFFFFFh
  0040CD59: D3 E2              shl         edx,cl
  0040CD5B: 66 0F D7 F8        pmovmskb    edi,xmm0
  0040CD5F: 23 FA              and         edi,edx
  0040CD61: 75 14              jne         0040CD77
  0040CD63: 66 0F EF C0        pxor        xmm0,xmm0
  0040CD67: 66 0F 74 40 10     pcmpeqb     xmm0,xmmword ptr [eax+10h]
  0040CD6C: 83 C0 10           add         eax,10h
  0040CD6F: 66 0F D7 F8        pmovmskb    edi,xmm0
  0040CD73: 85 FF              test        edi,edi
  0040CD75: 74 EC              je          0040CD63
  0040CD77: 0F BC D7           bsf         edx,edi
  0040CD7A: 03 C2              add         eax,edx
  0040CD7C: EB BD              jmp         0040CD3B
  0040CD7E: 8B 7D 08           mov         edi,dword ptr [ebp+8]
  0040CD81: 33 C0              xor         eax,eax
  0040CD83: 83 C9 FF           or          ecx,0FFFFFFFFh
  0040CD86: F2 AE              repne scas  byte ptr es:[edi]
  0040CD88: 83 C1 01           add         ecx,1
  0040CD8B: F7 D9              neg         ecx
  0040CD8D: 83 EF 01           sub         edi,1
  0040CD90: 8A 45 0C           mov         al,byte ptr [ebp+0Ch]
  0040CD93: FD                 std
  0040CD94: F2 AE              repne scas  byte ptr es:[edi]
  0040CD96: 83 C7 01           add         edi,1
  0040CD99: 38 07              cmp         byte ptr [edi],al
  0040CD9B: 74 04              je          0040CDA1
  0040CD9D: 33 C0              xor         eax,eax
  0040CD9F: EB 02              jmp         0040CDA3
  0040CDA1: 8B C7              mov         eax,edi
  0040CDA3: FC                 cld
  0040CDA4: 5F                 pop         edi
  0040CDA5: C9                 leave
  0040CDA6: C3                 ret
  0040CDA7: 55                 push        ebp
  0040CDA8: 8B EC              mov         ebp,esp
  0040CDAA: 51                 push        ecx
  0040CDAB: 83 3D C4 38 41 00  cmp         dword ptr ds:[004138C4h],1
            01
  0040CDB2: 7C 66              jl          0040CE1A
  0040CDB4: 81 7D 08 B4 02 00  cmp         dword ptr [ebp+8],0C00002B4h
            C0
  0040CDBB: 74 09              je          0040CDC6
  0040CDBD: 81 7D 08 B5 02 00  cmp         dword ptr [ebp+8],0C00002B5h
            C0
  0040CDC4: 75 54              jne         0040CE1A
  0040CDC6: 0F AE 5D FC        stmxcsr     dword ptr [ebp-4]
  0040CDCA: 8B 45 FC           mov         eax,dword ptr [ebp-4]
  0040CDCD: 83 F0 3F           xor         eax,3Fh
  0040CDD0: A8 81              test        al,81h
  0040CDD2: 74 3F              je          0040CE13
  0040CDD4: A9 04 02 00 00     test        eax,204h
  0040CDD9: 75 07              jne         0040CDE2
  0040CDDB: B8 8E 00 00 C0     mov         eax,0C000008Eh
  0040CDE0: C9                 leave
  0040CDE1: C3                 ret
  0040CDE2: A9 02 01 00 00     test        eax,102h
  0040CDE7: 74 2A              je          0040CE13
  0040CDE9: A9 08 04 00 00     test        eax,408h
  0040CDEE: 75 07              jne         0040CDF7
  0040CDF0: B8 91 00 00 C0     mov         eax,0C0000091h
  0040CDF5: C9                 leave
  0040CDF6: C3                 ret
  0040CDF7: A9 10 08 00 00     test        eax,810h
  0040CDFC: 75 07              jne         0040CE05
  0040CDFE: B8 93 00 00 C0     mov         eax,0C0000093h
  0040CE03: C9                 leave
  0040CE04: C3                 ret
  0040CE05: A9 20 10 00 00     test        eax,1020h
  0040CE0A: 75 0E              jne         0040CE1A
  0040CE0C: B8 8F 00 00 C0     mov         eax,0C000008Fh
  0040CE11: C9                 leave
  0040CE12: C3                 ret
  0040CE13: B8 90 00 00 C0     mov         eax,0C0000090h
  0040CE18: C9                 leave
  0040CE19: C3                 ret
  0040CE1A: 8B 45 08           mov         eax,dword ptr [ebp+8]
  0040CE1D: C9                 leave
  0040CE1E: C3                 ret

  Summary

        2000 .data
        6000 .rdata
        1000 .reloc
        C000 .text
